Archive member included to satisfy reference by file (symbol)

/home/daijh/sdk/rk3588/uefi/Build/RK3588/DEBUG_GCC5/AARCH64/MdePkg/Library/BaseStackCheckLib/BaseStackCheckLib/OUTPUT/BaseStackCheckLib.lib(BaseStackCheckGcc.obj)
                              /home/daijh/sdk/rk3588/uefi/edk2/ArmPkg/Library/GccLto/liblto-aarch64.a (__stack_chk_fail)
/home/daijh/sdk/rk3588/uefi/Build/RK3588/DEBUG_GCC5/AARCH64/ArmPkg/Library/CompilerIntrinsicsLib/CompilerIntrinsicsLib/OUTPUT/CompilerIntrinsicsLib.lib(memcpy.obj)
                              /home/daijh/sdk/rk3588/uefi/edk2/ArmPkg/Library/GccLto/liblto-aarch64.a (memcpy)
/home/daijh/sdk/rk3588/uefi/Build/RK3588/DEBUG_GCC5/AARCH64/ArmPkg/Library/CompilerIntrinsicsLib/CompilerIntrinsicsLib/OUTPUT/CompilerIntrinsicsLib.lib(memset.obj)
                              /home/daijh/sdk/rk3588/uefi/edk2/ArmPkg/Library/GccLto/liblto-aarch64.a (memset)
/home/daijh/sdk/rk3588/uefi/Build/RK3588/DEBUG_GCC5/AARCH64/MdePkg/Library/UefiApplicationEntryPoint/UefiApplicationEntryPoint/OUTPUT/UefiApplicationEntryPoint.lib(ApplicationEntryPoint.obj)
                              (_ModuleEntryPoint)
/home/daijh/sdk/rk3588/uefi/Build/RK3588/DEBUG_GCC5/AARCH64/ShellPkg/Application/Shell/Shell/OUTPUT/Shell.lib(AutoGen.obj)
                              ApplicationEntryPoint.obj (symbol from plugin) (ProcessLibraryConstructorList)
/home/daijh/sdk/rk3588/uefi/Build/RK3588/DEBUG_GCC5/AARCH64/ShellPkg/Application/Shell/Shell/OUTPUT/Shell.lib(Shell.obj)
                              AutoGen.obj (symbol from plugin) (UefiMain)
/home/daijh/sdk/rk3588/uefi/Build/RK3588/DEBUG_GCC5/AARCH64/ShellPkg/Application/Shell/Shell/OUTPUT/Shell.lib(ShellParametersProtocol.obj)
                              Shell.obj (symbol from plugin) (GetNextParameter)
/home/daijh/sdk/rk3588/uefi/Build/RK3588/DEBUG_GCC5/AARCH64/ShellPkg/Application/Shell/Shell/OUTPUT/Shell.lib(ShellProtocol.obj)
                              Shell.obj (symbol from plugin) (EfiShellGetEnv)
/home/daijh/sdk/rk3588/uefi/Build/RK3588/DEBUG_GCC5/AARCH64/ShellPkg/Application/Shell/Shell/OUTPUT/Shell.lib(FileHandleWrappers.obj)
                              ShellParametersProtocol.obj (symbol from plugin) (CreateFileInterfaceEnv)
/home/daijh/sdk/rk3588/uefi/Build/RK3588/DEBUG_GCC5/AARCH64/ShellPkg/Application/Shell/Shell/OUTPUT/Shell.lib(ShellEnvVar.obj)
                              ShellProtocol.obj (symbol from plugin) (gShellEnvVarList)
/home/daijh/sdk/rk3588/uefi/Build/RK3588/DEBUG_GCC5/AARCH64/ShellPkg/Application/Shell/Shell/OUTPUT/Shell.lib(ShellManParser.obj)
                              ShellProtocol.obj (symbol from plugin) (ProcessManFile)
/home/daijh/sdk/rk3588/uefi/Build/RK3588/DEBUG_GCC5/AARCH64/ShellPkg/Application/Shell/Shell/OUTPUT/Shell.lib(ConsoleLogger.obj)
                              Shell.obj (symbol from plugin) (ConsoleLoggerUninstall)
/home/daijh/sdk/rk3588/uefi/Build/RK3588/DEBUG_GCC5/AARCH64/ShellPkg/Application/Shell/Shell/OUTPUT/Shell.lib(ConsoleWrappers.obj)
                              Shell.obj (symbol from plugin) (CreateSimpleTextInOnFile)
/home/daijh/sdk/rk3588/uefi/Build/RK3588/DEBUG_GCC5/AARCH64/MdePkg/Library/BaseMemoryLibOptDxe/BaseMemoryLibOptDxe/OUTPUT/BaseMemoryLibOptDxe.lib(MemLibGuid.obj)
                              ShellProtocol.obj (symbol from plugin) (CopyGuid)
/home/daijh/sdk/rk3588/uefi/Build/RK3588/DEBUG_GCC5/AARCH64/MdePkg/Library/BaseMemoryLibOptDxe/BaseMemoryLibOptDxe/OUTPUT/BaseMemoryLibOptDxe.lib(ZeroMemWrapper.obj)
                              ShellProtocol.obj (symbol from plugin) (ZeroMem)
/home/daijh/sdk/rk3588/uefi/Build/RK3588/DEBUG_GCC5/AARCH64/MdePkg/Library/BaseMemoryLibOptDxe/BaseMemoryLibOptDxe/OUTPUT/BaseMemoryLibOptDxe.lib(SetMem16Wrapper.obj)
                              ShellParametersProtocol.obj (symbol from plugin) (SetMem16)
/home/daijh/sdk/rk3588/uefi/Build/RK3588/DEBUG_GCC5/AARCH64/MdePkg/Library/BaseMemoryLibOptDxe/BaseMemoryLibOptDxe/OUTPUT/BaseMemoryLibOptDxe.lib(SetMemWrapper.obj)
                              FileHandleWrappers.obj (symbol from plugin) (SetMem)
/home/daijh/sdk/rk3588/uefi/Build/RK3588/DEBUG_GCC5/AARCH64/MdePkg/Library/BaseMemoryLibOptDxe/BaseMemoryLibOptDxe/OUTPUT/BaseMemoryLibOptDxe.lib(CopyMemWrapper.obj)
                              Shell.obj (symbol from plugin) (CopyMem)
/home/daijh/sdk/rk3588/uefi/Build/RK3588/DEBUG_GCC5/AARCH64/MdePkg/Library/BaseMemoryLibOptDxe/BaseMemoryLibOptDxe/OUTPUT/BaseMemoryLibOptDxe.lib(SetMem.obj)
                              SetMem16Wrapper.obj (symbol from plugin) (InternalMemSetMem16)
/home/daijh/sdk/rk3588/uefi/Build/RK3588/DEBUG_GCC5/AARCH64/MdePkg/Library/BaseMemoryLibOptDxe/BaseMemoryLibOptDxe/OUTPUT/BaseMemoryLibOptDxe.lib(CopyMem.obj)
                              MemLibGuid.obj (symbol from plugin) (InternalMemCopyMem)
/home/daijh/sdk/rk3588/uefi/Build/RK3588/DEBUG_GCC5/AARCH64/MdePkg/Library/BaseMemoryLibOptDxe/BaseMemoryLibOptDxe/OUTPUT/BaseMemoryLibOptDxe.lib(CompareGuid.obj)
                              MemLibGuid.obj (symbol from plugin) (InternalMemCompareGuid)
/home/daijh/sdk/rk3588/uefi/Build/RK3588/DEBUG_GCC5/AARCH64/MdePkg/Library/BaseMemoryLibOptDxe/BaseMemoryLibOptDxe/OUTPUT/BaseMemoryLibOptDxe.lib(SetMem64Wrapper.obj)
                              SetMemWrapper.obj (symbol from plugin) (SetMem64)
/home/daijh/sdk/rk3588/uefi/Build/RK3588/DEBUG_GCC5/AARCH64/MdePkg/Library/BaseLib/BaseLib/OUTPUT/BaseLib.lib(CpuDeadLoop.obj)
                              BaseStackCheckGcc.obj (symbol from plugin) (CpuDeadLoop)
/home/daijh/sdk/rk3588/uefi/Build/RK3588/DEBUG_GCC5/AARCH64/MdePkg/Library/BaseLib/BaseLib/OUTPUT/BaseLib.lib(LinkedList.obj)
                              Shell.obj (symbol from plugin) (InitializeListHead)
/home/daijh/sdk/rk3588/uefi/Build/RK3588/DEBUG_GCC5/AARCH64/MdePkg/Library/BaseLib/BaseLib/OUTPUT/BaseLib.lib(SafeString.obj)
                              Shell.obj (symbol from plugin) (StrCpyS)
/home/daijh/sdk/rk3588/uefi/Build/RK3588/DEBUG_GCC5/AARCH64/MdePkg/Library/BaseLib/BaseLib/OUTPUT/BaseLib.lib(String.obj)
                              Shell.obj (symbol from plugin) (StrLen)
/home/daijh/sdk/rk3588/uefi/Build/RK3588/DEBUG_GCC5/AARCH64/MdePkg/Library/BaseLib/BaseLib/OUTPUT/BaseLib.lib(FilePaths.obj)
                              Shell.obj (symbol from plugin) (PathRemoveLastItem)
/home/daijh/sdk/rk3588/uefi/Build/RK3588/DEBUG_GCC5/AARCH64/MdePkg/Library/BaseLib/BaseLib/OUTPUT/BaseLib.lib(SwitchStack.obj)
                              CpuDeadLoop.obj (symbol from plugin) (CpuPause)
/home/daijh/sdk/rk3588/uefi/Build/RK3588/DEBUG_GCC5/AARCH64/MdePkg/Library/BaseLib/BaseLib/OUTPUT/BaseLib.lib(CpuBreakpoint.obj)
                              BaseStackCheckGcc.obj (symbol from plugin) (CpuBreakpoint)
/home/daijh/sdk/rk3588/uefi/Build/RK3588/DEBUG_GCC5/AARCH64/MdePkg/Library/BaseLib/BaseLib/OUTPUT/BaseLib.lib(SwapBytes32.obj)
                              SafeString.obj (symbol from plugin) (SwapBytes32)
/home/daijh/sdk/rk3588/uefi/Build/RK3588/DEBUG_GCC5/AARCH64/MdePkg/Library/BaseLib/BaseLib/OUTPUT/BaseLib.lib(SwapBytes16.obj)
                              SafeString.obj (symbol from plugin) (SwapBytes16)
/home/daijh/sdk/rk3588/uefi/Build/RK3588/DEBUG_GCC5/AARCH64/MdePkg/Library/BaseLib/BaseLib/OUTPUT/BaseLib.lib(RShiftU64.obj)
                              SafeString.obj (symbol from plugin) (RShiftU64)
/home/daijh/sdk/rk3588/uefi/Build/RK3588/DEBUG_GCC5/AARCH64/MdePkg/Library/BaseLib/BaseLib/OUTPUT/BaseLib.lib(MultU64x32.obj)
                              SafeString.obj (symbol from plugin) (MultU64x32)
/home/daijh/sdk/rk3588/uefi/Build/RK3588/DEBUG_GCC5/AARCH64/MdePkg/Library/BaseLib/BaseLib/OUTPUT/BaseLib.lib(LShiftU64.obj)
                              SafeString.obj (symbol from plugin) (LShiftU64)
/home/daijh/sdk/rk3588/uefi/Build/RK3588/DEBUG_GCC5/AARCH64/MdePkg/Library/BaseLib/BaseLib/OUTPUT/BaseLib.lib(DivU64x32.obj)
                              SafeString.obj (symbol from plugin) (DivU64x32)
/home/daijh/sdk/rk3588/uefi/Build/RK3588/DEBUG_GCC5/AARCH64/MdePkg/Library/BaseLib/BaseLib/OUTPUT/BaseLib.lib(Math64.obj)
                              LShiftU64.obj (symbol from plugin) (InternalMathLShiftU64)
/home/daijh/sdk/rk3588/uefi/Build/RK3588/DEBUG_GCC5/AARCH64/MdePkg/Library/BasePrintLib/BasePrintLib/OUTPUT/BasePrintLib.lib(PrintLib.obj)
                              Shell.obj (symbol from plugin) (UnicodeSPrint)
/home/daijh/sdk/rk3588/uefi/Build/RK3588/DEBUG_GCC5/AARCH64/MdePkg/Library/BasePrintLib/BasePrintLib/OUTPUT/BasePrintLib.lib(PrintLibInternal.obj)
                              PrintLib.obj (symbol from plugin) (BasePrintLibConvertValueToStringS)
/home/daijh/sdk/rk3588/uefi/Build/RK3588/DEBUG_GCC5/AARCH64/MdePkg/Library/BaseDebugLibSerialPort/BaseDebugLibSerialPort/OUTPUT/BaseDebugLibSerialPort.lib(DebugLib.obj)
                              AutoGen.obj (symbol from plugin) (BaseDebugLibSerialPortConstructor)
/home/daijh/sdk/rk3588/uefi/Build/RK3588/DEBUG_GCC5/AARCH64/MdePkg/Library/UefiBootServicesTableLib/UefiBootServicesTableLib/OUTPUT/UefiBootServicesTableLib.lib(UefiBootServicesTableLib.obj)
                              AutoGen.obj (symbol from plugin) (UefiBootServicesTableLibConstructor)
/home/daijh/sdk/rk3588/uefi/Build/RK3588/DEBUG_GCC5/AARCH64/MdePkg/Library/UefiMemoryAllocationLib/UefiMemoryAllocationLib/OUTPUT/UefiMemoryAllocationLib.lib(MemoryAllocationLib.obj)
                              ShellProtocol.obj (symbol from plugin) (AllocatePool)
/home/daijh/sdk/rk3588/uefi/Build/RK3588/DEBUG_GCC5/AARCH64/MdePkg/Library/UefiDevicePathLib/UefiDevicePathLib/OUTPUT/UefiDevicePathLib.lib(DevicePathUtilities.obj)
                              ShellProtocol.obj (symbol from plugin) (DevicePathType)
/home/daijh/sdk/rk3588/uefi/Build/RK3588/DEBUG_GCC5/AARCH64/MdePkg/Library/UefiDevicePathLib/UefiDevicePathLib/OUTPUT/UefiDevicePathLib.lib(DevicePathUtilitiesDxeSmm.obj)
                              DevicePathUtilities.obj (symbol from plugin) (DevicePathFromHandle)
/home/daijh/sdk/rk3588/uefi/Build/RK3588/DEBUG_GCC5/AARCH64/MdePkg/Library/UefiDevicePathLib/UefiDevicePathLib/OUTPUT/UefiDevicePathLib.lib(UefiDevicePathLib.obj)
                              DevicePathUtilities.obj (symbol from plugin) (GetDevicePathSize)
/home/daijh/sdk/rk3588/uefi/Build/RK3588/DEBUG_GCC5/AARCH64/MdePkg/Library/UefiDevicePathLib/UefiDevicePathLib/OUTPUT/UefiDevicePathLib.lib(DevicePathToText.obj)
                              UefiDevicePathLib.obj (symbol from plugin) (UefiDevicePathLibConvertDeviceNodeToText)
/home/daijh/sdk/rk3588/uefi/Build/RK3588/DEBUG_GCC5/AARCH64/MdePkg/Library/UefiDevicePathLib/UefiDevicePathLib/OUTPUT/UefiDevicePathLib.lib(DevicePathFromText.obj)
                              UefiDevicePathLib.obj (symbol from plugin) (UefiDevicePathLibConvertTextToDeviceNode)
/home/daijh/sdk/rk3588/uefi/Build/RK3588/DEBUG_GCC5/AARCH64/MdePkg/Library/UefiRuntimeServicesTableLib/UefiRuntimeServicesTableLib/OUTPUT/UefiRuntimeServicesTableLib.lib(UefiRuntimeServicesTableLib.obj)
                              AutoGen.obj (symbol from plugin) (UefiRuntimeServicesTableLibConstructor)
/home/daijh/sdk/rk3588/uefi/Build/RK3588/DEBUG_GCC5/AARCH64/MdeModulePkg/Library/UefiHiiServicesLib/UefiHiiServicesLib/OUTPUT/UefiHiiServicesLib.lib(UefiHiiServicesLib.obj)
                              AutoGen.obj (symbol from plugin) (UefiHiiServicesLibConstructor)
/home/daijh/sdk/rk3588/uefi/Build/RK3588/DEBUG_GCC5/AARCH64/MdePkg/Library/UefiLib/UefiLib/OUTPUT/UefiLib.lib(UefiLib.obj)
                              AutoGen.obj (symbol from plugin) (UefiLibConstructor)
/home/daijh/sdk/rk3588/uefi/Build/RK3588/DEBUG_GCC5/AARCH64/MdeModulePkg/Library/UefiSortLib/UefiSortLib/OUTPUT/UefiSortLib.lib(UefiSortLib.obj)
                              ShellProtocol.obj (symbol from plugin) (DevicePathCompare)
/home/daijh/sdk/rk3588/uefi/Build/RK3588/DEBUG_GCC5/AARCH64/MdeModulePkg/Library/UefiHiiLib/UefiHiiLib/OUTPUT/UefiHiiLib.lib(HiiLib.obj)
                              Shell.obj (symbol from plugin) (HiiAddPackages)
/home/daijh/sdk/rk3588/uefi/Build/RK3588/DEBUG_GCC5/AARCH64/MdeModulePkg/Library/UefiHiiLib/UefiHiiLib/OUTPUT/UefiHiiLib.lib(HiiString.obj)
                              ShellManParser.obj (symbol from plugin) (HiiGetString)
/home/daijh/sdk/rk3588/uefi/Build/RK3588/DEBUG_GCC5/AARCH64/MdeModulePkg/Library/UefiHiiLib/UefiHiiLib/OUTPUT/UefiHiiLib.lib(HiiLanguage.obj)
                              HiiString.obj (symbol from plugin) (HiiGetSupportedLanguages)
/home/daijh/sdk/rk3588/uefi/Build/RK3588/DEBUG_GCC5/AARCH64/MdePkg/Library/UefiFileHandleLib/UefiFileHandleLib/OUTPUT/UefiFileHandleLib.lib(UefiFileHandleLib.obj)
                              ShellProtocol.obj (symbol from plugin) (FileHandleGetInfo)
/home/daijh/sdk/rk3588/uefi/Build/RK3588/DEBUG_GCC5/AARCH64/MdePkg/Library/DxeServicesTableLib/DxeServicesTableLib/OUTPUT/DxeServicesTableLib.lib(DxeServicesTableLib.obj)
                              AutoGen.obj (symbol from plugin) (DxeServicesTableLibConstructor)
/home/daijh/sdk/rk3588/uefi/Build/RK3588/DEBUG_GCC5/AARCH64/MdePkg/Library/DxeHobLib/DxeHobLib/OUTPUT/DxeHobLib.lib(HobLib.obj)
                              AutoGen.obj (symbol from plugin) (HobLibConstructor)
/home/daijh/sdk/rk3588/uefi/Build/RK3588/DEBUG_GCC5/AARCH64/ShellPkg/Library/UefiShellLib/UefiShellLib/OUTPUT/UefiShellLib.lib(UefiShellLib.obj)
                              Shell.obj (symbol from plugin) (gEfiShellProtocol)
/home/daijh/sdk/rk3588/uefi/Build/RK3588/DEBUG_GCC5/AARCH64/ShellPkg/Library/UefiHandleParsingLib/UefiHandleParsingLib/OUTPUT/UefiHandleParsingLib.lib(UefiHandleParsingLib.obj)
                              AutoGen.obj (symbol from plugin) (HandleParsingLibConstructor)
/home/daijh/sdk/rk3588/uefi/Build/RK3588/DEBUG_GCC5/AARCH64/ShellPkg/Library/UefiHandleParsingLib/UefiHandleParsingLib/OUTPUT/UefiHandleParsingLib.lib(AutoGen.obj)
                              UefiHandleParsingLib.obj (symbol from plugin) (UefiHandleParsingLibStrings)
/home/daijh/sdk/rk3588/uefi/Build/RK3588/DEBUG_GCC5/AARCH64/ShellPkg/Library/UefiShellCommandLib/UefiShellCommandLib/OUTPUT/UefiShellCommandLib.lib(UefiShellCommandLib.obj)
                              ShellParametersProtocol.obj (symbol from plugin) (gUnicodeCollation)
/home/daijh/sdk/rk3588/uefi/Build/RK3588/DEBUG_GCC5/AARCH64/ShellPkg/Library/UefiShellCommandLib/UefiShellCommandLib/OUTPUT/UefiShellCommandLib.lib(ConsistMapping.obj)
                              UefiShellCommandLib.obj (symbol from plugin) (ShellCommandConsistMappingInitialize)
/home/daijh/sdk/rk3588/uefi/Build/RK3588/DEBUG_GCC5/AARCH64/ShellPkg/Library/UefiShellLevel2CommandsLib/UefiShellLevel2CommandsLib/OUTPUT/UefiShellLevel2CommandsLib.lib(UefiShellLevel2CommandsLib.obj)
                              AutoGen.obj (symbol from plugin) (ShellLevel2CommandsLibConstructor)
/home/daijh/sdk/rk3588/uefi/Build/RK3588/DEBUG_GCC5/AARCH64/ShellPkg/Library/UefiShellLevel2CommandsLib/UefiShellLevel2CommandsLib/OUTPUT/UefiShellLevel2CommandsLib.lib(TimeDate.obj)
                              UefiShellLevel2CommandsLib.obj (symbol from plugin) (ShellCommandRunDate)
/home/daijh/sdk/rk3588/uefi/Build/RK3588/DEBUG_GCC5/AARCH64/ShellPkg/Library/UefiShellLevel2CommandsLib/UefiShellLevel2CommandsLib/OUTPUT/UefiShellLevel2CommandsLib.lib(Load.obj)
                              UefiShellLevel2CommandsLib.obj (symbol from plugin) (ShellCommandRunLoad)
/home/daijh/sdk/rk3588/uefi/Build/RK3588/DEBUG_GCC5/AARCH64/ShellPkg/Library/UefiShellLevel2CommandsLib/UefiShellLevel2CommandsLib/OUTPUT/UefiShellLevel2CommandsLib.lib(Ls.obj)
                              UefiShellLevel2CommandsLib.obj (symbol from plugin) (ShellCommandRunLs)
/home/daijh/sdk/rk3588/uefi/Build/RK3588/DEBUG_GCC5/AARCH64/ShellPkg/Library/UefiShellLevel2CommandsLib/UefiShellLevel2CommandsLib/OUTPUT/UefiShellLevel2CommandsLib.lib(Map.obj)
                              UefiShellLevel2CommandsLib.obj (symbol from plugin) (ShellCommandRunMap)
/home/daijh/sdk/rk3588/uefi/Build/RK3588/DEBUG_GCC5/AARCH64/ShellPkg/Library/UefiShellLevel2CommandsLib/UefiShellLevel2CommandsLib/OUTPUT/UefiShellLevel2CommandsLib.lib(Reset.obj)
                              UefiShellLevel2CommandsLib.obj (symbol from plugin) (ShellCommandRunReset)
/home/daijh/sdk/rk3588/uefi/Build/RK3588/DEBUG_GCC5/AARCH64/ShellPkg/Library/UefiShellLevel2CommandsLib/UefiShellLevel2CommandsLib/OUTPUT/UefiShellLevel2CommandsLib.lib(Set.obj)
                              UefiShellLevel2CommandsLib.obj (symbol from plugin) (ShellCommandRunSet)
/home/daijh/sdk/rk3588/uefi/Build/RK3588/DEBUG_GCC5/AARCH64/ShellPkg/Library/UefiShellLevel2CommandsLib/UefiShellLevel2CommandsLib/OUTPUT/UefiShellLevel2CommandsLib.lib(MkDir.obj)
                              UefiShellLevel2CommandsLib.obj (symbol from plugin) (ShellCommandRunMkDir)
/home/daijh/sdk/rk3588/uefi/Build/RK3588/DEBUG_GCC5/AARCH64/ShellPkg/Library/UefiShellLevel2CommandsLib/UefiShellLevel2CommandsLib/OUTPUT/UefiShellLevel2CommandsLib.lib(Cd.obj)
                              UefiShellLevel2CommandsLib.obj (symbol from plugin) (ShellCommandRunCd)
/home/daijh/sdk/rk3588/uefi/Build/RK3588/DEBUG_GCC5/AARCH64/ShellPkg/Library/UefiShellLevel2CommandsLib/UefiShellLevel2CommandsLib/OUTPUT/UefiShellLevel2CommandsLib.lib(Cp.obj)
                              UefiShellLevel2CommandsLib.obj (symbol from plugin) (ShellCommandRunCp)
/home/daijh/sdk/rk3588/uefi/Build/RK3588/DEBUG_GCC5/AARCH64/ShellPkg/Library/UefiShellLevel2CommandsLib/UefiShellLevel2CommandsLib/OUTPUT/UefiShellLevel2CommandsLib.lib(Parse.obj)
                              UefiShellLevel2CommandsLib.obj (symbol from plugin) (ShellCommandRunParse)
/home/daijh/sdk/rk3588/uefi/Build/RK3588/DEBUG_GCC5/AARCH64/ShellPkg/Library/UefiShellLevel2CommandsLib/UefiShellLevel2CommandsLib/OUTPUT/UefiShellLevel2CommandsLib.lib(Rm.obj)
                              UefiShellLevel2CommandsLib.obj (symbol from plugin) (ShellCommandRunRm)
/home/daijh/sdk/rk3588/uefi/Build/RK3588/DEBUG_GCC5/AARCH64/ShellPkg/Library/UefiShellLevel2CommandsLib/UefiShellLevel2CommandsLib/OUTPUT/UefiShellLevel2CommandsLib.lib(Mv.obj)
                              UefiShellLevel2CommandsLib.obj (symbol from plugin) (ShellCommandRunMv)
/home/daijh/sdk/rk3588/uefi/Build/RK3588/DEBUG_GCC5/AARCH64/ShellPkg/Library/UefiShellLevel2CommandsLib/UefiShellLevel2CommandsLib/OUTPUT/UefiShellLevel2CommandsLib.lib(Attrib.obj)
                              UefiShellLevel2CommandsLib.obj (symbol from plugin) (ShellCommandRunAttrib)
/home/daijh/sdk/rk3588/uefi/Build/RK3588/DEBUG_GCC5/AARCH64/ShellPkg/Library/UefiShellLevel2CommandsLib/UefiShellLevel2CommandsLib/OUTPUT/UefiShellLevel2CommandsLib.lib(Vol.obj)
                              UefiShellLevel2CommandsLib.obj (symbol from plugin) (ShellCommandRunVol)
/home/daijh/sdk/rk3588/uefi/Build/RK3588/DEBUG_GCC5/AARCH64/ShellPkg/Library/UefiShellLevel2CommandsLib/UefiShellLevel2CommandsLib/OUTPUT/UefiShellLevel2CommandsLib.lib(AutoGen.obj)
                              UefiShellLevel2CommandsLib.obj (symbol from plugin) (UefiShellLevel2CommandsLibStrings)
/home/daijh/sdk/rk3588/uefi/Build/RK3588/DEBUG_GCC5/AARCH64/ShellPkg/Library/UefiShellLevel1CommandsLib/UefiShellLevel1CommandsLib/OUTPUT/UefiShellLevel1CommandsLib.lib(UefiShellLevel1CommandsLib.obj)
                              AutoGen.obj (symbol from plugin) (ShellLevel1CommandsLibConstructor)
/home/daijh/sdk/rk3588/uefi/Build/RK3588/DEBUG_GCC5/AARCH64/ShellPkg/Library/UefiShellLevel1CommandsLib/UefiShellLevel1CommandsLib/OUTPUT/UefiShellLevel1CommandsLib.lib(Exit.obj)
                              UefiShellLevel1CommandsLib.obj (symbol from plugin) (ShellCommandRunExit)
/home/daijh/sdk/rk3588/uefi/Build/RK3588/DEBUG_GCC5/AARCH64/ShellPkg/Library/UefiShellLevel1CommandsLib/UefiShellLevel1CommandsLib/OUTPUT/UefiShellLevel1CommandsLib.lib(Goto.obj)
                              UefiShellLevel1CommandsLib.obj (symbol from plugin) (ShellCommandRunGoto)
/home/daijh/sdk/rk3588/uefi/Build/RK3588/DEBUG_GCC5/AARCH64/ShellPkg/Library/UefiShellLevel1CommandsLib/UefiShellLevel1CommandsLib/OUTPUT/UefiShellLevel1CommandsLib.lib(If.obj)
                              UefiShellLevel1CommandsLib.obj (symbol from plugin) (ShellCommandRunIf)
/home/daijh/sdk/rk3588/uefi/Build/RK3588/DEBUG_GCC5/AARCH64/ShellPkg/Library/UefiShellLevel1CommandsLib/UefiShellLevel1CommandsLib/OUTPUT/UefiShellLevel1CommandsLib.lib(For.obj)
                              UefiShellLevel1CommandsLib.obj (symbol from plugin) (ShellCommandRunEndFor)
/home/daijh/sdk/rk3588/uefi/Build/RK3588/DEBUG_GCC5/AARCH64/ShellPkg/Library/UefiShellLevel1CommandsLib/UefiShellLevel1CommandsLib/OUTPUT/UefiShellLevel1CommandsLib.lib(Shift.obj)
                              UefiShellLevel1CommandsLib.obj (symbol from plugin) (ShellCommandRunShift)
/home/daijh/sdk/rk3588/uefi/Build/RK3588/DEBUG_GCC5/AARCH64/ShellPkg/Library/UefiShellLevel1CommandsLib/UefiShellLevel1CommandsLib/OUTPUT/UefiShellLevel1CommandsLib.lib(Stall.obj)
                              UefiShellLevel1CommandsLib.obj (symbol from plugin) (ShellCommandRunStall)
/home/daijh/sdk/rk3588/uefi/Build/RK3588/DEBUG_GCC5/AARCH64/ShellPkg/Library/UefiShellLevel1CommandsLib/UefiShellLevel1CommandsLib/OUTPUT/UefiShellLevel1CommandsLib.lib(AutoGen.obj)
                              UefiShellLevel1CommandsLib.obj (symbol from plugin) (UefiShellLevel1CommandsLibStrings)
/home/daijh/sdk/rk3588/uefi/Build/RK3588/DEBUG_GCC5/AARCH64/ShellPkg/Library/UefiShellLevel3CommandsLib/UefiShellLevel3CommandsLib/OUTPUT/UefiShellLevel3CommandsLib.lib(UefiShellLevel3CommandsLib.obj)
                              AutoGen.obj (symbol from plugin) (ShellLevel3CommandsLibConstructor)
/home/daijh/sdk/rk3588/uefi/Build/RK3588/DEBUG_GCC5/AARCH64/ShellPkg/Library/UefiShellLevel3CommandsLib/UefiShellLevel3CommandsLib/OUTPUT/UefiShellLevel3CommandsLib.lib(Cls.obj)
                              UefiShellLevel3CommandsLib.obj (symbol from plugin) (ShellCommandRunCls)
/home/daijh/sdk/rk3588/uefi/Build/RK3588/DEBUG_GCC5/AARCH64/ShellPkg/Library/UefiShellLevel3CommandsLib/UefiShellLevel3CommandsLib/OUTPUT/UefiShellLevel3CommandsLib.lib(Alias.obj)
                              UefiShellLevel3CommandsLib.obj (symbol from plugin) (ShellCommandRunAlias)
/home/daijh/sdk/rk3588/uefi/Build/RK3588/DEBUG_GCC5/AARCH64/ShellPkg/Library/UefiShellLevel3CommandsLib/UefiShellLevel3CommandsLib/OUTPUT/UefiShellLevel3CommandsLib.lib(Echo.obj)
                              UefiShellLevel3CommandsLib.obj (symbol from plugin) (ShellCommandRunEcho)
/home/daijh/sdk/rk3588/uefi/Build/RK3588/DEBUG_GCC5/AARCH64/ShellPkg/Library/UefiShellLevel3CommandsLib/UefiShellLevel3CommandsLib/OUTPUT/UefiShellLevel3CommandsLib.lib(Pause.obj)
                              UefiShellLevel3CommandsLib.obj (symbol from plugin) (ShellCommandRunPause)
/home/daijh/sdk/rk3588/uefi/Build/RK3588/DEBUG_GCC5/AARCH64/ShellPkg/Library/UefiShellLevel3CommandsLib/UefiShellLevel3CommandsLib/OUTPUT/UefiShellLevel3CommandsLib.lib(GetMtc.obj)
                              UefiShellLevel3CommandsLib.obj (symbol from plugin) (ShellCommandRunGetMtc)
/home/daijh/sdk/rk3588/uefi/Build/RK3588/DEBUG_GCC5/AARCH64/ShellPkg/Library/UefiShellLevel3CommandsLib/UefiShellLevel3CommandsLib/OUTPUT/UefiShellLevel3CommandsLib.lib(Help.obj)
                              UefiShellLevel3CommandsLib.obj (symbol from plugin) (ShellCommandRunHelp)
/home/daijh/sdk/rk3588/uefi/Build/RK3588/DEBUG_GCC5/AARCH64/ShellPkg/Library/UefiShellLevel3CommandsLib/UefiShellLevel3CommandsLib/OUTPUT/UefiShellLevel3CommandsLib.lib(AutoGen.obj)
                              UefiShellLevel3CommandsLib.obj (symbol from plugin) (UefiShellLevel3CommandsLibStrings)
/home/daijh/sdk/rk3588/uefi/Build/RK3588/DEBUG_GCC5/AARCH64/ShellPkg/Library/UefiShellLevel3CommandsLib/UefiShellLevel3CommandsLib/OUTPUT/UefiShellLevel3CommandsLib.lib(Type.obj)
                              UefiShellLevel3CommandsLib.obj (symbol from plugin) (ShellCommandRunType)
/home/daijh/sdk/rk3588/uefi/Build/RK3588/DEBUG_GCC5/AARCH64/ShellPkg/Library/UefiShellLevel3CommandsLib/UefiShellLevel3CommandsLib/OUTPUT/UefiShellLevel3CommandsLib.lib(Touch.obj)
                              UefiShellLevel3CommandsLib.obj (symbol from plugin) (ShellCommandRunTouch)
/home/daijh/sdk/rk3588/uefi/Build/RK3588/DEBUG_GCC5/AARCH64/ShellPkg/Library/UefiShellLevel3CommandsLib/UefiShellLevel3CommandsLib/OUTPUT/UefiShellLevel3CommandsLib.lib(Ver.obj)
                              UefiShellLevel3CommandsLib.obj (symbol from plugin) (ShellCommandRunVer)
/home/daijh/sdk/rk3588/uefi/Build/RK3588/DEBUG_GCC5/AARCH64/ShellPkg/Library/UefiShellDriver1CommandsLib/UefiShellDriver1CommandsLib/OUTPUT/UefiShellDriver1CommandsLib.lib(UefiShellDriver1CommandsLib.obj)
                              AutoGen.obj (symbol from plugin) (UefiShellDriver1CommandsLibConstructor)
/home/daijh/sdk/rk3588/uefi/Build/RK3588/DEBUG_GCC5/AARCH64/ShellPkg/Library/UefiShellDriver1CommandsLib/UefiShellDriver1CommandsLib/OUTPUT/UefiShellDriver1CommandsLib.lib(AutoGen.obj)
                              UefiShellDriver1CommandsLib.obj (symbol from plugin) (UefiShellDriver1CommandsLibStrings)
/home/daijh/sdk/rk3588/uefi/Build/RK3588/DEBUG_GCC5/AARCH64/ShellPkg/Library/UefiShellDriver1CommandsLib/UefiShellDriver1CommandsLib/OUTPUT/UefiShellDriver1CommandsLib.lib(Connect.obj)
                              UefiShellDriver1CommandsLib.obj (symbol from plugin) (ShellCommandRunConnect)
/home/daijh/sdk/rk3588/uefi/Build/RK3588/DEBUG_GCC5/AARCH64/ShellPkg/Library/UefiShellDriver1CommandsLib/UefiShellDriver1CommandsLib/OUTPUT/UefiShellDriver1CommandsLib.lib(Devices.obj)
                              UefiShellDriver1CommandsLib.obj (symbol from plugin) (ShellCommandRunDevices)
/home/daijh/sdk/rk3588/uefi/Build/RK3588/DEBUG_GCC5/AARCH64/ShellPkg/Library/UefiShellDriver1CommandsLib/UefiShellDriver1CommandsLib/OUTPUT/UefiShellDriver1CommandsLib.lib(OpenInfo.obj)
                              UefiShellDriver1CommandsLib.obj (symbol from plugin) (ShellCommandRunOpenInfo)
/home/daijh/sdk/rk3588/uefi/Build/RK3588/DEBUG_GCC5/AARCH64/ShellPkg/Library/UefiShellDriver1CommandsLib/UefiShellDriver1CommandsLib/OUTPUT/UefiShellDriver1CommandsLib.lib(Disconnect.obj)
                              UefiShellDriver1CommandsLib.obj (symbol from plugin) (ShellCommandRunDisconnect)
/home/daijh/sdk/rk3588/uefi/Build/RK3588/DEBUG_GCC5/AARCH64/ShellPkg/Library/UefiShellDriver1CommandsLib/UefiShellDriver1CommandsLib/OUTPUT/UefiShellDriver1CommandsLib.lib(Reconnect.obj)
                              UefiShellDriver1CommandsLib.obj (symbol from plugin) (ShellCommandRunReconnect)
/home/daijh/sdk/rk3588/uefi/Build/RK3588/DEBUG_GCC5/AARCH64/ShellPkg/Library/UefiShellDriver1CommandsLib/UefiShellDriver1CommandsLib/OUTPUT/UefiShellDriver1CommandsLib.lib(Unload.obj)
                              UefiShellDriver1CommandsLib.obj (symbol from plugin) (ShellCommandRunUnload)
/home/daijh/sdk/rk3588/uefi/Build/RK3588/DEBUG_GCC5/AARCH64/ShellPkg/Library/UefiShellDriver1CommandsLib/UefiShellDriver1CommandsLib/OUTPUT/UefiShellDriver1CommandsLib.lib(DrvDiag.obj)
                              UefiShellDriver1CommandsLib.obj (symbol from plugin) (ShellCommandRunDrvDiag)
/home/daijh/sdk/rk3588/uefi/Build/RK3588/DEBUG_GCC5/AARCH64/ShellPkg/Library/UefiShellDriver1CommandsLib/UefiShellDriver1CommandsLib/OUTPUT/UefiShellDriver1CommandsLib.lib(Dh.obj)
                              UefiShellDriver1CommandsLib.obj (symbol from plugin) (ShellCommandRunDh)
/home/daijh/sdk/rk3588/uefi/Build/RK3588/DEBUG_GCC5/AARCH64/ShellPkg/Library/UefiShellDriver1CommandsLib/UefiShellDriver1CommandsLib/OUTPUT/UefiShellDriver1CommandsLib.lib(Drivers.obj)
                              UefiShellDriver1CommandsLib.obj (symbol from plugin) (ShellCommandRunDrivers)
/home/daijh/sdk/rk3588/uefi/Build/RK3588/DEBUG_GCC5/AARCH64/ShellPkg/Library/UefiShellDriver1CommandsLib/UefiShellDriver1CommandsLib/OUTPUT/UefiShellDriver1CommandsLib.lib(DevTree.obj)
                              UefiShellDriver1CommandsLib.obj (symbol from plugin) (ShellCommandRunDevTree)
/home/daijh/sdk/rk3588/uefi/Build/RK3588/DEBUG_GCC5/AARCH64/ShellPkg/Library/UefiShellDriver1CommandsLib/UefiShellDriver1CommandsLib/OUTPUT/UefiShellDriver1CommandsLib.lib(DrvCfg.obj)
                              UefiShellDriver1CommandsLib.obj (symbol from plugin) (ShellCommandRunDrvCfg)
/home/daijh/sdk/rk3588/uefi/Build/RK3588/DEBUG_GCC5/AARCH64/ShellPkg/Library/UefiShellDebug1CommandsLib/UefiShellDebug1CommandsLib/OUTPUT/UefiShellDebug1CommandsLib.lib(UefiShellDebug1CommandsLib.obj)
                              AutoGen.obj (symbol from plugin) (UefiShellDebug1CommandsLibConstructor)
/home/daijh/sdk/rk3588/uefi/Build/RK3588/DEBUG_GCC5/AARCH64/ShellPkg/Library/UefiShellDebug1CommandsLib/UefiShellDebug1CommandsLib/OUTPUT/UefiShellDebug1CommandsLib.lib(Edit.obj)
                              UefiShellDebug1CommandsLib.obj (symbol from plugin) (ShellCommandRunEdit)
/home/daijh/sdk/rk3588/uefi/Build/RK3588/DEBUG_GCC5/AARCH64/ShellPkg/Library/UefiShellDebug1CommandsLib/UefiShellDebug1CommandsLib/OUTPUT/UefiShellDebug1CommandsLib.lib(FileBuffer.obj)
                              Edit.obj (symbol from plugin) (FileBufferSetFileName)
/home/daijh/sdk/rk3588/uefi/Build/RK3588/DEBUG_GCC5/AARCH64/ShellPkg/Library/UefiShellDebug1CommandsLib/UefiShellDebug1CommandsLib/OUTPUT/UefiShellDebug1CommandsLib.lib(MainTextEditor.obj)
                              Edit.obj (symbol from plugin) (MainEditor)
/home/daijh/sdk/rk3588/uefi/Build/RK3588/DEBUG_GCC5/AARCH64/ShellPkg/Library/UefiShellDebug1CommandsLib/UefiShellDebug1CommandsLib/OUTPUT/UefiShellDebug1CommandsLib.lib(Misc.obj)
                              FileBuffer.obj (symbol from plugin) (LineDup)
/home/daijh/sdk/rk3588/uefi/Build/RK3588/DEBUG_GCC5/AARCH64/ShellPkg/Library/UefiShellDebug1CommandsLib/UefiShellDebug1CommandsLib/OUTPUT/UefiShellDebug1CommandsLib.lib(HexEdit.obj)
                              UefiShellDebug1CommandsLib.obj (symbol from plugin) (ShellCommandRunHexEdit)
/home/daijh/sdk/rk3588/uefi/Build/RK3588/DEBUG_GCC5/AARCH64/ShellPkg/Library/UefiShellDebug1CommandsLib/UefiShellDebug1CommandsLib/OUTPUT/UefiShellDebug1CommandsLib.lib(MainHexEditor.obj)
                              HexEdit.obj (symbol from plugin) (HMainEditorInit)
/home/daijh/sdk/rk3588/uefi/Build/RK3588/DEBUG_GCC5/AARCH64/ShellPkg/Library/UefiShellDebug1CommandsLib/UefiShellDebug1CommandsLib/OUTPUT/UefiShellDebug1CommandsLib.lib(Misc.obj)
                              MainHexEditor.obj (symbol from plugin) (HGetTextX)
/home/daijh/sdk/rk3588/uefi/Build/RK3588/DEBUG_GCC5/AARCH64/ShellPkg/Library/UefiShellDebug1CommandsLib/UefiShellDebug1CommandsLib/OUTPUT/UefiShellDebug1CommandsLib.lib(AutoGen.obj)
                              UefiShellDebug1CommandsLib.obj (symbol from plugin) (UefiShellDebug1CommandsLibStrings)
/home/daijh/sdk/rk3588/uefi/Build/RK3588/DEBUG_GCC5/AARCH64/ShellPkg/Library/UefiShellDebug1CommandsLib/UefiShellDebug1CommandsLib/OUTPUT/UefiShellDebug1CommandsLib.lib(SetSize.obj)
                              UefiShellDebug1CommandsLib.obj (symbol from plugin) (ShellCommandRunSetSize)
/home/daijh/sdk/rk3588/uefi/Build/RK3588/DEBUG_GCC5/AARCH64/ShellPkg/Library/UefiShellDebug1CommandsLib/UefiShellDebug1CommandsLib/OUTPUT/UefiShellDebug1CommandsLib.lib(Comp.obj)
                              UefiShellDebug1CommandsLib.obj (symbol from plugin) (ShellCommandRunComp)
/home/daijh/sdk/rk3588/uefi/Build/RK3588/DEBUG_GCC5/AARCH64/ShellPkg/Library/UefiShellDebug1CommandsLib/UefiShellDebug1CommandsLib/OUTPUT/UefiShellDebug1CommandsLib.lib(Mode.obj)
                              UefiShellDebug1CommandsLib.obj (symbol from plugin) (ShellCommandRunMode)
/home/daijh/sdk/rk3588/uefi/Build/RK3588/DEBUG_GCC5/AARCH64/ShellPkg/Library/UefiShellDebug1CommandsLib/UefiShellDebug1CommandsLib/OUTPUT/UefiShellDebug1CommandsLib.lib(MemMap.obj)
                              UefiShellDebug1CommandsLib.obj (symbol from plugin) (ShellCommandRunMemMap)
/home/daijh/sdk/rk3588/uefi/Build/RK3588/DEBUG_GCC5/AARCH64/ShellPkg/Library/UefiShellDebug1CommandsLib/UefiShellDebug1CommandsLib/OUTPUT/UefiShellDebug1CommandsLib.lib(EfiCompress.obj)
                              UefiShellDebug1CommandsLib.obj (symbol from plugin) (ShellCommandRunEfiCompress)
/home/daijh/sdk/rk3588/uefi/Build/RK3588/DEBUG_GCC5/AARCH64/ShellPkg/Library/UefiShellDebug1CommandsLib/UefiShellDebug1CommandsLib/OUTPUT/UefiShellDebug1CommandsLib.lib(EfiDecompress.obj)
                              UefiShellDebug1CommandsLib.obj (symbol from plugin) (ShellCommandRunEfiDecompress)
/home/daijh/sdk/rk3588/uefi/Build/RK3588/DEBUG_GCC5/AARCH64/ShellPkg/Library/UefiShellDebug1CommandsLib/UefiShellDebug1CommandsLib/OUTPUT/UefiShellDebug1CommandsLib.lib(Dmem.obj)
                              UefiShellDebug1CommandsLib.obj (symbol from plugin) (ShellCommandRunDmem)
/home/daijh/sdk/rk3588/uefi/Build/RK3588/DEBUG_GCC5/AARCH64/ShellPkg/Library/UefiShellDebug1CommandsLib/UefiShellDebug1CommandsLib/OUTPUT/UefiShellDebug1CommandsLib.lib(LoadPciRom.obj)
                              UefiShellDebug1CommandsLib.obj (symbol from plugin) (ShellCommandRunLoadPciRom)
/home/daijh/sdk/rk3588/uefi/Build/RK3588/DEBUG_GCC5/AARCH64/ShellPkg/Library/UefiShellDebug1CommandsLib/UefiShellDebug1CommandsLib/OUTPUT/UefiShellDebug1CommandsLib.lib(Mm.obj)
                              UefiShellDebug1CommandsLib.obj (symbol from plugin) (ShellCommandRunMm)
/home/daijh/sdk/rk3588/uefi/Build/RK3588/DEBUG_GCC5/AARCH64/ShellPkg/Library/UefiShellDebug1CommandsLib/UefiShellDebug1CommandsLib/OUTPUT/UefiShellDebug1CommandsLib.lib(SetVar.obj)
                              UefiShellDebug1CommandsLib.obj (symbol from plugin) (ShellCommandRunSetVar)
/home/daijh/sdk/rk3588/uefi/Build/RK3588/DEBUG_GCC5/AARCH64/ShellPkg/Library/UefiShellDebug1CommandsLib/UefiShellDebug1CommandsLib/OUTPUT/UefiShellDebug1CommandsLib.lib(SerMode.obj)
                              UefiShellDebug1CommandsLib.obj (symbol from plugin) (ShellCommandRunSerMode)
/home/daijh/sdk/rk3588/uefi/Build/RK3588/DEBUG_GCC5/AARCH64/ShellPkg/Library/UefiShellDebug1CommandsLib/UefiShellDebug1CommandsLib/OUTPUT/UefiShellDebug1CommandsLib.lib(Pci.obj)
                              UefiShellDebug1CommandsLib.obj (symbol from plugin) (ShellCommandRunPci)
/home/daijh/sdk/rk3588/uefi/Build/RK3588/DEBUG_GCC5/AARCH64/ShellPkg/Library/UefiShellDebug1CommandsLib/UefiShellDebug1CommandsLib/OUTPUT/UefiShellDebug1CommandsLib.lib(DmpStore.obj)
                              UefiShellDebug1CommandsLib.obj (symbol from plugin) (ShellCommandRunDmpStore)
/home/daijh/sdk/rk3588/uefi/Build/RK3588/DEBUG_GCC5/AARCH64/ShellPkg/Library/UefiShellDebug1CommandsLib/UefiShellDebug1CommandsLib/OUTPUT/UefiShellDebug1CommandsLib.lib(Dblk.obj)
                              UefiShellDebug1CommandsLib.obj (symbol from plugin) (ShellCommandRunDblk)
/home/daijh/sdk/rk3588/uefi/Build/RK3588/DEBUG_GCC5/AARCH64/ShellPkg/Library/UefiShellDebug1CommandsLib/UefiShellDebug1CommandsLib/OUTPUT/UefiShellDebug1CommandsLib.lib(SmbiosView.obj)
                              UefiShellDebug1CommandsLib.obj (symbol from plugin) (ShellCommandRunSmbiosView)
/home/daijh/sdk/rk3588/uefi/Build/RK3588/DEBUG_GCC5/AARCH64/ShellPkg/Library/UefiShellDebug1CommandsLib/UefiShellDebug1CommandsLib/OUTPUT/UefiShellDebug1CommandsLib.lib(LibSmbiosView.obj)
                              SmbiosView.obj (symbol from plugin) (LibSmbiosInit)
/home/daijh/sdk/rk3588/uefi/Build/RK3588/DEBUG_GCC5/AARCH64/ShellPkg/Library/UefiShellDebug1CommandsLib/UefiShellDebug1CommandsLib/OUTPUT/UefiShellDebug1CommandsLib.lib(EditTitleBar.obj)
                              MainTextEditor.obj (symbol from plugin) (MainTitleBarInit)
/home/daijh/sdk/rk3588/uefi/Build/RK3588/DEBUG_GCC5/AARCH64/ShellPkg/Library/UefiShellDebug1CommandsLib/UefiShellDebug1CommandsLib/OUTPUT/UefiShellDebug1CommandsLib.lib(EditInputBar.obj)
                              MainTextEditor.obj (symbol from plugin) (InputBarInit)
/home/daijh/sdk/rk3588/uefi/Build/RK3588/DEBUG_GCC5/AARCH64/ShellPkg/Library/UefiShellDebug1CommandsLib/UefiShellDebug1CommandsLib/OUTPUT/UefiShellDebug1CommandsLib.lib(EditStatusBar.obj)
                              MainTextEditor.obj (symbol from plugin) (StatusBarCleanup)
/home/daijh/sdk/rk3588/uefi/Build/RK3588/DEBUG_GCC5/AARCH64/ShellPkg/Library/UefiShellDebug1CommandsLib/UefiShellDebug1CommandsLib/OUTPUT/UefiShellDebug1CommandsLib.lib(EditMenuBar.obj)
                              MainTextEditor.obj (symbol from plugin) (MenuBarCleanup)
/home/daijh/sdk/rk3588/uefi/Build/RK3588/DEBUG_GCC5/AARCH64/ShellPkg/Library/UefiShellDebug1CommandsLib/UefiShellDebug1CommandsLib/OUTPUT/UefiShellDebug1CommandsLib.lib(BufferImage.obj)
                              MainHexEditor.obj (symbol from plugin) (HBufferImage)
/home/daijh/sdk/rk3588/uefi/Build/RK3588/DEBUG_GCC5/AARCH64/ShellPkg/Library/UefiShellDebug1CommandsLib/UefiShellDebug1CommandsLib/OUTPUT/UefiShellDebug1CommandsLib.lib(Clipboard.obj)
                              MainHexEditor.obj (symbol from plugin) (HClipBoardInit)
/home/daijh/sdk/rk3588/uefi/Build/RK3588/DEBUG_GCC5/AARCH64/ShellPkg/Library/UefiShellDebug1CommandsLib/UefiShellDebug1CommandsLib/OUTPUT/UefiShellDebug1CommandsLib.lib(DiskImage.obj)
                              BufferImage.obj (symbol from plugin) (HDiskImageInit)
/home/daijh/sdk/rk3588/uefi/Build/RK3588/DEBUG_GCC5/AARCH64/ShellPkg/Library/UefiShellDebug1CommandsLib/UefiShellDebug1CommandsLib/OUTPUT/UefiShellDebug1CommandsLib.lib(FileImage.obj)
                              BufferImage.obj (symbol from plugin) (HFileImageInit)
/home/daijh/sdk/rk3588/uefi/Build/RK3588/DEBUG_GCC5/AARCH64/ShellPkg/Library/UefiShellDebug1CommandsLib/UefiShellDebug1CommandsLib/OUTPUT/UefiShellDebug1CommandsLib.lib(MemImage.obj)
                              BufferImage.obj (symbol from plugin) (HMemImage)
/home/daijh/sdk/rk3588/uefi/Build/RK3588/DEBUG_GCC5/AARCH64/ShellPkg/Library/UefiShellDebug1CommandsLib/UefiShellDebug1CommandsLib/OUTPUT/UefiShellDebug1CommandsLib.lib(Compress.obj)
                              EfiCompress.obj (symbol from plugin) (Compress)
/home/daijh/sdk/rk3588/uefi/Build/RK3588/DEBUG_GCC5/AARCH64/ShellPkg/Library/UefiShellDebug1CommandsLib/UefiShellDebug1CommandsLib/OUTPUT/UefiShellDebug1CommandsLib.lib(PrintInfo.obj)
                              SmbiosView.obj (symbol from plugin) (SmbiosPrintEPSInfo)
/home/daijh/sdk/rk3588/uefi/Build/RK3588/DEBUG_GCC5/AARCH64/ShellPkg/Library/UefiShellDebug1CommandsLib/UefiShellDebug1CommandsLib/OUTPUT/UefiShellDebug1CommandsLib.lib(QueryTable.obj)
                              PrintInfo.obj (symbol from plugin) (DisplaySystemWakeupType)
/home/daijh/sdk/rk3588/uefi/Build/RK3588/DEBUG_GCC5/AARCH64/ShellPkg/Library/UefiShellDebug1CommandsLib/UefiShellDebug1CommandsLib/OUTPUT/UefiShellDebug1CommandsLib.lib(EventLogInfo.obj)
                              PrintInfo.obj (symbol from plugin) (DisplaySELAccessMethod)
/home/daijh/sdk/rk3588/uefi/Build/RK3588/DEBUG_GCC5/AARCH64/ShellPkg/Library/UefiShellInstall1CommandsLib/UefiShellInstall1CommandsLib/OUTPUT/UefiShellInstall1CommandsLib.lib(UefiShellInstall1CommandsLib.obj)
                              AutoGen.obj (symbol from plugin) (ShellInstall1CommandsLibConstructor)
/home/daijh/sdk/rk3588/uefi/Build/RK3588/DEBUG_GCC5/AARCH64/Silicon/Rockchip/Applications/I2cDemoTest/I2cDemoTest/OUTPUT/UefiShellI2cDemoLib.lib(I2cDemoTest.obj)
                              AutoGen.obj (symbol from plugin) (ShellI2cDemoTestLibConstructor)
/home/daijh/sdk/rk3588/uefi/Build/RK3588/DEBUG_GCC5/AARCH64/Silicon/Rockchip/Applications/I2cDemoTest/I2cDemoTest/OUTPUT/UefiShellI2cDemoLib.lib(AutoGen.obj)
                              I2cDemoTest.obj (symbol from plugin) (UefiShellI2cDemoLibStrings)
/home/daijh/sdk/rk3588/uefi/Build/RK3588/DEBUG_GCC5/AARCH64/Silicon/Rockchip/Applications/SpiTool/SpiFlashCmd/OUTPUT/UefiShellSpiFlashLib.lib(SpiFlashCmd.obj)
                              AutoGen.obj (symbol from plugin) (ShellSpiFlashLibConstructor)
/home/daijh/sdk/rk3588/uefi/Build/RK3588/DEBUG_GCC5/AARCH64/Silicon/Rockchip/Applications/SpiTool/SpiFlashCmd/OUTPUT/UefiShellSpiFlashLib.lib(AutoGen.obj)
                              SpiFlashCmd.obj (symbol from plugin) (UefiShellSpiFlashLibStrings)
/home/daijh/sdk/rk3588/uefi/Build/RK3588/DEBUG_GCC5/AARCH64/MdePkg/Library/BaseMemoryLibOptDxe/BaseMemoryLibOptDxe/OUTPUT/BaseMemoryLibOptDxe.lib(CompareMemWrapper.obj)
                              HiiLib.obj (symbol from plugin) (CompareMem)
/home/daijh/sdk/rk3588/uefi/Build/RK3588/DEBUG_GCC5/AARCH64/MdePkg/Library/BaseMemoryLibOptDxe/BaseMemoryLibOptDxe/OUTPUT/BaseMemoryLibOptDxe.lib(CompareMem.obj)
                              CompareMemWrapper.obj (symbol from plugin) (InternalMemCompareMem)
/home/daijh/sdk/rk3588/uefi/Build/RK3588/DEBUG_GCC5/AARCH64/MdePkg/Library/BaseLib/BaseLib/OUTPUT/BaseLib.lib(SwapBytes64.obj)
                              DevicePathFromText.obj (symbol from plugin) (SwapBytes64)
/home/daijh/sdk/rk3588/uefi/Build/RK3588/DEBUG_GCC5/AARCH64/MdePkg/Library/BaseLib/BaseLib/OUTPUT/BaseLib.lib(MultU64x64.obj)
                              MemMap.obj (symbol from plugin) (MultU64x64)
/home/daijh/sdk/rk3588/uefi/Build/RK3588/DEBUG_GCC5/AARCH64/MdePkg/Library/BaseLib/BaseLib/OUTPUT/BaseLib.lib(ModU64x32.obj)
                              MainHexEditor.obj (symbol from plugin) (ModU64x32)
/home/daijh/sdk/rk3588/uefi/Build/RK3588/DEBUG_GCC5/AARCH64/MdePkg/Library/BaseLib/BaseLib/OUTPUT/BaseLib.lib(DivU64x32Remainder.obj)
                              PrintLibInternal.obj (symbol from plugin) (DivU64x32Remainder)
/home/daijh/sdk/rk3588/uefi/Build/RK3588/DEBUG_GCC5/AARCH64/MdePkg/Library/BaseLib/BaseLib/OUTPUT/BaseLib.lib(BitField.obj)
                              HiiLib.obj (symbol from plugin) (BitFieldRead32)
/home/daijh/sdk/rk3588/uefi/Build/RK3588/DEBUG_GCC5/AARCH64/MdePkg/Library/BaseLib/BaseLib/OUTPUT/BaseLib.lib(Unaligned.obj)
                              PrintLibInternal.obj (symbol from plugin) (ReadUnaligned16)
/home/daijh/sdk/rk3588/uefi/Build/RK3588/DEBUG_GCC5/AARCH64/MdePkg/Library/BaseIoLibIntrinsic/BaseIoLibIntrinsic/OUTPUT/BaseIoLibIntrinsic.lib(IoLibNoIo.obj)
                              Mm.obj (symbol from plugin) (IoRead8)
/home/daijh/sdk/rk3588/uefi/Build/RK3588/DEBUG_GCC5/AARCH64/MdePkg/Library/BaseDebugPrintErrorLevelLib/BaseDebugPrintErrorLevelLib/OUTPUT/BaseDebugPrintErrorLevelLib.lib(BaseDebugPrintErrorLevelLib.obj)
                              DebugLib.obj (symbol from plugin) (GetDebugPrintErrorLevel)
/home/daijh/sdk/rk3588/uefi/Build/RK3588/DEBUG_GCC5/AARCH64/Silicon/Rockchip/Library/SerialPortLib/SerialPortLib/OUTPUT/SerialPortLib.lib(SerialPortLib.obj)
                              DebugLib.obj (symbol from plugin) (SerialPortInitialize)
/home/daijh/sdk/rk3588/uefi/Build/RK3588/DEBUG_GCC5/AARCH64/MdePkg/Library/UefiLib/UefiLib/OUTPUT/UefiLib.lib(UefiLibPrint.obj)
                              DrvCfg.obj (symbol from plugin) (Print)
/home/daijh/sdk/rk3588/uefi/Build/RK3588/DEBUG_GCC5/AARCH64/MdePkg/Library/UefiLib/UefiLib/OUTPUT/UefiLib.lib(UefiNotTiano.obj)
                              UefiHandleParsingLib.obj (symbol from plugin) (EfiGetNameGuidFromFwVolDevicePathNode)
/home/daijh/sdk/rk3588/uefi/Build/RK3588/DEBUG_GCC5/AARCH64/MdePkg/Library/BasePeCoffGetEntryPointLib/BasePeCoffGetEntryPointLib/OUTPUT/BasePeCoffGetEntryPointLib.lib(PeCoffGetEntryPoint.obj)
                              UefiHandleParsingLib.obj (symbol from plugin) (PeCoffLoaderGetPdbPointer)
/home/daijh/sdk/rk3588/uefi/Build/RK3588/DEBUG_GCC5/AARCH64/MdePkg/Library/BaseOrderedCollectionRedBlackTreeLib/BaseOrderedCollectionRedBlackTreeLib/OUTPUT/BaseOrderedCollectionRedBlackTreeLib.lib(BaseOrderedCollectionRedBlackTreeLib.obj)
                              UefiShellCommandLib.obj (symbol from plugin) (OrderedCollectionUserStruct)
/home/daijh/sdk/rk3588/uefi/Build/RK3588/DEBUG_GCC5/AARCH64/ShellPkg/Library/UefiShellBcfgCommandLib/UefiShellBcfgCommandLib/OUTPUT/UefiShellBcfgCommandLib.lib(UefiShellBcfgCommandLib.obj)
                              UefiShellDebug1CommandsLib.obj (symbol from plugin) (BcfgLibraryRegisterBcfgCommand)
/home/daijh/sdk/rk3588/uefi/Build/RK3588/DEBUG_GCC5/AARCH64/ShellPkg/Library/UefiShellBcfgCommandLib/UefiShellBcfgCommandLib/OUTPUT/UefiShellBcfgCommandLib.lib(AutoGen.obj)
                              UefiShellBcfgCommandLib.obj (symbol from plugin) (UefiShellBcfgCommandLibStrings)
/home/daijh/sdk/rk3588/uefi/Build/RK3588/DEBUG_GCC5/AARCH64/MdePkg/Library/RegisterFilterLibNull/RegisterFilterLibNull/OUTPUT/FilterLibNull.lib(RegisterFilterLibNull.obj)
                              IoLibNoIo.obj (symbol from plugin) (FilterBeforeMmIoRead)
/home/daijh/sdk/rk3588/uefi/Build/RK3588/DEBUG_GCC5/AARCH64/Silicon/Rockchip/Library/SerialPortLib/UartLib/OUTPUT/UartLib.lib(UartLib.obj)
                              SerialPortLib.obj (symbol from plugin) (UartInitializePort)
/home/daijh/sdk/rk3588/uefi/Build/RK3588/DEBUG_GCC5/AARCH64/MdeModulePkg/Library/UefiBootManagerLib/UefiBootManagerLib/OUTPUT/UefiBootManagerLib.lib(BmLoadOption.obj)
                              UefiShellBcfgCommandLib.obj (symbol from plugin) (EfiBootManagerLoadOptionToVariable)
/home/daijh/sdk/rk3588/uefi/Build/RK3588/DEBUG_GCC5/AARCH64/MdeModulePkg/Library/UefiBootManagerLib/UefiBootManagerLib/OUTPUT/UefiBootManagerLib.lib(BmConnect.obj)
                              BmLoadOption.obj (symbol from plugin) (EfiBootManagerConnectDevicePath)
/home/daijh/sdk/rk3588/uefi/Build/RK3588/DEBUG_GCC5/AARCH64/MdeModulePkg/Library/UefiBootManagerLib/UefiBootManagerLib/OUTPUT/UefiBootManagerLib.lib(BmMisc.obj)
                              BmLoadOption.obj (symbol from plugin) (BmPrintDp)
/home/daijh/sdk/rk3588/uefi/Build/RK3588/DEBUG_GCC5/AARCH64/MdeModulePkg/Library/UefiBootManagerLib/UefiBootManagerLib/OUTPUT/UefiBootManagerLib.lib(BmConsole.obj)
                              BmConnect.obj (symbol from plugin) (EfiBootManagerConnectAllDefaultConsoles)
/home/daijh/sdk/rk3588/uefi/Build/RK3588/DEBUG_GCC5/AARCH64/MdeModulePkg/Library/UefiBootManagerLib/UefiBootManagerLib/OUTPUT/UefiBootManagerLib.lib(BmBoot.obj)
                              BmLoadOption.obj (symbol from plugin) (BmGetRamDiskDevicePath)
/home/daijh/sdk/rk3588/uefi/Build/RK3588/DEBUG_GCC5/AARCH64/MdeModulePkg/Library/UefiBootManagerLib/UefiBootManagerLib/OUTPUT/UefiBootManagerLib.lib(BmBootDescription.obj)
                              BmBoot.obj (symbol from plugin) (BmGetBootDescription)
/home/daijh/sdk/rk3588/uefi/Build/RK3588/DEBUG_GCC5/AARCH64/MdeModulePkg/Library/UefiBootManagerLib/UefiBootManagerLib/OUTPUT/UefiBootManagerLib.lib(BmHotkey.obj)
                              BmBoot.obj (symbol from plugin) (BmStopHotkeyService)
/home/daijh/sdk/rk3588/uefi/Build/RK3588/DEBUG_GCC5/AARCH64/MdeModulePkg/Library/UefiBootManagerLib/UefiBootManagerLib/OUTPUT/UefiBootManagerLib.lib(BmDriverHealth.obj)
                              BmBoot.obj (symbol from plugin) (BmRepairAllControllers)
/home/daijh/sdk/rk3588/uefi/Build/RK3588/DEBUG_GCC5/AARCH64/MdePkg/Library/BaseLib/BaseLib/OUTPUT/BaseLib.lib(LowBitSet32.obj)
                              BmHotkey.obj (symbol from plugin) (LowBitSet32)
/home/daijh/sdk/rk3588/uefi/Build/RK3588/DEBUG_GCC5/AARCH64/MdeModulePkg/Library/DxeReportStatusCodeLib/DxeReportStatusCodeLib/OUTPUT/DxeReportStatusCodeLib.lib(ReportStatusCodeLib.obj)
                              BmMisc.obj (symbol from plugin) (ReportProgressCodeEnabled)
/home/daijh/sdk/rk3588/uefi/Build/RK3588/DEBUG_GCC5/AARCH64/MdePkg/Library/DxeServicesLib/DxeServicesLib/OUTPUT/DxeServicesLib.lib(DxeServicesLib.obj)
                              BmBoot.obj (symbol from plugin) (GetSectionFromAnyFv)
/home/daijh/sdk/rk3588/uefi/Build/RK3588/DEBUG_GCC5/AARCH64/MdeModulePkg/Library/DxePerformanceLib/DxePerformanceLib/OUTPUT/DxePerformanceLib.lib(DxePerformanceLib.obj)
                              BmBoot.obj (symbol from plugin) (StartPerformanceMeasurementEx)

Discarded input sections

 .text          0x0000000000000000       0x10 /home/daijh/sdk/rk3588/uefi/edk2/ArmPkg/Library/GccLto/liblto-aarch64.a
 .data          0x0000000000000000        0x0 /home/daijh/sdk/rk3588/uefi/edk2/ArmPkg/Library/GccLto/liblto-aarch64.a
 .bss           0x0000000000000000        0x0 /home/daijh/sdk/rk3588/uefi/edk2/ArmPkg/Library/GccLto/liblto-aarch64.a
 .text          0x0000000000000000        0x0 /tmp/Shell.dll.2u1FF2.ltrans0.ltrans.o
 .data          0x0000000000000000        0x0 /tmp/Shell.dll.2u1FF2.ltrans0.ltrans.o
 .bss           0x0000000000000000        0x0 /tmp/Shell.dll.2u1FF2.ltrans0.ltrans.o
 .rodata.__stack_chk_fail.str1.1
                0x0000000000000000       0x2e /tmp/Shell.dll.2u1FF2.ltrans0.ltrans.o
 .text.__stack_chk_fail
                0x0000000000000000       0x44 /tmp/Shell.dll.2u1FF2.ltrans0.ltrans.o
 .text.__memset
                0x0000000000000000       0x1c /tmp/Shell.dll.2u1FF2.ltrans0.ltrans.o
 .rodata.str2.2
                0x0000000000000000       0x30 /tmp/Shell.dll.2u1FF2.ltrans0.ltrans.o
 .rodata.SupportLevel
                0x0000000000000000       0x20 /tmp/Shell.dll.2u1FF2.ltrans0.ltrans.o
 .rodata._gPcd_FixedAtBuild_PcdFixedDebugPrintErrorLevel
                0x0000000000000000        0x4 /tmp/Shell.dll.2u1FF2.ltrans0.ltrans.o
 .rodata._gPcd_FixedAtBuild_PcdShellDecodeIScsiMapNames
                0x0000000000000000        0x1 /tmp/Shell.dll.2u1FF2.ltrans0.ltrans.o
 .rodata._gPcd_FixedAtBuild_PcdShellProfileMask
                0x0000000000000000        0x1 /tmp/Shell.dll.2u1FF2.ltrans0.ltrans.o
 .rodata._gPcd_FixedAtBuild_PcdShellScreenLogCount
                0x0000000000000000        0x1 /tmp/Shell.dll.2u1FF2.ltrans0.ltrans.o
 .rodata._gPcd_FixedAtBuild_PcdUsbExtendedDecode
                0x0000000000000000        0x1 /tmp/Shell.dll.2u1FF2.ltrans0.ltrans.o
 .rodata._gUefiDriverRevision
                0x0000000000000000        0x4 /tmp/Shell.dll.2u1FF2.ltrans0.ltrans.o
 .comment       0x0000000000000000       0x5e /tmp/Shell.dll.2u1FF2.ltrans0.ltrans.o
 .note.GNU-stack
                0x0000000000000000        0x0 /tmp/Shell.dll.2u1FF2.ltrans0.ltrans.o
 .text          0x0000000000000000        0x0 /tmp/Shell.dll.2u1FF2.ltrans1.ltrans.o
 .data          0x0000000000000000        0x0 /tmp/Shell.dll.2u1FF2.ltrans1.ltrans.o
 .bss           0x0000000000000000        0x0 /tmp/Shell.dll.2u1FF2.ltrans1.ltrans.o
 .text.IsNodeInList
                0x0000000000000000       0xa0 /tmp/Shell.dll.2u1FF2.ltrans1.ltrans.o
 .rodata._gPcd_FixedAtBuild_PcdMaximumUnicodeStringLength
                0x0000000000000000        0x4 /tmp/Shell.dll.2u1FF2.ltrans1.ltrans.o
 .comment       0x0000000000000000       0x5e /tmp/Shell.dll.2u1FF2.ltrans1.ltrans.o
 .note.GNU-stack
                0x0000000000000000        0x0 /tmp/Shell.dll.2u1FF2.ltrans1.ltrans.o
 .text          0x0000000000000000        0x0 /tmp/Shell.dll.2u1FF2.ltrans2.ltrans.o
 .data          0x0000000000000000        0x0 /tmp/Shell.dll.2u1FF2.ltrans2.ltrans.o
 .bss           0x0000000000000000        0x0 /tmp/Shell.dll.2u1FF2.ltrans2.ltrans.o
 .rodata._gPcd_FixedAtBuild_PcdShellPrintBufferSize
                0x0000000000000000        0x2 /tmp/Shell.dll.2u1FF2.ltrans2.ltrans.o
 .comment       0x0000000000000000       0x5e /tmp/Shell.dll.2u1FF2.ltrans2.ltrans.o
 .note.GNU-stack
                0x0000000000000000        0x0 /tmp/Shell.dll.2u1FF2.ltrans2.ltrans.o
 .text          0x0000000000000000        0x0 /tmp/Shell.dll.2u1FF2.ltrans3.ltrans.o
 .data          0x0000000000000000        0x0 /tmp/Shell.dll.2u1FF2.ltrans3.ltrans.o
 .bss           0x0000000000000000        0x0 /tmp/Shell.dll.2u1FF2.ltrans3.ltrans.o
 .rodata._gPcd_FixedAtBuild_PcdShellFileOperationSize
                0x0000000000000000        0x4 /tmp/Shell.dll.2u1FF2.ltrans3.ltrans.o
 .comment       0x0000000000000000       0x5e /tmp/Shell.dll.2u1FF2.ltrans3.ltrans.o
 .note.GNU-stack
                0x0000000000000000        0x0 /tmp/Shell.dll.2u1FF2.ltrans3.ltrans.o
 .text          0x0000000000000000        0x0 /tmp/Shell.dll.2u1FF2.ltrans4.ltrans.o
 .data          0x0000000000000000        0x0 /tmp/Shell.dll.2u1FF2.ltrans4.ltrans.o
 .bss           0x0000000000000000        0x0 /tmp/Shell.dll.2u1FF2.ltrans4.ltrans.o
 .comment       0x0000000000000000       0x5e /tmp/Shell.dll.2u1FF2.ltrans4.ltrans.o
 .note.GNU-stack
                0x0000000000000000        0x0 /tmp/Shell.dll.2u1FF2.ltrans4.ltrans.o
 .text          0x0000000000000000        0x0 /tmp/Shell.dll.2u1FF2.ltrans5.ltrans.o
 .data          0x0000000000000000        0x0 /tmp/Shell.dll.2u1FF2.ltrans5.ltrans.o
 .bss           0x0000000000000000        0x0 /tmp/Shell.dll.2u1FF2.ltrans5.ltrans.o
 .comment       0x0000000000000000       0x5e /tmp/Shell.dll.2u1FF2.ltrans5.ltrans.o
 .note.GNU-stack
                0x0000000000000000        0x0 /tmp/Shell.dll.2u1FF2.ltrans5.ltrans.o
 .text          0x0000000000000000        0x0 /tmp/Shell.dll.2u1FF2.ltrans6.ltrans.o
 .data          0x0000000000000000        0x0 /tmp/Shell.dll.2u1FF2.ltrans6.ltrans.o
 .bss           0x0000000000000000        0x0 /tmp/Shell.dll.2u1FF2.ltrans6.ltrans.o
 .comment       0x0000000000000000       0x5e /tmp/Shell.dll.2u1FF2.ltrans6.ltrans.o
 .note.GNU-stack
                0x0000000000000000        0x0 /tmp/Shell.dll.2u1FF2.ltrans6.ltrans.o
 .text          0x0000000000000000        0x0 /tmp/Shell.dll.2u1FF2.ltrans7.ltrans.o
 .data          0x0000000000000000        0x0 /tmp/Shell.dll.2u1FF2.ltrans7.ltrans.o
 .bss           0x0000000000000000        0x0 /tmp/Shell.dll.2u1FF2.ltrans7.ltrans.o
 .comment       0x0000000000000000       0x5e /tmp/Shell.dll.2u1FF2.ltrans7.ltrans.o
 .note.GNU-stack
                0x0000000000000000        0x0 /tmp/Shell.dll.2u1FF2.ltrans7.ltrans.o
 .text          0x0000000000000000        0x0 /tmp/Shell.dll.2u1FF2.ltrans8.ltrans.o
 .data          0x0000000000000000        0x0 /tmp/Shell.dll.2u1FF2.ltrans8.ltrans.o
 .bss           0x0000000000000000        0x0 /tmp/Shell.dll.2u1FF2.ltrans8.ltrans.o
 .text.OrderedCollectionPrev
                0x0000000000000000       0x38 /tmp/Shell.dll.2u1FF2.ltrans8.ltrans.o
 .text.RedBlackTreeRecursiveCheck
                0x0000000000000000       0xe4 /tmp/Shell.dll.2u1FF2.ltrans8.ltrans.o
 .rodata.RedBlackTreeValidate.str1.1
                0x0000000000000000       0xf3 /tmp/Shell.dll.2u1FF2.ltrans8.ltrans.o
 .text.RedBlackTreeValidate
                0x0000000000000000      0x1d8 /tmp/Shell.dll.2u1FF2.ltrans8.ltrans.o
 .rodata.__FUNCTION__.0
                0x0000000000000000       0x15 /tmp/Shell.dll.2u1FF2.ltrans8.ltrans.o
 .comment       0x0000000000000000       0x5e /tmp/Shell.dll.2u1FF2.ltrans8.ltrans.o
 .note.GNU-stack
                0x0000000000000000        0x0 /tmp/Shell.dll.2u1FF2.ltrans8.ltrans.o
 .text          0x0000000000000000        0x0 /tmp/Shell.dll.2u1FF2.ltrans9.ltrans.o
 .data          0x0000000000000000        0x0 /tmp/Shell.dll.2u1FF2.ltrans9.ltrans.o
 .bss           0x0000000000000000        0x0 /tmp/Shell.dll.2u1FF2.ltrans9.ltrans.o
 .comment       0x0000000000000000       0x5e /tmp/Shell.dll.2u1FF2.ltrans9.ltrans.o
 .note.GNU-stack
                0x0000000000000000        0x0 /tmp/Shell.dll.2u1FF2.ltrans9.ltrans.o
 .text          0x0000000000000000        0x0 /tmp/Shell.dll.2u1FF2.ltrans10.ltrans.o
 .data          0x0000000000000000        0x0 /tmp/Shell.dll.2u1FF2.ltrans10.ltrans.o
 .bss           0x0000000000000000        0x0 /tmp/Shell.dll.2u1FF2.ltrans10.ltrans.o
 .comment       0x0000000000000000       0x5e /tmp/Shell.dll.2u1FF2.ltrans10.ltrans.o
 .note.GNU-stack
                0x0000000000000000        0x0 /tmp/Shell.dll.2u1FF2.ltrans10.ltrans.o
 .text          0x0000000000000000        0x0 /tmp/Shell.dll.2u1FF2.ltrans11.ltrans.o
 .data          0x0000000000000000        0x0 /tmp/Shell.dll.2u1FF2.ltrans11.ltrans.o
 .bss           0x0000000000000000        0x0 /tmp/Shell.dll.2u1FF2.ltrans11.ltrans.o
 .comment       0x0000000000000000       0x5e /tmp/Shell.dll.2u1FF2.ltrans11.ltrans.o
 .note.GNU-stack
                0x0000000000000000        0x0 /tmp/Shell.dll.2u1FF2.ltrans11.ltrans.o
 .text          0x0000000000000000        0x0 /tmp/Shell.dll.2u1FF2.ltrans12.ltrans.o
 .data          0x0000000000000000        0x0 /tmp/Shell.dll.2u1FF2.ltrans12.ltrans.o
 .bss           0x0000000000000000        0x0 /tmp/Shell.dll.2u1FF2.ltrans12.ltrans.o
 .data.__stack_chk_guard
                0x0000000000000000        0x8 /tmp/Shell.dll.2u1FF2.ltrans12.ltrans.o
 .comment       0x0000000000000000       0x5e /tmp/Shell.dll.2u1FF2.ltrans12.ltrans.o
 .note.GNU-stack
                0x0000000000000000        0x0 /tmp/Shell.dll.2u1FF2.ltrans12.ltrans.o
 .comment       0x0000000000000000       0x5e /tmp/cckeOcZW.debug.temp.o
 .note.GNU-stack
                0x0000000000000000        0x0 /tmp/cckeOcZW.debug.temp.o
 .comment       0x0000000000000000       0x5e /tmp/ccyE8yb5.debug.temp.o
 .note.GNU-stack
                0x0000000000000000        0x0 /tmp/ccyE8yb5.debug.temp.o
 .comment       0x0000000000000000       0x5e /tmp/ccwIDzdM.debug.temp.o
 .note.GNU-stack
                0x0000000000000000        0x0 /tmp/ccwIDzdM.debug.temp.o
 .comment       0x0000000000000000       0x5e /tmp/ccxfCgUK.debug.temp.o
 .note.GNU-stack
                0x0000000000000000        0x0 /tmp/ccxfCgUK.debug.temp.o
 .comment       0x0000000000000000       0x5e /tmp/ccJtHqNq.debug.temp.o
 .note.GNU-stack
                0x0000000000000000        0x0 /tmp/ccJtHqNq.debug.temp.o
 .comment       0x0000000000000000       0x5e /tmp/ccNs3PSG.debug.temp.o
 .note.GNU-stack
                0x0000000000000000        0x0 /tmp/ccNs3PSG.debug.temp.o
 .comment       0x0000000000000000       0x5e /tmp/ccXSirDj.debug.temp.o
 .note.GNU-stack
                0x0000000000000000        0x0 /tmp/ccXSirDj.debug.temp.o
 .comment       0x0000000000000000       0x5e /tmp/ccZbDIhM.debug.temp.o
 .note.GNU-stack
                0x0000000000000000        0x0 /tmp/ccZbDIhM.debug.temp.o
 .comment       0x0000000000000000       0x5e /tmp/ccayEk2f.debug.temp.o
 .note.GNU-stack
                0x0000000000000000        0x0 /tmp/ccayEk2f.debug.temp.o
 .comment       0x0000000000000000       0x5e /tmp/ccnXKA7J.debug.temp.o
 .note.GNU-stack
                0x0000000000000000        0x0 /tmp/ccnXKA7J.debug.temp.o
 .comment       0x0000000000000000       0x5e /tmp/cc1u43m7.debug.temp.o
 .note.GNU-stack
                0x0000000000000000        0x0 /tmp/cc1u43m7.debug.temp.o
 .comment       0x0000000000000000       0x5e /tmp/ccNYchgj.debug.temp.o
 .note.GNU-stack
                0x0000000000000000        0x0 /tmp/ccNYchgj.debug.temp.o
 .comment       0x0000000000000000       0x5e /tmp/ccRhbWpE.debug.temp.o
 .note.GNU-stack
                0x0000000000000000        0x0 /tmp/ccRhbWpE.debug.temp.o
 .comment       0x0000000000000000       0x5e /tmp/ccMF8bbA.debug.temp.o
 .note.GNU-stack
                0x0000000000000000        0x0 /tmp/ccMF8bbA.debug.temp.o
 .comment       0x0000000000000000       0x5e /tmp/cceWWQaF.debug.temp.o
 .note.GNU-stack
                0x0000000000000000        0x0 /tmp/cceWWQaF.debug.temp.o
 .comment       0x0000000000000000       0x5e /tmp/ccW7MAbQ.debug.temp.o
 .note.GNU-stack
                0x0000000000000000        0x0 /tmp/ccW7MAbQ.debug.temp.o
 .comment       0x0000000000000000       0x5e /tmp/ccUNwzbi.debug.temp.o
 .note.GNU-stack
                0x0000000000000000        0x0 /tmp/ccUNwzbi.debug.temp.o
 .comment       0x0000000000000000       0x5e /tmp/ccr8YQHk.debug.temp.o
 .note.GNU-stack
                0x0000000000000000        0x0 /tmp/ccr8YQHk.debug.temp.o
 .debug_info    0x0000000000000000       0xbb /tmp/ccNhRJl9.debug.temp.o
 .debug_abbrev  0x0000000000000000       0x5e /tmp/ccNhRJl9.debug.temp.o
 .debug_line    0x0000000000000000       0xc2 /tmp/ccNhRJl9.debug.temp.o
 .debug_str     0x0000000000000000      0x2bd /tmp/ccNhRJl9.debug.temp.o
 .comment       0x0000000000000000       0x5e /tmp/ccNhRJl9.debug.temp.o
 .note.GNU-stack
                0x0000000000000000        0x0 /tmp/ccNhRJl9.debug.temp.o
 .debug_info    0x0000000000000000       0x96 /tmp/ccpXFhAU.debug.temp.o
 .debug_abbrev  0x0000000000000000       0x5c /tmp/ccpXFhAU.debug.temp.o
 .debug_line    0x0000000000000000       0xb2 /tmp/ccpXFhAU.debug.temp.o
 .debug_str     0x0000000000000000      0x282 /tmp/ccpXFhAU.debug.temp.o
 .comment       0x0000000000000000       0x5e /tmp/ccpXFhAU.debug.temp.o
 .note.GNU-stack
                0x0000000000000000        0x0 /tmp/ccpXFhAU.debug.temp.o
 .comment       0x0000000000000000       0x5e /tmp/cctFtvAD.debug.temp.o
 .note.GNU-stack
                0x0000000000000000        0x0 /tmp/cctFtvAD.debug.temp.o
 .comment       0x0000000000000000       0x5e /tmp/cc3yElty.debug.temp.o
 .note.GNU-stack
                0x0000000000000000        0x0 /tmp/cc3yElty.debug.temp.o
 .comment       0x0000000000000000       0x5e /tmp/cc35w3fR.debug.temp.o
 .note.GNU-stack
                0x0000000000000000        0x0 /tmp/cc35w3fR.debug.temp.o
 .comment       0x0000000000000000       0x5e /tmp/cciVDaRT.debug.temp.o
 .note.GNU-stack
                0x0000000000000000        0x0 /tmp/cciVDaRT.debug.temp.o
 .comment       0x0000000000000000       0x5e /tmp/ccwaEZCF.debug.temp.o
 .note.GNU-stack
                0x0000000000000000        0x0 /tmp/ccwaEZCF.debug.temp.o
 .debug_info    0x0000000000000000       0x89 /tmp/ccTq2Rj1.debug.temp.o
 .debug_abbrev  0x0000000000000000       0x57 /tmp/ccTq2Rj1.debug.temp.o
 .debug_line    0x0000000000000000       0xb2 /tmp/ccTq2Rj1.debug.temp.o
 .debug_str     0x0000000000000000      0x27c /tmp/ccTq2Rj1.debug.temp.o
 .comment       0x0000000000000000       0x5e /tmp/ccTq2Rj1.debug.temp.o
 .note.GNU-stack
                0x0000000000000000        0x0 /tmp/ccTq2Rj1.debug.temp.o
 .comment       0x0000000000000000       0x5e /tmp/cccAhlov.debug.temp.o
 .note.GNU-stack
                0x0000000000000000        0x0 /tmp/cccAhlov.debug.temp.o
 .comment       0x0000000000000000       0x5e /tmp/ccJiTQsc.debug.temp.o
 .note.GNU-stack
                0x0000000000000000        0x0 /tmp/ccJiTQsc.debug.temp.o
 .comment       0x0000000000000000       0x5e /tmp/cc3Cgdjs.debug.temp.o
 .note.GNU-stack
                0x0000000000000000        0x0 /tmp/cc3Cgdjs.debug.temp.o
 .comment       0x0000000000000000       0x5e /tmp/cce9amdU.debug.temp.o
 .note.GNU-stack
                0x0000000000000000        0x0 /tmp/cce9amdU.debug.temp.o
 .comment       0x0000000000000000       0x5e /tmp/ccFEK5hd.debug.temp.o
 .note.GNU-stack
                0x0000000000000000        0x0 /tmp/ccFEK5hd.debug.temp.o
 .comment       0x0000000000000000       0x5e /tmp/ccdXF3pj.debug.temp.o
 .note.GNU-stack
                0x0000000000000000        0x0 /tmp/ccdXF3pj.debug.temp.o
 .comment       0x0000000000000000       0x5e /tmp/ccRcOvi6.debug.temp.o
 .note.GNU-stack
                0x0000000000000000        0x0 /tmp/ccRcOvi6.debug.temp.o
 .comment       0x0000000000000000       0x5e /tmp/ccwPzxuK.debug.temp.o
 .note.GNU-stack
                0x0000000000000000        0x0 /tmp/ccwPzxuK.debug.temp.o
 .comment       0x0000000000000000       0x5e /tmp/ccEmAJML.debug.temp.o
 .note.GNU-stack
                0x0000000000000000        0x0 /tmp/ccEmAJML.debug.temp.o
 .comment       0x0000000000000000       0x5e /tmp/ccQgPe7V.debug.temp.o
 .note.GNU-stack
                0x0000000000000000        0x0 /tmp/ccQgPe7V.debug.temp.o
 .comment       0x0000000000000000       0x5e /tmp/ccVFYhXy.debug.temp.o
 .note.GNU-stack
                0x0000000000000000        0x0 /tmp/ccVFYhXy.debug.temp.o
 .comment       0x0000000000000000       0x5e /tmp/cc93GIwh.debug.temp.o
 .note.GNU-stack
                0x0000000000000000        0x0 /tmp/cc93GIwh.debug.temp.o
 .comment       0x0000000000000000       0x5e /tmp/ccGSsxCD.debug.temp.o
 .note.GNU-stack
                0x0000000000000000        0x0 /tmp/ccGSsxCD.debug.temp.o
 .comment       0x0000000000000000       0x5e /tmp/cc4wwVkf.debug.temp.o
 .note.GNU-stack
                0x0000000000000000        0x0 /tmp/cc4wwVkf.debug.temp.o
 .comment       0x0000000000000000       0x5e /tmp/ccWUmbbn.debug.temp.o
 .note.GNU-stack
                0x0000000000000000        0x0 /tmp/ccWUmbbn.debug.temp.o
 .comment       0x0000000000000000       0x5e /tmp/cctem4R6.debug.temp.o
 .note.GNU-stack
                0x0000000000000000        0x0 /tmp/cctem4R6.debug.temp.o
 .comment       0x0000000000000000       0x5e /tmp/ccUOrdH6.debug.temp.o
 .note.GNU-stack
                0x0000000000000000        0x0 /tmp/ccUOrdH6.debug.temp.o
 .comment       0x0000000000000000       0x5e /tmp/ccFmn6tW.debug.temp.o
 .note.GNU-stack
                0x0000000000000000        0x0 /tmp/ccFmn6tW.debug.temp.o
 .comment       0x0000000000000000       0x5e /tmp/cchSJcUw.debug.temp.o
 .note.GNU-stack
                0x0000000000000000        0x0 /tmp/cchSJcUw.debug.temp.o
 .comment       0x0000000000000000       0x5e /tmp/ccxPOkKb.debug.temp.o
 .note.GNU-stack
                0x0000000000000000        0x0 /tmp/ccxPOkKb.debug.temp.o
 .comment       0x0000000000000000       0x5e /tmp/ccrcc787.debug.temp.o
 .note.GNU-stack
                0x0000000000000000        0x0 /tmp/ccrcc787.debug.temp.o
 .comment       0x0000000000000000       0x5e /tmp/ccJsyO4J.debug.temp.o
 .note.GNU-stack
                0x0000000000000000        0x0 /tmp/ccJsyO4J.debug.temp.o
 .comment       0x0000000000000000       0x5e /tmp/ccO0IlVZ.debug.temp.o
 .note.GNU-stack
                0x0000000000000000        0x0 /tmp/ccO0IlVZ.debug.temp.o
 .comment       0x0000000000000000       0x5e /tmp/cc1dPjAl.debug.temp.o
 .note.GNU-stack
                0x0000000000000000        0x0 /tmp/cc1dPjAl.debug.temp.o
 .comment       0x0000000000000000       0x5e /tmp/ccd3AH3g.debug.temp.o
 .note.GNU-stack
                0x0000000000000000        0x0 /tmp/ccd3AH3g.debug.temp.o
 .comment       0x0000000000000000       0x5e /tmp/ccyP5noS.debug.temp.o
 .note.GNU-stack
                0x0000000000000000        0x0 /tmp/ccyP5noS.debug.temp.o
 .comment       0x0000000000000000       0x5e /tmp/ccTtqDlJ.debug.temp.o
 .note.GNU-stack
                0x0000000000000000        0x0 /tmp/ccTtqDlJ.debug.temp.o
 .comment       0x0000000000000000       0x5e /tmp/ccmxUVkQ.debug.temp.o
 .note.GNU-stack
                0x0000000000000000        0x0 /tmp/ccmxUVkQ.debug.temp.o
 .comment       0x0000000000000000       0x5e /tmp/ccl5PHsX.debug.temp.o
 .note.GNU-stack
                0x0000000000000000        0x0 /tmp/ccl5PHsX.debug.temp.o
 .comment       0x0000000000000000       0x5e /tmp/cc9wEKB4.debug.temp.o
 .note.GNU-stack
                0x0000000000000000        0x0 /tmp/cc9wEKB4.debug.temp.o
 .comment       0x0000000000000000       0x5e /tmp/ccp0dghG.debug.temp.o
 .note.GNU-stack
                0x0000000000000000        0x0 /tmp/ccp0dghG.debug.temp.o
 .comment       0x0000000000000000       0x5e /tmp/ccm8cuFo.debug.temp.o
 .note.GNU-stack
                0x0000000000000000        0x0 /tmp/ccm8cuFo.debug.temp.o
 .comment       0x0000000000000000       0x5e /tmp/ccX2rXnQ.debug.temp.o
 .note.GNU-stack
                0x0000000000000000        0x0 /tmp/ccX2rXnQ.debug.temp.o
 .comment       0x0000000000000000       0x5e /tmp/ccXOsAAV.debug.temp.o
 .note.GNU-stack
                0x0000000000000000        0x0 /tmp/ccXOsAAV.debug.temp.o
 .comment       0x0000000000000000       0x5e /tmp/cchw8UyS.debug.temp.o
 .note.GNU-stack
                0x0000000000000000        0x0 /tmp/cchw8UyS.debug.temp.o
 .comment       0x0000000000000000       0x5e /tmp/ccNxBZMv.debug.temp.o
 .note.GNU-stack
                0x0000000000000000        0x0 /tmp/ccNxBZMv.debug.temp.o
 .comment       0x0000000000000000       0x5e /tmp/cc2t4z1w.debug.temp.o
 .note.GNU-stack
                0x0000000000000000        0x0 /tmp/cc2t4z1w.debug.temp.o
 .comment       0x0000000000000000       0x5e /tmp/ccg1iUXG.debug.temp.o
 .note.GNU-stack
                0x0000000000000000        0x0 /tmp/ccg1iUXG.debug.temp.o
 .comment       0x0000000000000000       0x5e /tmp/ccDMhf0l.debug.temp.o
 .note.GNU-stack
                0x0000000000000000        0x0 /tmp/ccDMhf0l.debug.temp.o
 .comment       0x0000000000000000       0x5e /tmp/cclhLAgF.debug.temp.o
 .note.GNU-stack
                0x0000000000000000        0x0 /tmp/cclhLAgF.debug.temp.o
 .comment       0x0000000000000000       0x5e /tmp/ccr3XiuJ.debug.temp.o
 .note.GNU-stack
                0x0000000000000000        0x0 /tmp/ccr3XiuJ.debug.temp.o
 .comment       0x0000000000000000       0x5e /tmp/ccM2LQnN.debug.temp.o
 .note.GNU-stack
                0x0000000000000000        0x0 /tmp/ccM2LQnN.debug.temp.o
 .comment       0x0000000000000000       0x5e /tmp/ccUJxCjJ.debug.temp.o
 .note.GNU-stack
                0x0000000000000000        0x0 /tmp/ccUJxCjJ.debug.temp.o
 .comment       0x0000000000000000       0x5e /tmp/ccLZNGdW.debug.temp.o
 .note.GNU-stack
                0x0000000000000000        0x0 /tmp/ccLZNGdW.debug.temp.o
 .comment       0x0000000000000000       0x5e /tmp/ccPP3Clc.debug.temp.o
 .note.GNU-stack
                0x0000000000000000        0x0 /tmp/ccPP3Clc.debug.temp.o
 .comment       0x0000000000000000       0x5e /tmp/ccIf4u1Y.debug.temp.o
 .note.GNU-stack
                0x0000000000000000        0x0 /tmp/ccIf4u1Y.debug.temp.o
 .comment       0x0000000000000000       0x5e /tmp/ccqjGy5G.debug.temp.o
 .note.GNU-stack
                0x0000000000000000        0x0 /tmp/ccqjGy5G.debug.temp.o
 .comment       0x0000000000000000       0x5e /tmp/cczL9nUl.debug.temp.o
 .note.GNU-stack
                0x0000000000000000        0x0 /tmp/cczL9nUl.debug.temp.o
 .comment       0x0000000000000000       0x5e /tmp/ccMjqYcA.debug.temp.o
 .note.GNU-stack
                0x0000000000000000        0x0 /tmp/ccMjqYcA.debug.temp.o
 .comment       0x0000000000000000       0x5e /tmp/ccDSEB36.debug.temp.o
 .note.GNU-stack
                0x0000000000000000        0x0 /tmp/ccDSEB36.debug.temp.o
 .comment       0x0000000000000000       0x5e /tmp/ccjNq4jj.debug.temp.o
 .note.GNU-stack
                0x0000000000000000        0x0 /tmp/ccjNq4jj.debug.temp.o
 .comment       0x0000000000000000       0x5e /tmp/ccJDJS64.debug.temp.o
 .note.GNU-stack
                0x0000000000000000        0x0 /tmp/ccJDJS64.debug.temp.o
 .comment       0x0000000000000000       0x5e /tmp/ccl8ek57.debug.temp.o
 .note.GNU-stack
                0x0000000000000000        0x0 /tmp/ccl8ek57.debug.temp.o
 .comment       0x0000000000000000       0x5e /tmp/ccNxjsbq.debug.temp.o
 .note.GNU-stack
                0x0000000000000000        0x0 /tmp/ccNxjsbq.debug.temp.o
 .comment       0x0000000000000000       0x5e /tmp/ccnXo894.debug.temp.o
 .note.GNU-stack
                0x0000000000000000        0x0 /tmp/ccnXo894.debug.temp.o
 .comment       0x0000000000000000       0x5e /tmp/ccv92q1v.debug.temp.o
 .note.GNU-stack
                0x0000000000000000        0x0 /tmp/ccv92q1v.debug.temp.o
 .comment       0x0000000000000000       0x5e /tmp/ccy9Eo2l.debug.temp.o
 .note.GNU-stack
                0x0000000000000000        0x0 /tmp/ccy9Eo2l.debug.temp.o
 .comment       0x0000000000000000       0x5e /tmp/cc5B5wbg.debug.temp.o
 .note.GNU-stack
                0x0000000000000000        0x0 /tmp/cc5B5wbg.debug.temp.o
 .comment       0x0000000000000000       0x5e /tmp/cc7dQci2.debug.temp.o
 .note.GNU-stack
                0x0000000000000000        0x0 /tmp/cc7dQci2.debug.temp.o
 .comment       0x0000000000000000       0x5e /tmp/ccVZVBwK.debug.temp.o
 .note.GNU-stack
                0x0000000000000000        0x0 /tmp/ccVZVBwK.debug.temp.o
 .comment       0x0000000000000000       0x5e /tmp/cc4jXU7d.debug.temp.o
 .note.GNU-stack
                0x0000000000000000        0x0 /tmp/cc4jXU7d.debug.temp.o
 .comment       0x0000000000000000       0x5e /tmp/ccNxpQr5.debug.temp.o
 .note.GNU-stack
                0x0000000000000000        0x0 /tmp/ccNxpQr5.debug.temp.o
 .comment       0x0000000000000000       0x5e /tmp/ccosi93o.debug.temp.o
 .note.GNU-stack
                0x0000000000000000        0x0 /tmp/ccosi93o.debug.temp.o
 .comment       0x0000000000000000       0x5e /tmp/ccDqCtJy.debug.temp.o
 .note.GNU-stack
                0x0000000000000000        0x0 /tmp/ccDqCtJy.debug.temp.o
 .comment       0x0000000000000000       0x5e /tmp/ccxQZgXW.debug.temp.o
 .note.GNU-stack
                0x0000000000000000        0x0 /tmp/ccxQZgXW.debug.temp.o
 .comment       0x0000000000000000       0x5e /tmp/ccVZR4YS.debug.temp.o
 .note.GNU-stack
                0x0000000000000000        0x0 /tmp/ccVZR4YS.debug.temp.o
 .comment       0x0000000000000000       0x5e /tmp/cc21Kipz.debug.temp.o
 .note.GNU-stack
                0x0000000000000000        0x0 /tmp/cc21Kipz.debug.temp.o
 .comment       0x0000000000000000       0x5e /tmp/ccuNcGM3.debug.temp.o
 .note.GNU-stack
                0x0000000000000000        0x0 /tmp/ccuNcGM3.debug.temp.o
 .comment       0x0000000000000000       0x5e /tmp/ccQts16C.debug.temp.o
 .note.GNU-stack
                0x0000000000000000        0x0 /tmp/ccQts16C.debug.temp.o
 .comment       0x0000000000000000       0x5e /tmp/ccDUsDVJ.debug.temp.o
 .note.GNU-stack
                0x0000000000000000        0x0 /tmp/ccDUsDVJ.debug.temp.o
 .comment       0x0000000000000000       0x5e /tmp/ccvmA2U8.debug.temp.o
 .note.GNU-stack
                0x0000000000000000        0x0 /tmp/ccvmA2U8.debug.temp.o
 .comment       0x0000000000000000       0x5e /tmp/ccuUQXDN.debug.temp.o
 .note.GNU-stack
                0x0000000000000000        0x0 /tmp/ccuUQXDN.debug.temp.o
 .comment       0x0000000000000000       0x5e /tmp/cc1fnr3d.debug.temp.o
 .note.GNU-stack
                0x0000000000000000        0x0 /tmp/cc1fnr3d.debug.temp.o
 .comment       0x0000000000000000       0x5e /tmp/ccK4RAoA.debug.temp.o
 .note.GNU-stack
                0x0000000000000000        0x0 /tmp/ccK4RAoA.debug.temp.o
 .comment       0x0000000000000000       0x5e /tmp/ccDgc1rI.debug.temp.o
 .note.GNU-stack
                0x0000000000000000        0x0 /tmp/ccDgc1rI.debug.temp.o
 .comment       0x0000000000000000       0x5e /tmp/ccrt2Odg.debug.temp.o
 .note.GNU-stack
                0x0000000000000000        0x0 /tmp/ccrt2Odg.debug.temp.o
 .comment       0x0000000000000000       0x5e /tmp/cc3IBqEu.debug.temp.o
 .note.GNU-stack
                0x0000000000000000        0x0 /tmp/cc3IBqEu.debug.temp.o
 .comment       0x0000000000000000       0x5e /tmp/ccoLVqQT.debug.temp.o
 .note.GNU-stack
                0x0000000000000000        0x0 /tmp/ccoLVqQT.debug.temp.o
 .comment       0x0000000000000000       0x5e /tmp/ccsIViIC.debug.temp.o
 .note.GNU-stack
                0x0000000000000000        0x0 /tmp/ccsIViIC.debug.temp.o
 .comment       0x0000000000000000       0x5e /tmp/ccgjecB1.debug.temp.o
 .note.GNU-stack
                0x0000000000000000        0x0 /tmp/ccgjecB1.debug.temp.o
 .comment       0x0000000000000000       0x5e /tmp/ccR6xuav.debug.temp.o
 .note.GNU-stack
                0x0000000000000000        0x0 /tmp/ccR6xuav.debug.temp.o
 .comment       0x0000000000000000       0x5e /tmp/ccZUlp7d.debug.temp.o
 .note.GNU-stack
                0x0000000000000000        0x0 /tmp/ccZUlp7d.debug.temp.o
 .comment       0x0000000000000000       0x5e /tmp/ccUOmVvX.debug.temp.o
 .note.GNU-stack
                0x0000000000000000        0x0 /tmp/ccUOmVvX.debug.temp.o
 .comment       0x0000000000000000       0x5e /tmp/ccbHKq7Y.debug.temp.o
 .note.GNU-stack
                0x0000000000000000        0x0 /tmp/ccbHKq7Y.debug.temp.o
 .comment       0x0000000000000000       0x5e /tmp/cc5puZL7.debug.temp.o
 .note.GNU-stack
                0x0000000000000000        0x0 /tmp/cc5puZL7.debug.temp.o
 .comment       0x0000000000000000       0x5e /tmp/cc0ZBMtB.debug.temp.o
 .note.GNU-stack
                0x0000000000000000        0x0 /tmp/cc0ZBMtB.debug.temp.o
 .comment       0x0000000000000000       0x5e /tmp/cctaeyEl.debug.temp.o
 .note.GNU-stack
                0x0000000000000000        0x0 /tmp/cctaeyEl.debug.temp.o
 .comment       0x0000000000000000       0x5e /tmp/ccTX97Lt.debug.temp.o
 .note.GNU-stack
                0x0000000000000000        0x0 /tmp/ccTX97Lt.debug.temp.o
 .comment       0x0000000000000000       0x5e /tmp/ccvHkmAt.debug.temp.o
 .note.GNU-stack
                0x0000000000000000        0x0 /tmp/ccvHkmAt.debug.temp.o
 .comment       0x0000000000000000       0x5e /tmp/ccOPy7Am.debug.temp.o
 .note.GNU-stack
                0x0000000000000000        0x0 /tmp/ccOPy7Am.debug.temp.o
 .comment       0x0000000000000000       0x5e /tmp/ccRDiCfQ.debug.temp.o
 .note.GNU-stack
                0x0000000000000000        0x0 /tmp/ccRDiCfQ.debug.temp.o
 .comment       0x0000000000000000       0x5e /tmp/ccmURXSA.debug.temp.o
 .note.GNU-stack
                0x0000000000000000        0x0 /tmp/ccmURXSA.debug.temp.o
 .comment       0x0000000000000000       0x5e /tmp/ccUC1iP3.debug.temp.o
 .note.GNU-stack
                0x0000000000000000        0x0 /tmp/ccUC1iP3.debug.temp.o
 .comment       0x0000000000000000       0x5e /tmp/ccLZibxj.debug.temp.o
 .note.GNU-stack
                0x0000000000000000        0x0 /tmp/ccLZibxj.debug.temp.o
 .comment       0x0000000000000000       0x5e /tmp/cctqi5BG.debug.temp.o
 .note.GNU-stack
                0x0000000000000000        0x0 /tmp/cctqi5BG.debug.temp.o
 .comment       0x0000000000000000       0x5e /tmp/cc7gZXBF.debug.temp.o
 .note.GNU-stack
                0x0000000000000000        0x0 /tmp/cc7gZXBF.debug.temp.o
 .comment       0x0000000000000000       0x5e /tmp/ccyfYjKF.debug.temp.o
 .note.GNU-stack
                0x0000000000000000        0x0 /tmp/ccyfYjKF.debug.temp.o
 .comment       0x0000000000000000       0x5e /tmp/cccv01My.debug.temp.o
 .note.GNU-stack
                0x0000000000000000        0x0 /tmp/cccv01My.debug.temp.o
 .comment       0x0000000000000000       0x5e /tmp/ccVPpByB.debug.temp.o
 .note.GNU-stack
                0x0000000000000000        0x0 /tmp/ccVPpByB.debug.temp.o
 .comment       0x0000000000000000       0x5e /tmp/cc5Z8osv.debug.temp.o
 .note.GNU-stack
                0x0000000000000000        0x0 /tmp/cc5Z8osv.debug.temp.o
 .comment       0x0000000000000000       0x5e /tmp/ccTdKUGt.debug.temp.o
 .note.GNU-stack
                0x0000000000000000        0x0 /tmp/ccTdKUGt.debug.temp.o
 .comment       0x0000000000000000       0x5e /tmp/ccPjMNaY.debug.temp.o
 .note.GNU-stack
                0x0000000000000000        0x0 /tmp/ccPjMNaY.debug.temp.o
 .comment       0x0000000000000000       0x5e /tmp/ccXLOhYy.debug.temp.o
 .note.GNU-stack
                0x0000000000000000        0x0 /tmp/ccXLOhYy.debug.temp.o
 .comment       0x0000000000000000       0x5e /tmp/ccCo2DLi.debug.temp.o
 .note.GNU-stack
                0x0000000000000000        0x0 /tmp/ccCo2DLi.debug.temp.o
 .comment       0x0000000000000000       0x5e /tmp/ccJHJfM2.debug.temp.o
 .note.GNU-stack
                0x0000000000000000        0x0 /tmp/ccJHJfM2.debug.temp.o
 .comment       0x0000000000000000       0x5e /tmp/ccWFG3mc.debug.temp.o
 .note.GNU-stack
                0x0000000000000000        0x0 /tmp/ccWFG3mc.debug.temp.o
 .comment       0x0000000000000000       0x5e /tmp/ccwEY2Uz.debug.temp.o
 .note.GNU-stack
                0x0000000000000000        0x0 /tmp/ccwEY2Uz.debug.temp.o
 .comment       0x0000000000000000       0x5e /tmp/ccnnyznw.debug.temp.o
 .note.GNU-stack
                0x0000000000000000        0x0 /tmp/ccnnyznw.debug.temp.o
 .comment       0x0000000000000000       0x5e /tmp/ccw0qt3u.debug.temp.o
 .note.GNU-stack
                0x0000000000000000        0x0 /tmp/ccw0qt3u.debug.temp.o
 .comment       0x0000000000000000       0x5e /tmp/ccsy1v3u.debug.temp.o
 .note.GNU-stack
                0x0000000000000000        0x0 /tmp/ccsy1v3u.debug.temp.o
 .comment       0x0000000000000000       0x5e /tmp/cclMPEBV.debug.temp.o
 .note.GNU-stack
                0x0000000000000000        0x0 /tmp/cclMPEBV.debug.temp.o
 .comment       0x0000000000000000       0x5e /tmp/ccEPirrB.debug.temp.o
 .note.GNU-stack
                0x0000000000000000        0x0 /tmp/ccEPirrB.debug.temp.o
 .comment       0x0000000000000000       0x5e /tmp/cctUqyp0.debug.temp.o
 .note.GNU-stack
                0x0000000000000000        0x0 /tmp/cctUqyp0.debug.temp.o
 .comment       0x0000000000000000       0x5e /tmp/cceW9kmV.debug.temp.o
 .note.GNU-stack
                0x0000000000000000        0x0 /tmp/cceW9kmV.debug.temp.o
 .comment       0x0000000000000000       0x5e /tmp/cc9v9I1V.debug.temp.o
 .note.GNU-stack
                0x0000000000000000        0x0 /tmp/cc9v9I1V.debug.temp.o
 .comment       0x0000000000000000       0x5e /tmp/ccmQczTa.debug.temp.o
 .note.GNU-stack
                0x0000000000000000        0x0 /tmp/ccmQczTa.debug.temp.o
 .comment       0x0000000000000000       0x5e /tmp/ccl0Q6Sl.debug.temp.o
 .note.GNU-stack
                0x0000000000000000        0x0 /tmp/ccl0Q6Sl.debug.temp.o
 .comment       0x0000000000000000       0x5e /tmp/ccuVRx86.debug.temp.o
 .note.GNU-stack
                0x0000000000000000        0x0 /tmp/ccuVRx86.debug.temp.o
 .comment       0x0000000000000000       0x5e /tmp/ccXwClf2.debug.temp.o
 .note.GNU-stack
                0x0000000000000000        0x0 /tmp/ccXwClf2.debug.temp.o
 .comment       0x0000000000000000       0x5e /tmp/ccp6m6Sd.debug.temp.o
 .note.GNU-stack
                0x0000000000000000        0x0 /tmp/ccp6m6Sd.debug.temp.o
 .comment       0x0000000000000000       0x5e /tmp/ccfatnaC.debug.temp.o
 .note.GNU-stack
                0x0000000000000000        0x0 /tmp/ccfatnaC.debug.temp.o
 .comment       0x0000000000000000       0x5e /tmp/ccAtDMIS.debug.temp.o
 .note.GNU-stack
                0x0000000000000000        0x0 /tmp/ccAtDMIS.debug.temp.o
 .comment       0x0000000000000000       0x5e /tmp/ccVNoey6.debug.temp.o
 .note.GNU-stack
                0x0000000000000000        0x0 /tmp/ccVNoey6.debug.temp.o
 .comment       0x0000000000000000       0x5e /tmp/ccURFV6K.debug.temp.o
 .note.GNU-stack
                0x0000000000000000        0x0 /tmp/ccURFV6K.debug.temp.o
 .comment       0x0000000000000000       0x5e /tmp/cccdd55R.debug.temp.o
 .note.GNU-stack
                0x0000000000000000        0x0 /tmp/cccdd55R.debug.temp.o
 .comment       0x0000000000000000       0x5e /tmp/ccnHZRvv.debug.temp.o
 .note.GNU-stack
                0x0000000000000000        0x0 /tmp/ccnHZRvv.debug.temp.o
 .debug_info    0x0000000000000000      0x795 /tmp/ccTQZ9qh.debug.temp.o
 .debug_abbrev  0x0000000000000000       0x9f /tmp/ccTQZ9qh.debug.temp.o
 .debug_line    0x0000000000000000       0xaf /tmp/ccTQZ9qh.debug.temp.o
 .debug_str     0x0000000000000000      0x48b /tmp/ccTQZ9qh.debug.temp.o
 .comment       0x0000000000000000       0x5e /tmp/ccTQZ9qh.debug.temp.o
 .note.GNU-stack
                0x0000000000000000        0x0 /tmp/ccTQZ9qh.debug.temp.o
 .comment       0x0000000000000000       0x5e /tmp/ccqWdb1W.debug.temp.o
 .note.GNU-stack
                0x0000000000000000        0x0 /tmp/ccqWdb1W.debug.temp.o
 .comment       0x0000000000000000       0x5e /tmp/cc71aMtw.debug.temp.o
 .note.GNU-stack
                0x0000000000000000        0x0 /tmp/cc71aMtw.debug.temp.o
 .debug_info    0x0000000000000000       0xb6 /tmp/cckSmbEO.debug.temp.o
 .debug_abbrev  0x0000000000000000       0x86 /tmp/cckSmbEO.debug.temp.o
 .debug_line    0x0000000000000000      0x16c /tmp/cckSmbEO.debug.temp.o
 .debug_str     0x0000000000000000      0x324 /tmp/cckSmbEO.debug.temp.o
 .comment       0x0000000000000000       0x5e /tmp/cckSmbEO.debug.temp.o
 .note.GNU-stack
                0x0000000000000000        0x0 /tmp/cckSmbEO.debug.temp.o
 .comment       0x0000000000000000       0x5e /tmp/cc9z0B30.debug.temp.o
 .note.GNU-stack
                0x0000000000000000        0x0 /tmp/cc9z0B30.debug.temp.o
 .comment       0x0000000000000000       0x5e /tmp/ccLNPifb.debug.temp.o
 .note.GNU-stack
                0x0000000000000000        0x0 /tmp/ccLNPifb.debug.temp.o
 .comment       0x0000000000000000       0x5e /tmp/cco7ushN.debug.temp.o
 .note.GNU-stack
                0x0000000000000000        0x0 /tmp/cco7ushN.debug.temp.o
 .comment       0x0000000000000000       0x5e /tmp/ccB61hEj.debug.temp.o
 .note.GNU-stack
                0x0000000000000000        0x0 /tmp/ccB61hEj.debug.temp.o
 .comment       0x0000000000000000       0x5e /tmp/ccbDiLWw.debug.temp.o
 .note.GNU-stack
                0x0000000000000000        0x0 /tmp/ccbDiLWw.debug.temp.o
 .comment       0x0000000000000000       0x5e /tmp/ccAgvmth.debug.temp.o
 .note.GNU-stack
                0x0000000000000000        0x0 /tmp/ccAgvmth.debug.temp.o
 .comment       0x0000000000000000       0x5e /tmp/ccms9RGy.debug.temp.o
 .note.GNU-stack
                0x0000000000000000        0x0 /tmp/ccms9RGy.debug.temp.o
 .debug_info    0x0000000000000000      0x302 /tmp/cczJbQTD.debug.temp.o
 .debug_abbrev  0x0000000000000000       0xcd /tmp/cczJbQTD.debug.temp.o
 .debug_line    0x0000000000000000      0x119 /tmp/cczJbQTD.debug.temp.o
 .debug_str     0x0000000000000000      0x40b /tmp/cczJbQTD.debug.temp.o
 .comment       0x0000000000000000       0x5e /tmp/cczJbQTD.debug.temp.o
 .note.GNU-stack
                0x0000000000000000        0x0 /tmp/cczJbQTD.debug.temp.o
 .comment       0x0000000000000000       0x5e /tmp/cc1A1R4v.debug.temp.o
 .note.GNU-stack
                0x0000000000000000        0x0 /tmp/cc1A1R4v.debug.temp.o
 .comment       0x0000000000000000       0x5e /tmp/cc23Zg35.debug.temp.o
 .note.GNU-stack
                0x0000000000000000        0x0 /tmp/cc23Zg35.debug.temp.o
 .debug_info    0x0000000000000000     0x1a40 /tmp/ccSCdDkE.debug.temp.o
 .debug_abbrev  0x0000000000000000      0x1ed /tmp/ccSCdDkE.debug.temp.o
 .debug_line    0x0000000000000000      0x2f2 /tmp/ccSCdDkE.debug.temp.o
 .debug_str     0x0000000000000000     0x1901 /tmp/ccSCdDkE.debug.temp.o
 .comment       0x0000000000000000       0x5e /tmp/ccSCdDkE.debug.temp.o
 .note.GNU-stack
                0x0000000000000000        0x0 /tmp/ccSCdDkE.debug.temp.o
 .comment       0x0000000000000000       0x5e /tmp/ccTTFipc.debug.temp.o
 .note.GNU-stack
                0x0000000000000000        0x0 /tmp/ccTTFipc.debug.temp.o
 .debug_info    0x0000000000000000     0x228e /tmp/ccgvV6q6.debug.temp.o
 .debug_abbrev  0x0000000000000000      0x24a /tmp/ccgvV6q6.debug.temp.o
 .debug_line    0x0000000000000000      0x380 /tmp/ccgvV6q6.debug.temp.o
 .debug_str     0x0000000000000000     0x1e0b /tmp/ccgvV6q6.debug.temp.o
 .comment       0x0000000000000000       0x5e /tmp/ccgvV6q6.debug.temp.o
 .note.GNU-stack
                0x0000000000000000        0x0 /tmp/ccgvV6q6.debug.temp.o
 .debug_info    0x0000000000000000     0x35ce /tmp/ccy1DB4d.debug.temp.o
 .debug_abbrev  0x0000000000000000      0x265 /tmp/ccy1DB4d.debug.temp.o
 .debug_line    0x0000000000000000      0x4d2 /tmp/ccy1DB4d.debug.temp.o
 .debug_str     0x0000000000000000     0x29df /tmp/ccy1DB4d.debug.temp.o
 .comment       0x0000000000000000       0x5e /tmp/ccy1DB4d.debug.temp.o
 .note.GNU-stack
                0x0000000000000000        0x0 /tmp/ccy1DB4d.debug.temp.o
 .debug_info    0x0000000000000000     0x421e /tmp/cc2Cu1gJ.debug.temp.o
 .debug_abbrev  0x0000000000000000      0x374 /tmp/cc2Cu1gJ.debug.temp.o
 .debug_line    0x0000000000000000      0x3ec /tmp/cc2Cu1gJ.debug.temp.o
 .debug_str     0x0000000000000000     0x2fba /tmp/cc2Cu1gJ.debug.temp.o
 .comment       0x0000000000000000       0x5e /tmp/cc2Cu1gJ.debug.temp.o
 .note.GNU-stack
                0x0000000000000000        0x0 /tmp/cc2Cu1gJ.debug.temp.o
 .debug_info    0x0000000000000000     0x25ab /tmp/ccVpYdy7.debug.temp.o
 .debug_abbrev  0x0000000000000000      0x2dc /tmp/ccVpYdy7.debug.temp.o
 .debug_line    0x0000000000000000      0x367 /tmp/ccVpYdy7.debug.temp.o
 .debug_str     0x0000000000000000     0x1c4c /tmp/ccVpYdy7.debug.temp.o
 .comment       0x0000000000000000       0x5e /tmp/ccVpYdy7.debug.temp.o
 .note.GNU-stack
                0x0000000000000000        0x0 /tmp/ccVpYdy7.debug.temp.o
 .debug_info    0x0000000000000000     0x1b3c /tmp/ccsp0TtA.debug.temp.o
 .debug_abbrev  0x0000000000000000      0x23f /tmp/ccsp0TtA.debug.temp.o
 .debug_line    0x0000000000000000      0x378 /tmp/ccsp0TtA.debug.temp.o
 .debug_str     0x0000000000000000     0x1719 /tmp/ccsp0TtA.debug.temp.o
 .comment       0x0000000000000000       0x5e /tmp/ccsp0TtA.debug.temp.o
 .note.GNU-stack
                0x0000000000000000        0x0 /tmp/ccsp0TtA.debug.temp.o
 .debug_info    0x0000000000000000       0xad /tmp/ccSynhdP.debug.temp.o
 .debug_abbrev  0x0000000000000000       0x66 /tmp/ccSynhdP.debug.temp.o
 .debug_line    0x0000000000000000       0xb2 /tmp/ccSynhdP.debug.temp.o
 .debug_str     0x0000000000000000      0x292 /tmp/ccSynhdP.debug.temp.o
 .comment       0x0000000000000000       0x5e /tmp/ccSynhdP.debug.temp.o
 .note.GNU-stack
                0x0000000000000000        0x0 /tmp/ccSynhdP.debug.temp.o
 .debug_info    0x0000000000000000     0x1416 /tmp/cc1zoA3S.debug.temp.o
 .debug_abbrev  0x0000000000000000      0x240 /tmp/cc1zoA3S.debug.temp.o
 .debug_line    0x0000000000000000      0x3c3 /tmp/cc1zoA3S.debug.temp.o
 .debug_str     0x0000000000000000     0x116d /tmp/cc1zoA3S.debug.temp.o
 .comment       0x0000000000000000       0x5e /tmp/cc1zoA3S.debug.temp.o
 .note.GNU-stack
                0x0000000000000000        0x0 /tmp/cc1zoA3S.debug.temp.o
 .debug_info    0x0000000000000000     0x25d5 /tmp/ccENxXHQ.debug.temp.o
 .debug_abbrev  0x0000000000000000      0x220 /tmp/ccENxXHQ.debug.temp.o
 .debug_line    0x0000000000000000      0x398 /tmp/ccENxXHQ.debug.temp.o
 .debug_str     0x0000000000000000     0x1c09 /tmp/ccENxXHQ.debug.temp.o
 .comment       0x0000000000000000       0x5e /tmp/ccENxXHQ.debug.temp.o
 .note.GNU-stack
                0x0000000000000000        0x0 /tmp/ccENxXHQ.debug.temp.o
 .debug_info    0x0000000000000000     0x123b /tmp/cc0fsjCX.debug.temp.o
 .debug_abbrev  0x0000000000000000      0x206 /tmp/cc0fsjCX.debug.temp.o
 .debug_line    0x0000000000000000      0x2e9 /tmp/cc0fsjCX.debug.temp.o
 .debug_str     0x0000000000000000      0xfc4 /tmp/cc0fsjCX.debug.temp.o
 .comment       0x0000000000000000       0x5e /tmp/cc0fsjCX.debug.temp.o
 .note.GNU-stack
                0x0000000000000000        0x0 /tmp/cc0fsjCX.debug.temp.o
 .data          0x0000000000000000        0x0 /home/daijh/sdk/rk3588/uefi/Build/RK3588/DEBUG_GCC5/AARCH64/MdePkg/Library/BaseMemoryLibOptDxe/BaseMemoryLibOptDxe/OUTPUT/BaseMemoryLibOptDxe.lib(SetMem.obj)
 .bss           0x0000000000000000        0x0 /home/daijh/sdk/rk3588/uefi/Build/RK3588/DEBUG_GCC5/AARCH64/MdePkg/Library/BaseMemoryLibOptDxe/BaseMemoryLibOptDxe/OUTPUT/BaseMemoryLibOptDxe.lib(SetMem.obj)
 .data          0x0000000000000000        0x0 /home/daijh/sdk/rk3588/uefi/Build/RK3588/DEBUG_GCC5/AARCH64/MdePkg/Library/BaseMemoryLibOptDxe/BaseMemoryLibOptDxe/OUTPUT/BaseMemoryLibOptDxe.lib(CopyMem.obj)
 .bss           0x0000000000000000        0x0 /home/daijh/sdk/rk3588/uefi/Build/RK3588/DEBUG_GCC5/AARCH64/MdePkg/Library/BaseMemoryLibOptDxe/BaseMemoryLibOptDxe/OUTPUT/BaseMemoryLibOptDxe.lib(CopyMem.obj)
 .data          0x0000000000000000        0x0 /home/daijh/sdk/rk3588/uefi/Build/RK3588/DEBUG_GCC5/AARCH64/MdePkg/Library/BaseMemoryLibOptDxe/BaseMemoryLibOptDxe/OUTPUT/BaseMemoryLibOptDxe.lib(CompareGuid.obj)
 .bss           0x0000000000000000        0x0 /home/daijh/sdk/rk3588/uefi/Build/RK3588/DEBUG_GCC5/AARCH64/MdePkg/Library/BaseMemoryLibOptDxe/BaseMemoryLibOptDxe/OUTPUT/BaseMemoryLibOptDxe.lib(CompareGuid.obj)
 .text          0x0000000000000000       0x30 /home/daijh/sdk/rk3588/uefi/Build/RK3588/DEBUG_GCC5/AARCH64/MdePkg/Library/BaseLib/BaseLib/OUTPUT/BaseLib.lib(SwitchStack.obj)
 .data          0x0000000000000000        0x0 /home/daijh/sdk/rk3588/uefi/Build/RK3588/DEBUG_GCC5/AARCH64/MdePkg/Library/BaseLib/BaseLib/OUTPUT/BaseLib.lib(SwitchStack.obj)
 .bss           0x0000000000000000        0x0 /home/daijh/sdk/rk3588/uefi/Build/RK3588/DEBUG_GCC5/AARCH64/MdePkg/Library/BaseLib/BaseLib/OUTPUT/BaseLib.lib(SwitchStack.obj)
 .data          0x0000000000000000        0x0 /home/daijh/sdk/rk3588/uefi/Build/RK3588/DEBUG_GCC5/AARCH64/MdePkg/Library/BaseLib/BaseLib/OUTPUT/BaseLib.lib(CpuBreakpoint.obj)
 .bss           0x0000000000000000        0x0 /home/daijh/sdk/rk3588/uefi/Build/RK3588/DEBUG_GCC5/AARCH64/MdePkg/Library/BaseLib/BaseLib/OUTPUT/BaseLib.lib(CpuBreakpoint.obj)
 .data          0x0000000000000000        0x0 /home/daijh/sdk/rk3588/uefi/Build/RK3588/DEBUG_GCC5/AARCH64/MdePkg/Library/BaseMemoryLibOptDxe/BaseMemoryLibOptDxe/OUTPUT/BaseMemoryLibOptDxe.lib(CompareMem.obj)
 .bss           0x0000000000000000        0x0 /home/daijh/sdk/rk3588/uefi/Build/RK3588/DEBUG_GCC5/AARCH64/MdePkg/Library/BaseMemoryLibOptDxe/BaseMemoryLibOptDxe/OUTPUT/BaseMemoryLibOptDxe.lib(CompareMem.obj)

Memory Configuration

Name             Origin             Length             Attributes
*default*        0x0000000000000000 0xffffffffffffffff

Linker script and memory map

LOAD /home/daijh/sdk/rk3588/uefi/edk2/ArmPkg/Library/GccLto/liblto-aarch64.a
START GROUP
LOAD /tmp/Shell.dll.2u1FF2.ltrans0.ltrans.o
LOAD /tmp/Shell.dll.2u1FF2.ltrans1.ltrans.o
LOAD /tmp/Shell.dll.2u1FF2.ltrans2.ltrans.o
LOAD /tmp/Shell.dll.2u1FF2.ltrans3.ltrans.o
LOAD /tmp/Shell.dll.2u1FF2.ltrans4.ltrans.o
LOAD /tmp/Shell.dll.2u1FF2.ltrans5.ltrans.o
LOAD /tmp/Shell.dll.2u1FF2.ltrans6.ltrans.o
LOAD /tmp/Shell.dll.2u1FF2.ltrans7.ltrans.o
LOAD /tmp/Shell.dll.2u1FF2.ltrans8.ltrans.o
LOAD /tmp/Shell.dll.2u1FF2.ltrans9.ltrans.o
LOAD /tmp/Shell.dll.2u1FF2.ltrans10.ltrans.o
LOAD /tmp/Shell.dll.2u1FF2.ltrans11.ltrans.o
LOAD /tmp/Shell.dll.2u1FF2.ltrans12.ltrans.o
LOAD /tmp/cckeOcZW.debug.temp.o
LOAD /tmp/ccyE8yb5.debug.temp.o
LOAD /tmp/ccwIDzdM.debug.temp.o
LOAD /tmp/ccxfCgUK.debug.temp.o
LOAD /tmp/ccJtHqNq.debug.temp.o
LOAD /tmp/ccNs3PSG.debug.temp.o
LOAD /tmp/ccXSirDj.debug.temp.o
LOAD /tmp/ccZbDIhM.debug.temp.o
LOAD /tmp/ccayEk2f.debug.temp.o
LOAD /tmp/ccnXKA7J.debug.temp.o
LOAD /tmp/cc1u43m7.debug.temp.o
LOAD /tmp/ccNYchgj.debug.temp.o
LOAD /tmp/ccRhbWpE.debug.temp.o
LOAD /tmp/ccMF8bbA.debug.temp.o
LOAD /tmp/cceWWQaF.debug.temp.o
LOAD /tmp/ccW7MAbQ.debug.temp.o
LOAD /tmp/ccUNwzbi.debug.temp.o
LOAD /tmp/ccr8YQHk.debug.temp.o
LOAD /tmp/ccNhRJl9.debug.temp.o
LOAD /tmp/ccpXFhAU.debug.temp.o
LOAD /tmp/cctFtvAD.debug.temp.o
LOAD /tmp/cc3yElty.debug.temp.o
LOAD /tmp/cc35w3fR.debug.temp.o
LOAD /tmp/cciVDaRT.debug.temp.o
LOAD /tmp/ccwaEZCF.debug.temp.o
LOAD /tmp/ccTq2Rj1.debug.temp.o
LOAD /tmp/cccAhlov.debug.temp.o
LOAD /tmp/ccJiTQsc.debug.temp.o
LOAD /tmp/cc3Cgdjs.debug.temp.o
LOAD /tmp/cce9amdU.debug.temp.o
LOAD /tmp/ccFEK5hd.debug.temp.o
LOAD /tmp/ccdXF3pj.debug.temp.o
LOAD /tmp/ccRcOvi6.debug.temp.o
LOAD /tmp/ccwPzxuK.debug.temp.o
LOAD /tmp/ccEmAJML.debug.temp.o
LOAD /tmp/ccQgPe7V.debug.temp.o
LOAD /tmp/ccVFYhXy.debug.temp.o
LOAD /tmp/cc93GIwh.debug.temp.o
LOAD /tmp/ccGSsxCD.debug.temp.o
LOAD /tmp/cc4wwVkf.debug.temp.o
LOAD /tmp/ccWUmbbn.debug.temp.o
LOAD /tmp/cctem4R6.debug.temp.o
LOAD /tmp/ccUOrdH6.debug.temp.o
LOAD /tmp/ccFmn6tW.debug.temp.o
LOAD /tmp/cchSJcUw.debug.temp.o
LOAD /tmp/ccxPOkKb.debug.temp.o
LOAD /tmp/ccrcc787.debug.temp.o
LOAD /tmp/ccJsyO4J.debug.temp.o
LOAD /tmp/ccO0IlVZ.debug.temp.o
LOAD /tmp/cc1dPjAl.debug.temp.o
LOAD /tmp/ccd3AH3g.debug.temp.o
LOAD /tmp/ccyP5noS.debug.temp.o
LOAD /tmp/ccTtqDlJ.debug.temp.o
LOAD /tmp/ccmxUVkQ.debug.temp.o
LOAD /tmp/ccl5PHsX.debug.temp.o
LOAD /tmp/cc9wEKB4.debug.temp.o
LOAD /tmp/ccp0dghG.debug.temp.o
LOAD /tmp/ccm8cuFo.debug.temp.o
LOAD /tmp/ccX2rXnQ.debug.temp.o
LOAD /tmp/ccXOsAAV.debug.temp.o
LOAD /tmp/cchw8UyS.debug.temp.o
LOAD /tmp/ccNxBZMv.debug.temp.o
LOAD /tmp/cc2t4z1w.debug.temp.o
LOAD /tmp/ccg1iUXG.debug.temp.o
LOAD /tmp/ccDMhf0l.debug.temp.o
LOAD /tmp/cclhLAgF.debug.temp.o
LOAD /tmp/ccr3XiuJ.debug.temp.o
LOAD /tmp/ccM2LQnN.debug.temp.o
LOAD /tmp/ccUJxCjJ.debug.temp.o
LOAD /tmp/ccLZNGdW.debug.temp.o
LOAD /tmp/ccPP3Clc.debug.temp.o
LOAD /tmp/ccIf4u1Y.debug.temp.o
LOAD /tmp/ccqjGy5G.debug.temp.o
LOAD /tmp/cczL9nUl.debug.temp.o
LOAD /tmp/ccMjqYcA.debug.temp.o
LOAD /tmp/ccDSEB36.debug.temp.o
LOAD /tmp/ccjNq4jj.debug.temp.o
LOAD /tmp/ccJDJS64.debug.temp.o
LOAD /tmp/ccl8ek57.debug.temp.o
LOAD /tmp/ccNxjsbq.debug.temp.o
LOAD /tmp/ccnXo894.debug.temp.o
LOAD /tmp/ccv92q1v.debug.temp.o
LOAD /tmp/ccy9Eo2l.debug.temp.o
LOAD /tmp/cc5B5wbg.debug.temp.o
LOAD /tmp/cc7dQci2.debug.temp.o
LOAD /tmp/ccVZVBwK.debug.temp.o
LOAD /tmp/cc4jXU7d.debug.temp.o
LOAD /tmp/ccNxpQr5.debug.temp.o
LOAD /tmp/ccosi93o.debug.temp.o
LOAD /tmp/ccDqCtJy.debug.temp.o
LOAD /tmp/ccxQZgXW.debug.temp.o
LOAD /tmp/ccVZR4YS.debug.temp.o
LOAD /tmp/cc21Kipz.debug.temp.o
LOAD /tmp/ccuNcGM3.debug.temp.o
LOAD /tmp/ccQts16C.debug.temp.o
LOAD /tmp/ccDUsDVJ.debug.temp.o
LOAD /tmp/ccvmA2U8.debug.temp.o
LOAD /tmp/ccuUQXDN.debug.temp.o
LOAD /tmp/cc1fnr3d.debug.temp.o
LOAD /tmp/ccK4RAoA.debug.temp.o
LOAD /tmp/ccDgc1rI.debug.temp.o
LOAD /tmp/ccrt2Odg.debug.temp.o
LOAD /tmp/cc3IBqEu.debug.temp.o
LOAD /tmp/ccoLVqQT.debug.temp.o
LOAD /tmp/ccsIViIC.debug.temp.o
LOAD /tmp/ccgjecB1.debug.temp.o
LOAD /tmp/ccR6xuav.debug.temp.o
LOAD /tmp/ccZUlp7d.debug.temp.o
LOAD /tmp/ccUOmVvX.debug.temp.o
LOAD /tmp/ccbHKq7Y.debug.temp.o
LOAD /tmp/cc5puZL7.debug.temp.o
LOAD /tmp/cc0ZBMtB.debug.temp.o
LOAD /tmp/cctaeyEl.debug.temp.o
LOAD /tmp/ccTX97Lt.debug.temp.o
LOAD /tmp/ccvHkmAt.debug.temp.o
LOAD /tmp/ccOPy7Am.debug.temp.o
LOAD /tmp/ccRDiCfQ.debug.temp.o
LOAD /tmp/ccmURXSA.debug.temp.o
LOAD /tmp/ccUC1iP3.debug.temp.o
LOAD /tmp/ccLZibxj.debug.temp.o
LOAD /tmp/cctqi5BG.debug.temp.o
LOAD /tmp/cc7gZXBF.debug.temp.o
LOAD /tmp/ccyfYjKF.debug.temp.o
LOAD /tmp/cccv01My.debug.temp.o
LOAD /tmp/ccVPpByB.debug.temp.o
LOAD /tmp/cc5Z8osv.debug.temp.o
LOAD /tmp/ccTdKUGt.debug.temp.o
LOAD /tmp/ccPjMNaY.debug.temp.o
LOAD /tmp/ccXLOhYy.debug.temp.o
LOAD /tmp/ccCo2DLi.debug.temp.o
LOAD /tmp/ccJHJfM2.debug.temp.o
LOAD /tmp/ccWFG3mc.debug.temp.o
LOAD /tmp/ccwEY2Uz.debug.temp.o
LOAD /tmp/ccnnyznw.debug.temp.o
LOAD /tmp/ccw0qt3u.debug.temp.o
LOAD /tmp/ccsy1v3u.debug.temp.o
LOAD /tmp/cclMPEBV.debug.temp.o
LOAD /tmp/ccEPirrB.debug.temp.o
LOAD /tmp/cctUqyp0.debug.temp.o
LOAD /tmp/cceW9kmV.debug.temp.o
LOAD /tmp/cc9v9I1V.debug.temp.o
LOAD /tmp/ccmQczTa.debug.temp.o
LOAD /tmp/ccl0Q6Sl.debug.temp.o
LOAD /tmp/ccuVRx86.debug.temp.o
LOAD /tmp/ccXwClf2.debug.temp.o
LOAD /tmp/ccp6m6Sd.debug.temp.o
LOAD /tmp/ccfatnaC.debug.temp.o
LOAD /tmp/ccAtDMIS.debug.temp.o
LOAD /tmp/ccVNoey6.debug.temp.o
LOAD /tmp/ccURFV6K.debug.temp.o
LOAD /tmp/cccdd55R.debug.temp.o
LOAD /tmp/ccnHZRvv.debug.temp.o
LOAD /tmp/ccTQZ9qh.debug.temp.o
LOAD /tmp/ccqWdb1W.debug.temp.o
LOAD /tmp/cc71aMtw.debug.temp.o
LOAD /tmp/cckSmbEO.debug.temp.o
LOAD /tmp/cc9z0B30.debug.temp.o
LOAD /tmp/ccLNPifb.debug.temp.o
LOAD /tmp/cco7ushN.debug.temp.o
LOAD /tmp/ccB61hEj.debug.temp.o
LOAD /tmp/ccbDiLWw.debug.temp.o
LOAD /tmp/ccAgvmth.debug.temp.o
LOAD /tmp/ccms9RGy.debug.temp.o
LOAD /tmp/cczJbQTD.debug.temp.o
LOAD /tmp/cc1A1R4v.debug.temp.o
LOAD /tmp/cc23Zg35.debug.temp.o
LOAD /tmp/ccSCdDkE.debug.temp.o
LOAD /tmp/ccTTFipc.debug.temp.o
LOAD /tmp/ccgvV6q6.debug.temp.o
LOAD /tmp/ccy1DB4d.debug.temp.o
LOAD /tmp/cc2Cu1gJ.debug.temp.o
LOAD /tmp/ccVpYdy7.debug.temp.o
LOAD /tmp/ccsp0TtA.debug.temp.o
LOAD /tmp/ccSynhdP.debug.temp.o
LOAD /tmp/cc1zoA3S.debug.temp.o
LOAD /tmp/ccENxXHQ.debug.temp.o
LOAD /tmp/cc0fsjCX.debug.temp.o
LOAD /home/daijh/sdk/rk3588/uefi/Build/RK3588/DEBUG_GCC5/AARCH64/ShellPkg/Application/Shell/Shell/OUTPUT/Shell.lib
LOAD /home/daijh/sdk/rk3588/uefi/Build/RK3588/DEBUG_GCC5/AARCH64/MdePkg/Library/DxePcdLib/DxePcdLib/OUTPUT/DxePcdLib.lib
LOAD /home/daijh/sdk/rk3588/uefi/Build/RK3588/DEBUG_GCC5/AARCH64/MdePkg/Library/BaseMemoryLibOptDxe/BaseMemoryLibOptDxe/OUTPUT/BaseMemoryLibOptDxe.lib
LOAD /home/daijh/sdk/rk3588/uefi/Build/RK3588/DEBUG_GCC5/AARCH64/MdePkg/Library/BaseLib/BaseLib/OUTPUT/BaseLib.lib
LOAD /home/daijh/sdk/rk3588/uefi/Build/RK3588/DEBUG_GCC5/AARCH64/MdePkg/Library/RegisterFilterLibNull/RegisterFilterLibNull/OUTPUT/FilterLibNull.lib
LOAD /home/daijh/sdk/rk3588/uefi/Build/RK3588/DEBUG_GCC5/AARCH64/MdePkg/Library/BaseIoLibIntrinsic/BaseIoLibIntrinsic/OUTPUT/BaseIoLibIntrinsic.lib
LOAD /home/daijh/sdk/rk3588/uefi/Build/RK3588/DEBUG_GCC5/AARCH64/Silicon/Rockchip/Library/SerialPortLib/UartLib/OUTPUT/UartLib.lib
LOAD /home/daijh/sdk/rk3588/uefi/Build/RK3588/DEBUG_GCC5/AARCH64/MdePkg/Library/BaseDebugPrintErrorLevelLib/BaseDebugPrintErrorLevelLib/OUTPUT/BaseDebugPrintErrorLevelLib.lib
LOAD /home/daijh/sdk/rk3588/uefi/Build/RK3588/DEBUG_GCC5/AARCH64/Silicon/Rockchip/Library/SerialPortLib/SerialPortLib/OUTPUT/SerialPortLib.lib
LOAD /home/daijh/sdk/rk3588/uefi/Build/RK3588/DEBUG_GCC5/AARCH64/MdePkg/Library/BasePrintLib/BasePrintLib/OUTPUT/BasePrintLib.lib
LOAD /home/daijh/sdk/rk3588/uefi/Build/RK3588/DEBUG_GCC5/AARCH64/MdePkg/Library/BaseDebugLibSerialPort/BaseDebugLibSerialPort/OUTPUT/BaseDebugLibSerialPort.lib
LOAD /home/daijh/sdk/rk3588/uefi/Build/RK3588/DEBUG_GCC5/AARCH64/MdePkg/Library/UefiBootServicesTableLib/UefiBootServicesTableLib/OUTPUT/UefiBootServicesTableLib.lib
LOAD /home/daijh/sdk/rk3588/uefi/Build/RK3588/DEBUG_GCC5/AARCH64/MdePkg/Library/UefiMemoryAllocationLib/UefiMemoryAllocationLib/OUTPUT/UefiMemoryAllocationLib.lib
LOAD /home/daijh/sdk/rk3588/uefi/Build/RK3588/DEBUG_GCC5/AARCH64/MdePkg/Library/UefiDevicePathLib/UefiDevicePathLib/OUTPUT/UefiDevicePathLib.lib
LOAD /home/daijh/sdk/rk3588/uefi/Build/RK3588/DEBUG_GCC5/AARCH64/MdePkg/Library/UefiRuntimeServicesTableLib/UefiRuntimeServicesTableLib/OUTPUT/UefiRuntimeServicesTableLib.lib
LOAD /home/daijh/sdk/rk3588/uefi/Build/RK3588/DEBUG_GCC5/AARCH64/MdeModulePkg/Library/UefiHiiServicesLib/UefiHiiServicesLib/OUTPUT/UefiHiiServicesLib.lib
LOAD /home/daijh/sdk/rk3588/uefi/Build/RK3588/DEBUG_GCC5/AARCH64/MdePkg/Library/UefiLib/UefiLib/OUTPUT/UefiLib.lib
LOAD /home/daijh/sdk/rk3588/uefi/Build/RK3588/DEBUG_GCC5/AARCH64/MdeModulePkg/Library/UefiSortLib/UefiSortLib/OUTPUT/UefiSortLib.lib
LOAD /home/daijh/sdk/rk3588/uefi/Build/RK3588/DEBUG_GCC5/AARCH64/MdeModulePkg/Library/UefiHiiLib/UefiHiiLib/OUTPUT/UefiHiiLib.lib
LOAD /home/daijh/sdk/rk3588/uefi/Build/RK3588/DEBUG_GCC5/AARCH64/MdePkg/Library/UefiFileHandleLib/UefiFileHandleLib/OUTPUT/UefiFileHandleLib.lib
LOAD /home/daijh/sdk/rk3588/uefi/Build/RK3588/DEBUG_GCC5/AARCH64/MdePkg/Library/BasePeCoffGetEntryPointLib/BasePeCoffGetEntryPointLib/OUTPUT/BasePeCoffGetEntryPointLib.lib
LOAD /home/daijh/sdk/rk3588/uefi/Build/RK3588/DEBUG_GCC5/AARCH64/MdeModulePkg/Library/DxeReportStatusCodeLib/DxeReportStatusCodeLib/OUTPUT/DxeReportStatusCodeLib.lib
LOAD /home/daijh/sdk/rk3588/uefi/Build/RK3588/DEBUG_GCC5/AARCH64/MdePkg/Library/DxeServicesLib/DxeServicesLib/OUTPUT/DxeServicesLib.lib
LOAD /home/daijh/sdk/rk3588/uefi/Build/RK3588/DEBUG_GCC5/AARCH64/MdePkg/Library/DxeServicesTableLib/DxeServicesTableLib/OUTPUT/DxeServicesTableLib.lib
LOAD /home/daijh/sdk/rk3588/uefi/Build/RK3588/DEBUG_GCC5/AARCH64/MdeModulePkg/Library/DxePerformanceLib/DxePerformanceLib/OUTPUT/DxePerformanceLib.lib
LOAD /home/daijh/sdk/rk3588/uefi/Build/RK3588/DEBUG_GCC5/AARCH64/MdePkg/Library/DxeHobLib/DxeHobLib/OUTPUT/DxeHobLib.lib
LOAD /home/daijh/sdk/rk3588/uefi/Build/RK3588/DEBUG_GCC5/AARCH64/MdePkg/Library/BaseOrderedCollectionRedBlackTreeLib/BaseOrderedCollectionRedBlackTreeLib/OUTPUT/BaseOrderedCollectionRedBlackTreeLib.lib
LOAD /home/daijh/sdk/rk3588/uefi/Build/RK3588/DEBUG_GCC5/AARCH64/ShellPkg/Library/UefiShellLib/UefiShellLib/OUTPUT/UefiShellLib.lib
LOAD /home/daijh/sdk/rk3588/uefi/Build/RK3588/DEBUG_GCC5/AARCH64/ShellPkg/Library/UefiHandleParsingLib/UefiHandleParsingLib/OUTPUT/UefiHandleParsingLib.lib
LOAD /home/daijh/sdk/rk3588/uefi/Build/RK3588/DEBUG_GCC5/AARCH64/MdeModulePkg/Library/UefiBootManagerLib/UefiBootManagerLib/OUTPUT/UefiBootManagerLib.lib
LOAD /home/daijh/sdk/rk3588/uefi/Build/RK3588/DEBUG_GCC5/AARCH64/ShellPkg/Library/UefiShellCommandLib/UefiShellCommandLib/OUTPUT/UefiShellCommandLib.lib
LOAD /home/daijh/sdk/rk3588/uefi/Build/RK3588/DEBUG_GCC5/AARCH64/ShellPkg/Library/UefiShellBcfgCommandLib/UefiShellBcfgCommandLib/OUTPUT/UefiShellBcfgCommandLib.lib
LOAD /home/daijh/sdk/rk3588/uefi/Build/RK3588/DEBUG_GCC5/AARCH64/MdePkg/Library/BaseStackCheckLib/BaseStackCheckLib/OUTPUT/BaseStackCheckLib.lib
LOAD /home/daijh/sdk/rk3588/uefi/Build/RK3588/DEBUG_GCC5/AARCH64/ArmPkg/Library/CompilerIntrinsicsLib/CompilerIntrinsicsLib/OUTPUT/CompilerIntrinsicsLib.lib
LOAD /home/daijh/sdk/rk3588/uefi/Build/RK3588/DEBUG_GCC5/AARCH64/MdePkg/Library/UefiApplicationEntryPoint/UefiApplicationEntryPoint/OUTPUT/UefiApplicationEntryPoint.lib
LOAD /home/daijh/sdk/rk3588/uefi/Build/RK3588/DEBUG_GCC5/AARCH64/ShellPkg/Library/UefiShellLevel2CommandsLib/UefiShellLevel2CommandsLib/OUTPUT/UefiShellLevel2CommandsLib.lib
LOAD /home/daijh/sdk/rk3588/uefi/Build/RK3588/DEBUG_GCC5/AARCH64/ShellPkg/Library/UefiShellLevel1CommandsLib/UefiShellLevel1CommandsLib/OUTPUT/UefiShellLevel1CommandsLib.lib
LOAD /home/daijh/sdk/rk3588/uefi/Build/RK3588/DEBUG_GCC5/AARCH64/ShellPkg/Library/UefiShellLevel3CommandsLib/UefiShellLevel3CommandsLib/OUTPUT/UefiShellLevel3CommandsLib.lib
LOAD /home/daijh/sdk/rk3588/uefi/Build/RK3588/DEBUG_GCC5/AARCH64/ShellPkg/Library/UefiShellDriver1CommandsLib/UefiShellDriver1CommandsLib/OUTPUT/UefiShellDriver1CommandsLib.lib
LOAD /home/daijh/sdk/rk3588/uefi/Build/RK3588/DEBUG_GCC5/AARCH64/ShellPkg/Library/UefiShellDebug1CommandsLib/UefiShellDebug1CommandsLib/OUTPUT/UefiShellDebug1CommandsLib.lib
LOAD /home/daijh/sdk/rk3588/uefi/Build/RK3588/DEBUG_GCC5/AARCH64/ShellPkg/Library/UefiShellInstall1CommandsLib/UefiShellInstall1CommandsLib/OUTPUT/UefiShellInstall1CommandsLib.lib
LOAD /home/daijh/sdk/rk3588/uefi/Build/RK3588/DEBUG_GCC5/AARCH64/Silicon/Rockchip/Applications/I2cDemoTest/I2cDemoTest/OUTPUT/UefiShellI2cDemoLib.lib
LOAD /home/daijh/sdk/rk3588/uefi/Build/RK3588/DEBUG_GCC5/AARCH64/Silicon/Rockchip/Applications/SpiTool/SpiFlashCmd/OUTPUT/UefiShellSpiFlashLib.lib
END GROUP
                0x0000000000000228                . = PECOFF_HEADER_SIZE

.text           0x0000000000001000    0x7b406
 *(.text .text.* .stub .gnu.linkonce.t.*)
 .text.IsUnicodeFile
                0x0000000000001000       0xd4 /tmp/Shell.dll.2u1FF2.ltrans0.ltrans.o
 .text.CalculateEfiHdrCrc
                0x00000000000010d4       0x44 /tmp/Shell.dll.2u1FF2.ltrans0.ltrans.o
 .text.EfiShellDisablePageBreak
                0x0000000000001118        0xc /tmp/Shell.dll.2u1FF2.ltrans0.ltrans.o
 .text.EfiShellEnablePageBreak
                0x0000000000001124       0x10 /tmp/Shell.dll.2u1FF2.ltrans0.ltrans.o
 .text.WriteFileTag
                0x0000000000001134       0x7c /tmp/Shell.dll.2u1FF2.ltrans0.ltrans.o
 .text.FindFirstCharacter
                0x00000000000011b0       0xac /tmp/Shell.dll.2u1FF2.ltrans0.ltrans.o
 .text.FixFileName
                0x000000000000125c       0x74 /tmp/Shell.dll.2u1FF2.ltrans0.ltrans.o
 .text.FixVarName
                0x00000000000012d0       0x48 /tmp/Shell.dll.2u1FF2.ltrans0.ltrans.o
 .text.ProcessLibraryConstructorList
                0x0000000000001318     0x1598 /tmp/Shell.dll.2u1FF2.ltrans0.ltrans.o
 .text.ContainsSplit
                0x00000000000028b0       0xec /tmp/Shell.dll.2u1FF2.ltrans0.ltrans.o
 .text.IsCommand
                0x000000000000299c       0x28 /tmp/Shell.dll.2u1FF2.ltrans0.ltrans.o
 .text.IsScriptOnlyCommand
                0x00000000000029c4       0xb0 /tmp/Shell.dll.2u1FF2.ltrans0.ltrans.o
 .text.ProcessCommandLine
                0x0000000000002a74      0x4e4 /tmp/Shell.dll.2u1FF2.ltrans0.ltrans.o
 .text.GetNextParameter
                0x0000000000002f58      0x1c0 /tmp/Shell.dll.2u1FF2.ltrans0.ltrans.o
 .text.EfiShellBatchIsActive
                0x0000000000003118       0x1c /tmp/Shell.dll.2u1FF2.ltrans0.ltrans.o
 .text.InternalDuplicateShellFileInfo
                0x0000000000003134       0xdc /tmp/Shell.dll.2u1FF2.ltrans0.ltrans.o
 .text.GetOperationType.part.0
                0x0000000000003210       0xd8 /tmp/Shell.dll.2u1FF2.ltrans0.ltrans.o
 .text.EfiShellClose
                0x00000000000032e8       0x24 /tmp/Shell.dll.2u1FF2.ltrans0.ltrans.o
 .text.EfiShellSetMap
                0x000000000000330c      0x188 /tmp/Shell.dll.2u1FF2.ltrans0.ltrans.o
 .text.EfiShellGetDevicePathFromMap
                0x0000000000003494       0x84 /tmp/Shell.dll.2u1FF2.ltrans0.ltrans.o
 .text.EfiShellGetFilePathFromDevicePath
                0x0000000000003518      0x2a0 /tmp/Shell.dll.2u1FF2.ltrans0.ltrans.o
 .text.EfiShellGetDevicePathFromFilePath
                0x00000000000037b8      0x1fc /tmp/Shell.dll.2u1FF2.ltrans0.ltrans.o
 .text.EfiShellGetDeviceName
                0x00000000000039b4      0x364 /tmp/Shell.dll.2u1FF2.ltrans0.ltrans.o
 .text.EfiShellRegisterGuidName
                0x0000000000003d18      0x210 /tmp/Shell.dll.2u1FF2.ltrans0.ltrans.o
 .text.EfiShellGetGuidFromName
                0x0000000000003f28       0x58 /tmp/Shell.dll.2u1FF2.ltrans0.ltrans.o
 .text.memcpy   0x0000000000003f80       0x20 /tmp/Shell.dll.2u1FF2.ltrans0.ltrans.o
                0x0000000000003f80                memcpy
 .text.AddBufferToFreeList
                0x0000000000003fa0       0x50 /tmp/Shell.dll.2u1FF2.ltrans0.ltrans.o
                0x0000000000003fa0                AddBufferToFreeList
 .text.EfiShellGetMapFromDevicePath
                0x0000000000003ff0      0x13c /tmp/Shell.dll.2u1FF2.ltrans0.ltrans.o
 .text.EfiShellOpenRootByHandle
                0x000000000000412c       0xcc /tmp/Shell.dll.2u1FF2.ltrans0.ltrans.o
 .text.EfiShellOpenRoot
                0x00000000000041f8       0x68 /tmp/Shell.dll.2u1FF2.ltrans0.ltrans.o
 .text.EfiShellGetGuidName
                0x0000000000004260       0x70 /tmp/Shell.dll.2u1FF2.ltrans0.ltrans.o
 .text.EfiShellGetEnvEx
                0x00000000000042d0      0x2c0 /tmp/Shell.dll.2u1FF2.ltrans0.ltrans.o
 .text.EfiShellGetEnv
                0x0000000000004590        0x8 /tmp/Shell.dll.2u1FF2.ltrans0.ltrans.o
                0x0000000000004590                EfiShellGetEnv
 .text.ProcessCommandLineToFinal
                0x0000000000004598      0x7ac /tmp/Shell.dll.2u1FF2.ltrans0.ltrans.o
 .text.RestoreBufferList
                0x0000000000004d44       0x3c /tmp/Shell.dll.2u1FF2.ltrans0.ltrans.o
                0x0000000000004d44                RestoreBufferList
 .text.ParseCommandLineToArgs
                0x0000000000004d80      0x1f8 /tmp/Shell.dll.2u1FF2.ltrans0.ltrans.o
                0x0000000000004d80                ParseCommandLineToArgs
 .text.InternalShellExecuteDevicePath
                0x0000000000004f78      0x434 /tmp/Shell.dll.2u1FF2.ltrans0.ltrans.o
 .text.RestoreArgcArgv
                0x00000000000053ac       0x9c /tmp/Shell.dll.2u1FF2.ltrans0.ltrans.o
                0x00000000000053ac                RestoreArgcArgv
 .text.InternalOpenFileDevicePath
                0x0000000000005448      0x204 /tmp/Shell.dll.2u1FF2.ltrans0.ltrans.o
                0x0000000000005448                InternalOpenFileDevicePath
 .text.EfiShellCreateFile
                0x000000000000564c       0xb8 /tmp/Shell.dll.2u1FF2.ltrans0.ltrans.o
 .text.EfiShellDeleteFileByName
                0x0000000000005704       0x40 /tmp/Shell.dll.2u1FF2.ltrans0.ltrans.o
 .text.EfiShellOpenFileByName
                0x0000000000005744      0x1b4 /tmp/Shell.dll.2u1FF2.ltrans0.ltrans.o
                0x0000000000005744                EfiShellOpenFileByName
 .text.InternalFreeShellFileInfoNode
                0x00000000000058f8       0x5c /tmp/Shell.dll.2u1FF2.ltrans0.ltrans.o
                0x00000000000058f8                InternalFreeShellFileInfoNode
 .text.EfiShellFreeFileList
                0x0000000000005954       0x80 /tmp/Shell.dll.2u1FF2.ltrans0.ltrans.o
 .text.EfiShellFindFilesInDir
                0x00000000000059d4      0x424 /tmp/Shell.dll.2u1FF2.ltrans0.ltrans.o
 .text.ShellSearchHandle
                0x0000000000005df8      0x384 /tmp/Shell.dll.2u1FF2.ltrans0.ltrans.o
 .text.EfiShellFindFiles
                0x000000000000617c      0x18c /tmp/Shell.dll.2u1FF2.ltrans0.ltrans.o
 .text.EfiShellOpenFileList
                0x0000000000006308      0x220 /tmp/Shell.dll.2u1FF2.ltrans0.ltrans.o
 .text.EfiShellRemoveDupInFileList
                0x0000000000006528      0x10c /tmp/Shell.dll.2u1FF2.ltrans0.ltrans.o
 .text.InternalEfiShellSetEnv
                0x0000000000006634      0x11c /tmp/Shell.dll.2u1FF2.ltrans0.ltrans.o
                0x0000000000006634                InternalEfiShellSetEnv
 .text.RunShellCommand
                0x0000000000006750     0x1c1c /tmp/Shell.dll.2u1FF2.ltrans0.ltrans.o
                0x0000000000006750                RunShellCommand
 .text._ModuleEntryPoint
                0x000000000000836c     0x1e4c /tmp/Shell.dll.2u1FF2.ltrans0.ltrans.o
                0x000000000000836c                _ModuleEntryPoint
 .text.RunSplitCommand
                0x000000000000a1b8      0x2c0 /tmp/Shell.dll.2u1FF2.ltrans0.ltrans.o
 .text.EfiShellExecute
                0x000000000000a478      0x2a0 /tmp/Shell.dll.2u1FF2.ltrans0.ltrans.o
 .text.EfiShellGetPageBreak
                0x000000000000a718        0xc /tmp/Shell.dll.2u1FF2.ltrans1.ltrans.o
                0x000000000000a718                EfiShellGetPageBreak
 .text.EfiShellIsRootShell
                0x000000000000a724        0xc /tmp/Shell.dll.2u1FF2.ltrans1.ltrans.o
                0x000000000000a724                EfiShellIsRootShell
 .text.NotificationFunction
                0x000000000000a730       0x98 /tmp/Shell.dll.2u1FF2.ltrans1.ltrans.o
                0x000000000000a730                NotificationFunction
 .text.FileInterfaceOpenNotFound
                0x000000000000a7c8        0xc /tmp/Shell.dll.2u1FF2.ltrans1.ltrans.o
                0x000000000000a7c8                FileInterfaceOpenNotFound
 .text.FileInterfaceNopGeneric
                0x000000000000a7d4        0x8 /tmp/Shell.dll.2u1FF2.ltrans1.ltrans.o
                0x000000000000a7d4                FileInterfaceNopGeneric
 .text.FileInterfaceNopGetPosition
                0x000000000000a7dc        0x8 /tmp/Shell.dll.2u1FF2.ltrans1.ltrans.o
                0x000000000000a7dc                FileInterfaceNopGetPosition
 .text.FileInterfaceNopSetPosition
                0x000000000000a7e4        0x8 /tmp/Shell.dll.2u1FF2.ltrans1.ltrans.o
                0x000000000000a7e4                FileInterfaceNopSetPosition
 .text.FileInterfaceNopGetInfo
                0x000000000000a7ec        0x8 /tmp/Shell.dll.2u1FF2.ltrans1.ltrans.o
                0x000000000000a7ec                FileInterfaceNopGetInfo
 .text.FileInterfaceNopSetInfo
                0x000000000000a7f4        0x8 /tmp/Shell.dll.2u1FF2.ltrans1.ltrans.o
                0x000000000000a7f4                FileInterfaceNopSetInfo
 .text.FileInterfaceStdOutWrite
                0x000000000000a7fc       0x44 /tmp/Shell.dll.2u1FF2.ltrans1.ltrans.o
                0x000000000000a7fc                FileInterfaceStdOutWrite
 .text.FileInterfaceStdInWrite
                0x000000000000a840        0x8 /tmp/Shell.dll.2u1FF2.ltrans1.ltrans.o
                0x000000000000a840                FileInterfaceStdInWrite
 .text.FileInterfaceStdErrWrite
                0x000000000000a848       0x1c /tmp/Shell.dll.2u1FF2.ltrans1.ltrans.o
                0x000000000000a848                FileInterfaceStdErrWrite
 .text.FileInterfaceStdOutRead
                0x000000000000a864        0x8 /tmp/Shell.dll.2u1FF2.ltrans1.ltrans.o
                0x000000000000a864                FileInterfaceStdOutRead
 .text.FileInterfaceStdErrRead
                0x000000000000a86c        0x8 /tmp/Shell.dll.2u1FF2.ltrans1.ltrans.o
                0x000000000000a86c                FileInterfaceStdErrRead
 .text.FileInterfaceNulRead
                0x000000000000a874        0xc /tmp/Shell.dll.2u1FF2.ltrans1.ltrans.o
                0x000000000000a874                FileInterfaceNulRead
 .text.FileInterfaceNulWrite
                0x000000000000a880        0x8 /tmp/Shell.dll.2u1FF2.ltrans1.ltrans.o
                0x000000000000a880                FileInterfaceNulWrite
 .text.FileInterfaceEnvRead
                0x000000000000a888       0x88 /tmp/Shell.dll.2u1FF2.ltrans1.ltrans.o
 .text.FileInterfaceMemSetPosition
                0x000000000000a910       0x24 /tmp/Shell.dll.2u1FF2.ltrans1.ltrans.o
 .text.FileInterfaceMemGetPosition
                0x000000000000a934       0x10 /tmp/Shell.dll.2u1FF2.ltrans1.ltrans.o
 .text.FileInterfaceFileSetPosition
                0x000000000000a944       0x10 /tmp/Shell.dll.2u1FF2.ltrans1.ltrans.o
                0x000000000000a944                FileInterfaceFileSetPosition
 .text.FileInterfaceFileGetPosition
                0x000000000000a954       0x10 /tmp/Shell.dll.2u1FF2.ltrans1.ltrans.o
                0x000000000000a954                FileInterfaceFileGetPosition
 .text.FileInterfaceFileGetInfo
                0x000000000000a964       0x10 /tmp/Shell.dll.2u1FF2.ltrans1.ltrans.o
                0x000000000000a964                FileInterfaceFileGetInfo
 .text.FileInterfaceFileSetInfo
                0x000000000000a974       0x10 /tmp/Shell.dll.2u1FF2.ltrans1.ltrans.o
                0x000000000000a974                FileInterfaceFileSetInfo
 .text.FileInterfaceFileFlush
                0x000000000000a984       0x10 /tmp/Shell.dll.2u1FF2.ltrans1.ltrans.o
                0x000000000000a984                FileInterfaceFileFlush
 .text.FileInterfaceFileOpen
                0x000000000000a994       0x10 /tmp/Shell.dll.2u1FF2.ltrans1.ltrans.o
                0x000000000000a994                FileInterfaceFileOpen
 .text.ConInWaitForKey
                0x000000000000a9a4       0x14 /tmp/Shell.dll.2u1FF2.ltrans1.ltrans.o
 .text.FileBasedSimpleTextInReset
                0x000000000000a9b8        0x8 /tmp/Shell.dll.2u1FF2.ltrans1.ltrans.o
 .text.FileBasedSimpleTextInReadKeyStroke
                0x000000000000a9c0       0x80 /tmp/Shell.dll.2u1FF2.ltrans1.ltrans.o
 .text.FileBasedSimpleTextOutReset
                0x000000000000aa40        0x8 /tmp/Shell.dll.2u1FF2.ltrans1.ltrans.o
 .text.FileBasedSimpleTextOutTestString
                0x000000000000aa48        0x8 /tmp/Shell.dll.2u1FF2.ltrans1.ltrans.o
                0x000000000000aa48                FileBasedSimpleTextOutTestString
 .text.FileBasedSimpleTextOutQueryMode
                0x000000000000aa50       0x10 /tmp/Shell.dll.2u1FF2.ltrans1.ltrans.o
 .text.FileBasedSimpleTextOutSetMode
                0x000000000000aa60        0x8 /tmp/Shell.dll.2u1FF2.ltrans1.ltrans.o
 .text.FileBasedSimpleTextOutSetAttribute
                0x000000000000aa68        0x8 /tmp/Shell.dll.2u1FF2.ltrans1.ltrans.o
 .text.FileBasedSimpleTextOutClearScreen
                0x000000000000aa70        0x8 /tmp/Shell.dll.2u1FF2.ltrans1.ltrans.o
 .text.FileBasedSimpleTextOutSetCursorPosition
                0x000000000000aa78        0x8 /tmp/Shell.dll.2u1FF2.ltrans1.ltrans.o
 .text.FileBasedSimpleTextOutEnableCursor
                0x000000000000aa80        0x8 /tmp/Shell.dll.2u1FF2.ltrans1.ltrans.o
 .text.SplitStr
                0x000000000000aa88       0x48 /tmp/Shell.dll.2u1FF2.ltrans1.ltrans.o
 .text.IsHexStr
                0x000000000000aad0       0x38 /tmp/Shell.dll.2u1FF2.ltrans1.ltrans.o
 .text.DebugAssertEnabled
                0x000000000000ab08        0x8 /tmp/Shell.dll.2u1FF2.ltrans1.ltrans.o
                0x000000000000ab08                DebugAssertEnabled
 .text.InternalSafeStringIsOverlap
                0x000000000000ab10       0x3c /tmp/Shell.dll.2u1FF2.ltrans1.ltrans.o
                0x000000000000ab10                InternalSafeStringIsOverlap
 .text.DebugPrintLevelEnabled
                0x000000000000ab4c        0x8 /tmp/Shell.dll.2u1FF2.ltrans1.ltrans.o
                0x000000000000ab4c                DebugPrintLevelEnabled
 .text.AsciiStrnLenS
                0x000000000000ab54       0x3c /tmp/Shell.dll.2u1FF2.ltrans1.ltrans.o
                0x000000000000ab54                AsciiStrnLenS
 .text.CharToUpper
                0x000000000000ab90       0x20 /tmp/Shell.dll.2u1FF2.ltrans1.ltrans.o
                0x000000000000ab90                CharToUpper
 .text.InternalHexCharToUintn
                0x000000000000abb0       0x3c /tmp/Shell.dll.2u1FF2.ltrans1.ltrans.o
                0x000000000000abb0                InternalHexCharToUintn
 .text.InternalIsHexaDecimalDigitCharacter
                0x000000000000abec       0x34 /tmp/Shell.dll.2u1FF2.ltrans1.ltrans.o
                0x000000000000abec                InternalIsHexaDecimalDigitCharacter
 .text.MultU64x32
                0x000000000000ac20        0xc /tmp/Shell.dll.2u1FF2.ltrans1.ltrans.o
                0x000000000000ac20                MultU64x32
 .text.StrHexToUint64
                0x000000000000ac2c       0x1c /tmp/Shell.dll.2u1FF2.ltrans1.ltrans.o
                0x000000000000ac2c                StrHexToUint64
 .text.PathRemoveLastItem
                0x000000000000ac48       0x5c /tmp/Shell.dll.2u1FF2.ltrans1.ltrans.o
                0x000000000000ac48                PathRemoveLastItem
 .text.SwapBytes32
                0x000000000000aca4        0x8 /tmp/Shell.dll.2u1FF2.ltrans1.ltrans.o
                0x000000000000aca4                SwapBytes32
 .text.AsciiSPrint
                0x000000000000acac       0x60 /tmp/Shell.dll.2u1FF2.ltrans1.ltrans.o
                0x000000000000acac                AsciiSPrint
 .text.BasePrintLibFillBuffer
                0x000000000000ad0c       0x34 /tmp/Shell.dll.2u1FF2.ltrans1.ltrans.o
                0x000000000000ad0c                BasePrintLibFillBuffer
 .text.BasePrintLibValueToString
                0x000000000000ad40       0x58 /tmp/Shell.dll.2u1FF2.ltrans1.ltrans.o
                0x000000000000ad40                BasePrintLibValueToString
 .text.BaseDebugLibSerialPortConstructor
                0x000000000000ad98       0xdc /tmp/Shell.dll.2u1FF2.ltrans1.ltrans.o
                0x000000000000ad98                BaseDebugLibSerialPortConstructor
 .text.DebugAssert
                0x000000000000ae74       0x50 /tmp/Shell.dll.2u1FF2.ltrans1.ltrans.o
                0x000000000000ae74                DebugAssert
 .text.ConsoleLoggerTestString
                0x000000000000aec4       0x70 /tmp/Shell.dll.2u1FF2.ltrans1.ltrans.o
                0x000000000000aec4                ConsoleLoggerTestString
 .text.ConsoleLoggerQueryMode
                0x000000000000af34       0x88 /tmp/Shell.dll.2u1FF2.ltrans1.ltrans.o
                0x000000000000af34                ConsoleLoggerQueryMode
 .text.ConsoleLoggerSetAttribute
                0x000000000000afbc       0x78 /tmp/Shell.dll.2u1FF2.ltrans1.ltrans.o
                0x000000000000afbc                ConsoleLoggerSetAttribute
 .text.ConsoleLoggerClearScreen
                0x000000000000b034      0x104 /tmp/Shell.dll.2u1FF2.ltrans1.ltrans.o
                0x000000000000b034                ConsoleLoggerClearScreen
 .text.ConsoleLoggerSetCursorPosition
                0x000000000000b138       0xa4 /tmp/Shell.dll.2u1FF2.ltrans1.ltrans.o
                0x000000000000b138                ConsoleLoggerSetCursorPosition
 .text.ConsoleLoggerEnableCursor
                0x000000000000b1dc       0x78 /tmp/Shell.dll.2u1FF2.ltrans1.ltrans.o
                0x000000000000b1dc                ConsoleLoggerEnableCursor
 .text.CopyGuid
                0x000000000000b254       0x64 /tmp/Shell.dll.2u1FF2.ltrans1.ltrans.o
                0x000000000000b254                CopyGuid
 .text.CompareGuid
                0x000000000000b2b8       0x60 /tmp/Shell.dll.2u1FF2.ltrans1.ltrans.o
                0x000000000000b2b8                CompareGuid
 .text.ZeroMem  0x000000000000b318       0x74 /tmp/Shell.dll.2u1FF2.ltrans1.ltrans.o
                0x000000000000b318                ZeroMem
 .text.FileInterfaceMemGetInfo
                0x000000000000b38c       0x94 /tmp/Shell.dll.2u1FF2.ltrans1.ltrans.o
 .text.CopyMem  0x000000000000b420       0xa4 /tmp/Shell.dll.2u1FF2.ltrans1.ltrans.o
                0x000000000000b420                CopyMem
 .text.FileInterfaceMemRead
                0x000000000000b4c4       0x64 /tmp/Shell.dll.2u1FF2.ltrans1.ltrans.o
 .text.AppendStringToHistory
                0x000000000000b528      0x32c /tmp/Shell.dll.2u1FF2.ltrans1.ltrans.o
 .text.ConsoleLoggerOutputStringSplit
                0x000000000000b854       0x48 /tmp/Shell.dll.2u1FF2.ltrans1.ltrans.o
 .text.InternalBaseLibIsListValid
                0x000000000000b89c       0xb0 /tmp/Shell.dll.2u1FF2.ltrans1.ltrans.o
 .text.InsertHeadList
                0x000000000000b94c       0x58 /tmp/Shell.dll.2u1FF2.ltrans1.ltrans.o
                0x000000000000b94c                InsertHeadList
 .text.InsertTailList
                0x000000000000b9a4       0x5c /tmp/Shell.dll.2u1FF2.ltrans1.ltrans.o
                0x000000000000b9a4                InsertTailList
 .text.GetFirstNode
                0x000000000000ba00       0x44 /tmp/Shell.dll.2u1FF2.ltrans1.ltrans.o
                0x000000000000ba00                GetFirstNode
 .text.GetNextNode
                0x000000000000ba44       0x44 /tmp/Shell.dll.2u1FF2.ltrans1.ltrans.o
                0x000000000000ba44                GetNextNode
 .text.GetPreviousNode
                0x000000000000ba88       0x44 /tmp/Shell.dll.2u1FF2.ltrans1.ltrans.o
                0x000000000000ba88                GetPreviousNode
 .text.IsListEmpty
                0x000000000000bacc       0x4c /tmp/Shell.dll.2u1FF2.ltrans1.ltrans.o
                0x000000000000bacc                IsListEmpty
 .text.EfiShellGetCurDir
                0x000000000000bb18       0xd0 /tmp/Shell.dll.2u1FF2.ltrans1.ltrans.o
                0x000000000000bb18                EfiShellGetCurDir
 .text.IsNull   0x000000000000bbe8       0x4c /tmp/Shell.dll.2u1FF2.ltrans1.ltrans.o
                0x000000000000bbe8                IsNull
 .text.IsNodeAtEnd
                0x000000000000bc34       0x6c /tmp/Shell.dll.2u1FF2.ltrans1.ltrans.o
                0x000000000000bc34                IsNodeAtEnd
 .text.RemoveEntryList
                0x000000000000bca0       0x50 /tmp/Shell.dll.2u1FF2.ltrans1.ltrans.o
                0x000000000000bca0                RemoveEntryList
 .text.SwapListEntries
                0x000000000000bcf0       0xb0 /tmp/Shell.dll.2u1FF2.ltrans1.ltrans.o
                0x000000000000bcf0                SwapListEntries
 .text.StrnLenS
                0x000000000000bda0       0x70 /tmp/Shell.dll.2u1FF2.ltrans1.ltrans.o
                0x000000000000bda0                StrnLenS
 .text.StrLen   0x000000000000be10       0xa4 /tmp/Shell.dll.2u1FF2.ltrans1.ltrans.o
                0x000000000000be10                StrLen
 .text.FileBasedSimpleTextOutOutputString
                0x000000000000beb4       0x4c /tmp/Shell.dll.2u1FF2.ltrans1.ltrans.o
 .text.StrSize  0x000000000000bf00       0x1c /tmp/Shell.dll.2u1FF2.ltrans1.ltrans.o
                0x000000000000bf00                StrSize
 .text.StrCmp   0x000000000000bf1c       0x88 /tmp/Shell.dll.2u1FF2.ltrans1.ltrans.o
                0x000000000000bf1c                StrCmp
 .text.EfiShellSetEnv
                0x000000000000bfa4       0xfc /tmp/Shell.dll.2u1FF2.ltrans1.ltrans.o
                0x000000000000bfa4                EfiShellSetEnv
 .text.StrnCmp  0x000000000000c0a0       0xd4 /tmp/Shell.dll.2u1FF2.ltrans1.ltrans.o
                0x000000000000c0a0                StrnCmp
 .text.StrStr   0x000000000000c174       0xa8 /tmp/Shell.dll.2u1FF2.ltrans1.ltrans.o
                0x000000000000c174                StrStr
 .text.PathCleanUpDirectories
                0x000000000000c21c      0x170 /tmp/Shell.dll.2u1FF2.ltrans1.ltrans.o
                0x000000000000c21c                PathCleanUpDirectories
 .text.AsciiStrLen
                0x000000000000c38c       0x90 /tmp/Shell.dll.2u1FF2.ltrans1.ltrans.o
                0x000000000000c38c                AsciiStrLen
 .text.AsciiStrSize
                0x000000000000c41c       0x18 /tmp/Shell.dll.2u1FF2.ltrans1.ltrans.o
 .text.AsciiStrnCmp
                0x000000000000c434       0xd4 /tmp/Shell.dll.2u1FF2.ltrans1.ltrans.o
                0x000000000000c434                AsciiStrnCmp
 .text.RShiftU64
                0x000000000000c508        0x8 /tmp/Shell.dll.2u1FF2.ltrans1.ltrans.o
                0x000000000000c508                RShiftU64
 .text.LShiftU64
                0x000000000000c510        0x8 /tmp/Shell.dll.2u1FF2.ltrans1.ltrans.o
                0x000000000000c510                LShiftU64
 .text.DivU64x32
                0x000000000000c518        0xc /tmp/Shell.dll.2u1FF2.ltrans1.ltrans.o
                0x000000000000c518                DivU64x32
 .text.UnicodeVSPrint
                0x000000000000c524       0x90 /tmp/Shell.dll.2u1FF2.ltrans1.ltrans.o
                0x000000000000c524                UnicodeVSPrint
 .text.UnicodeSPrint
                0x000000000000c5b4       0x50 /tmp/Shell.dll.2u1FF2.ltrans1.ltrans.o
                0x000000000000c5b4                UnicodeSPrint
 .text.SPrintLength
                0x000000000000c604       0x64 /tmp/Shell.dll.2u1FF2.ltrans1.ltrans.o
                0x000000000000c604                SPrintLength
 .text.DebugPrint
                0x000000000000c668       0x98 /tmp/Shell.dll.2u1FF2.ltrans1.ltrans.o
                0x000000000000c668                DebugPrint
 .text.DebugPrintEnabled
                0x000000000000c700        0x8 /tmp/Shell.dll.2u1FF2.ltrans1.ltrans.o
                0x000000000000c700                DebugPrintEnabled
 .text.StrCatS  0x000000000000c708      0x2a0 /tmp/Shell.dll.2u1FF2.ltrans1.ltrans.o
                0x000000000000c708                StrCatS
 .text.StrnCatS
                0x000000000000c9a8      0x2fc /tmp/Shell.dll.2u1FF2.ltrans1.ltrans.o
                0x000000000000c9a8                StrnCatS
 .text.StrDecimalToUintnS
                0x000000000000cca4      0x184 /tmp/Shell.dll.2u1FF2.ltrans1.ltrans.o
                0x000000000000cca4                StrDecimalToUintnS
 .text.StrDecimalToUintn
                0x000000000000ce28       0x20 /tmp/Shell.dll.2u1FF2.ltrans1.ltrans.o
 .text.StrHexToUintnS
                0x000000000000ce48      0x1a8 /tmp/Shell.dll.2u1FF2.ltrans1.ltrans.o
                0x000000000000ce48                StrHexToUintnS
 .text.StrHexToUintn
                0x000000000000cff0       0x20 /tmp/Shell.dll.2u1FF2.ltrans1.ltrans.o
 .text.EisaIdFromText
                0x000000000000d010       0x44 /tmp/Shell.dll.2u1FF2.ltrans1.ltrans.o
 .text.StrHexToBytes
                0x000000000000d054      0x1f8 /tmp/Shell.dll.2u1FF2.ltrans1.ltrans.o
                0x000000000000d054                StrHexToBytes
 .text.StrToGuid
                0x000000000000d24c      0x170 /tmp/Shell.dll.2u1FF2.ltrans1.ltrans.o
                0x000000000000d24c                StrToGuid
 .text.StrDecimalToUint64
                0x000000000000d3bc      0x13c /tmp/Shell.dll.2u1FF2.ltrans1.ltrans.o
 .text.DebugCodeEnabled
                0x000000000000d4f8        0x8 /tmp/Shell.dll.2u1FF2.ltrans1.ltrans.o
                0x000000000000d4f8                DebugCodeEnabled
 .text.AllocatePool
                0x000000000000d500        0x4 /tmp/Shell.dll.2u1FF2.ltrans1.ltrans.o
                0x000000000000d500                AllocatePool
 .text.AllocateZeroPool
                0x000000000000d504       0x34 /tmp/Shell.dll.2u1FF2.ltrans1.ltrans.o
                0x000000000000d504                AllocateZeroPool
 .text.AllocateCopyPool
                0x000000000000d538       0x8c /tmp/Shell.dll.2u1FF2.ltrans1.ltrans.o
                0x000000000000d538                AllocateCopyPool
 .text.FreePool
                0x000000000000d5c4       0x7c /tmp/Shell.dll.2u1FF2.ltrans1.ltrans.o
                0x000000000000d5c4                FreePool
 .text.EfiShellSetCurDir
                0x000000000000d640      0x488 /tmp/Shell.dll.2u1FF2.ltrans1.ltrans.o
                0x000000000000d640                EfiShellSetCurDir
 .text.EfiShellGetHelpText
                0x000000000000dac8      0x27c /tmp/Shell.dll.2u1FF2.ltrans1.ltrans.o
                0x000000000000dac8                EfiShellGetHelpText
 .text.EfiShellGetAlias
                0x000000000000dd44      0x2a4 /tmp/Shell.dll.2u1FF2.ltrans1.ltrans.o
                0x000000000000dd44                EfiShellGetAlias
 .text.InternalSetAlias
                0x000000000000dfe8      0x10c /tmp/Shell.dll.2u1FF2.ltrans1.ltrans.o
                0x000000000000dfe8                InternalSetAlias
 .text.EfiShellSetAlias
                0x000000000000e0f4       0x9c /tmp/Shell.dll.2u1FF2.ltrans1.ltrans.o
                0x000000000000e0f4                EfiShellSetAlias
 .text.FileInterfaceStdInRead
                0x000000000000e190      0xd30 /tmp/Shell.dll.2u1FF2.ltrans1.ltrans.o
                0x000000000000e190                FileInterfaceStdInRead
 .text.FileInterfaceMemClose
                0x000000000000eec0       0x38 /tmp/Shell.dll.2u1FF2.ltrans1.ltrans.o
 .text.CreateFileInterfaceMem
                0x000000000000eef8      0x14c /tmp/Shell.dll.2u1FF2.ltrans1.ltrans.o
                0x000000000000eef8                CreateFileInterfaceMem
 .text.FileInterfaceFileRead
                0x000000000000f044      0x14c /tmp/Shell.dll.2u1FF2.ltrans1.ltrans.o
                0x000000000000f044                FileInterfaceFileRead
 .text.FileInterfaceFileDelete
                0x000000000000f190       0x38 /tmp/Shell.dll.2u1FF2.ltrans1.ltrans.o
                0x000000000000f190                FileInterfaceFileDelete
 .text.FileInterfaceFileClose
                0x000000000000f1c8       0x38 /tmp/Shell.dll.2u1FF2.ltrans1.ltrans.o
                0x000000000000f1c8                FileInterfaceFileClose
 .text.FileInterfaceFileWrite
                0x000000000000f200       0xa4 /tmp/Shell.dll.2u1FF2.ltrans1.ltrans.o
                0x000000000000f200                FileInterfaceFileWrite
 .text.IsVolatileEnv
                0x000000000000f2a4       0xec /tmp/Shell.dll.2u1FF2.ltrans1.ltrans.o
                0x000000000000f2a4                IsVolatileEnv
 .text.CreateFileInterfaceEnv
                0x000000000000f390      0x100 /tmp/Shell.dll.2u1FF2.ltrans1.ltrans.o
                0x000000000000f390                CreateFileInterfaceEnv
 .text.FreeEnvironmentVariableList
                0x000000000000f490       0xe4 /tmp/Shell.dll.2u1FF2.ltrans1.ltrans.o
                0x000000000000f490                FreeEnvironmentVariableList
 .text.GetEnvironmentVariableList
                0x000000000000f574      0x25c /tmp/Shell.dll.2u1FF2.ltrans1.ltrans.o
                0x000000000000f574                GetEnvironmentVariableList
 .text.SetEnvironmentVariableList
                0x000000000000f7d0      0x24c /tmp/Shell.dll.2u1FF2.ltrans1.ltrans.o
                0x000000000000f7d0                SetEnvironmentVariableList
 .text.ShellAddEnvVarToList
                0x000000000000fa1c      0x118 /tmp/Shell.dll.2u1FF2.ltrans1.ltrans.o
                0x000000000000fa1c                ShellAddEnvVarToList
 .text.FileInterfaceEnvClose
                0x000000000000fb34      0x18c /tmp/Shell.dll.2u1FF2.ltrans1.ltrans.o
 .text.FileInterfaceEnvDelete
                0x000000000000fcc0       0x48 /tmp/Shell.dll.2u1FF2.ltrans1.ltrans.o
 .text.FileInterfaceEnvVolWrite
                0x000000000000fd08      0x180 /tmp/Shell.dll.2u1FF2.ltrans1.ltrans.o
 .text.FileInterfaceEnvNonVolWrite
                0x000000000000fe88      0x180 /tmp/Shell.dll.2u1FF2.ltrans1.ltrans.o
 .text.ManFileFindSections
                0x0000000000010008      0x20c /tmp/Shell.dll.2u1FF2.ltrans1.ltrans.o
                0x0000000000010008                ManFileFindSections
 .text.ConsoleLoggerOutputString
                0x0000000000010214      0x434 /tmp/Shell.dll.2u1FF2.ltrans1.ltrans.o
                0x0000000000010214                ConsoleLoggerOutputString
 .text.ConsoleLoggerResetBuffers
                0x0000000000010648       0xdc /tmp/Shell.dll.2u1FF2.ltrans1.ltrans.o
                0x0000000000010648                ConsoleLoggerResetBuffers
 .text.ConsoleLoggerReset
                0x0000000000010724       0x94 /tmp/Shell.dll.2u1FF2.ltrans1.ltrans.o
                0x0000000000010724                ConsoleLoggerReset
 .text.ConsoleLoggerSetMode
                0x00000000000107b8       0xa0 /tmp/Shell.dll.2u1FF2.ltrans1.ltrans.o
                0x00000000000107b8                ConsoleLoggerSetMode
 .text.CreateSimpleTextInOnFile
                0x0000000000010858       0xf4 /tmp/Shell.dll.2u1FF2.ltrans1.ltrans.o
                0x0000000000010858                CreateSimpleTextInOnFile
 .text.CreateSimpleTextOutOnFile
                0x000000000001094c      0x18c /tmp/Shell.dll.2u1FF2.ltrans1.ltrans.o
                0x000000000001094c                CreateSimpleTextOutOnFile
 .text.ReallocatePool
                0x0000000000010ad8       0x70 /tmp/Shell.dll.2u1FF2.ltrans1.ltrans.o
                0x0000000000010ad8                ReallocatePool
 .text.FileInterfaceMemWrite
                0x0000000000010b48      0x17c /tmp/Shell.dll.2u1FF2.ltrans1.ltrans.o
 .text.DevicePathType
                0x0000000000010cc4       0x48 /tmp/Shell.dll.2u1FF2.ltrans1.ltrans.o
                0x0000000000010cc4                DevicePathType
 .text.DevicePathSubType
                0x0000000000010d0c       0x48 /tmp/Shell.dll.2u1FF2.ltrans1.ltrans.o
                0x0000000000010d0c                DevicePathSubType
 .text.DevicePathNodeLength
                0x0000000000010d54       0x50 /tmp/Shell.dll.2u1FF2.ltrans1.ltrans.o
                0x0000000000010d54                DevicePathNodeLength
 .text.NextDevicePathNode
                0x0000000000010da4       0x50 /tmp/Shell.dll.2u1FF2.ltrans1.ltrans.o
                0x0000000000010da4                NextDevicePathNode
 .text.IsDevicePathEndType
                0x0000000000010df4       0x58 /tmp/Shell.dll.2u1FF2.ltrans1.ltrans.o
                0x0000000000010df4                IsDevicePathEndType
 .text.IsDevicePathEnd
                0x0000000000010e4c       0x70 /tmp/Shell.dll.2u1FF2.ltrans1.ltrans.o
                0x0000000000010e4c                IsDevicePathEnd
 .text.SetDevicePathEndNode
                0x0000000000010ebc       0x54 /tmp/Shell.dll.2u1FF2.ltrans1.ltrans.o
                0x0000000000010ebc                SetDevicePathEndNode
 .text.UefiDevicePathLibGetDevicePathSize
                0x0000000000010f10       0x6c /tmp/Shell.dll.2u1FF2.ltrans1.ltrans.o
                0x0000000000010f10                UefiDevicePathLibGetDevicePathSize
 .text.UefiDevicePathLibDuplicateDevicePath
                0x0000000000010f7c       0x34 /tmp/Shell.dll.2u1FF2.ltrans1.ltrans.o
                0x0000000000010f7c                UefiDevicePathLibDuplicateDevicePath
 .text.UefiDevicePathLibAppendDevicePath
                0x0000000000010fb0       0xc4 /tmp/Shell.dll.2u1FF2.ltrans1.ltrans.o
                0x0000000000010fb0                UefiDevicePathLibAppendDevicePath
 .text.UefiDevicePathLibAppendDevicePathNode
                0x0000000000011074       0x9c /tmp/Shell.dll.2u1FF2.ltrans1.ltrans.o
                0x0000000000011074                UefiDevicePathLibAppendDevicePathNode
 .text.UefiDevicePathLibCreateDeviceNode
                0x0000000000011110       0x64 /tmp/Shell.dll.2u1FF2.ltrans1.ltrans.o
                0x0000000000011110                UefiDevicePathLibCreateDeviceNode
 .text.DevPathFromTextVenPcAnsi
                0x0000000000011174       0x40 /tmp/Shell.dll.2u1FF2.ltrans1.ltrans.o
                0x0000000000011174                DevPathFromTextVenPcAnsi
 .text.DevPathFromTextVenVt100
                0x00000000000111b4       0x40 /tmp/Shell.dll.2u1FF2.ltrans1.ltrans.o
                0x00000000000111b4                DevPathFromTextVenVt100
 .text.DevPathFromTextVenVt100Plus
                0x00000000000111f4       0x40 /tmp/Shell.dll.2u1FF2.ltrans1.ltrans.o
                0x00000000000111f4                DevPathFromTextVenVt100Plus
 .text.DevPathFromTextVenUtf8
                0x0000000000011234       0x40 /tmp/Shell.dll.2u1FF2.ltrans1.ltrans.o
                0x0000000000011234                DevPathFromTextVenUtf8
 .text.DevPathFromTextDebugPort
                0x0000000000011274       0x40 /tmp/Shell.dll.2u1FF2.ltrans1.ltrans.o
                0x0000000000011274                DevPathFromTextDebugPort
 .text.DevicePathFromHandle
                0x00000000000112b4       0x38 /tmp/Shell.dll.2u1FF2.ltrans1.ltrans.o
                0x00000000000112b4                DevicePathFromHandle
 .text.FileDevicePath
                0x00000000000112ec       0xa0 /tmp/Shell.dll.2u1FF2.ltrans1.ltrans.o
                0x00000000000112ec                FileDevicePath
 .text.UefiDevicePathLibCatPrint
                0x000000000001138c      0x150 /tmp/Shell.dll.2u1FF2.ltrans1.ltrans.o
                0x000000000001138c                UefiDevicePathLibCatPrint
 .text.DevPathToTextPci
                0x00000000000114dc       0x14 /tmp/Shell.dll.2u1FF2.ltrans1.ltrans.o
 .text.DevPathToTextPccard
                0x00000000000114f0       0x10 /tmp/Shell.dll.2u1FF2.ltrans1.ltrans.o
 .text.DevPathToTextMemMap
                0x0000000000011500       0x14 /tmp/Shell.dll.2u1FF2.ltrans1.ltrans.o
 .text.DevPathToTextVendor
                0x0000000000011514      0x354 /tmp/Shell.dll.2u1FF2.ltrans1.ltrans.o
 .text.DevPathToTextController
                0x0000000000011868       0x10 /tmp/Shell.dll.2u1FF2.ltrans1.ltrans.o
 .text.DevPathToTextBmc
                0x0000000000011878       0x3c /tmp/Shell.dll.2u1FF2.ltrans1.ltrans.o
 .text.DevPathToTextAcpi
                0x00000000000118b4       0xc0 /tmp/Shell.dll.2u1FF2.ltrans1.ltrans.o
 .text.DevPathToTextAcpiEx
                0x0000000000011974      0x298 /tmp/Shell.dll.2u1FF2.ltrans1.ltrans.o
 .text.DevPathToTextAcpiAdr
                0x0000000000011c0c       0x9c /tmp/Shell.dll.2u1FF2.ltrans1.ltrans.o
 .text.DevPathToTextAtapi
                0x0000000000011ca8       0x60 /tmp/Shell.dll.2u1FF2.ltrans1.ltrans.o
 .text.DevPathToTextScsi
                0x0000000000011d08       0x14 /tmp/Shell.dll.2u1FF2.ltrans1.ltrans.o
 .text.DevPathToTextFibre
                0x0000000000011d1c       0x10 /tmp/Shell.dll.2u1FF2.ltrans1.ltrans.o
 .text.DevPathToTextFibreEx
                0x0000000000011d2c       0xa8 /tmp/Shell.dll.2u1FF2.ltrans1.ltrans.o
 .text.DevPathToTextSasEx
                0x0000000000011dd4      0x18c /tmp/Shell.dll.2u1FF2.ltrans1.ltrans.o
 .text.DevPathToTextNVMe
                0x0000000000011f60       0x54 /tmp/Shell.dll.2u1FF2.ltrans1.ltrans.o
 .text.DevPathToTextUfs
                0x0000000000011fb4       0x14 /tmp/Shell.dll.2u1FF2.ltrans1.ltrans.o
 .text.DevPathToTextSd
                0x0000000000011fc8       0x10 /tmp/Shell.dll.2u1FF2.ltrans1.ltrans.o
 .text.DevPathToTextEmmc
                0x0000000000011fd8       0x10 /tmp/Shell.dll.2u1FF2.ltrans1.ltrans.o
 .text.DevPathToText1394
                0x0000000000011fe8       0x10 /tmp/Shell.dll.2u1FF2.ltrans1.ltrans.o
 .text.DevPathToTextUsb
                0x0000000000011ff8       0x14 /tmp/Shell.dll.2u1FF2.ltrans1.ltrans.o
 .text.DevPathToTextUsbWWID
                0x000000000001200c       0xb4 /tmp/Shell.dll.2u1FF2.ltrans1.ltrans.o
 .text.DevPathToTextLogicalUnit
                0x00000000000120c0       0x10 /tmp/Shell.dll.2u1FF2.ltrans1.ltrans.o
 .text.DevPathToTextUsbClass
                0x00000000000120d0      0x194 /tmp/Shell.dll.2u1FF2.ltrans1.ltrans.o
 .text.DevPathToTextSata
                0x0000000000012264       0x18 /tmp/Shell.dll.2u1FF2.ltrans1.ltrans.o
 .text.DevPathToTextI2O
                0x000000000001227c       0x10 /tmp/Shell.dll.2u1FF2.ltrans1.ltrans.o
 .text.DevPathToTextMacAddr
                0x000000000001228c       0x8c /tmp/Shell.dll.2u1FF2.ltrans1.ltrans.o
 .text.CatNetworkProtocol
                0x0000000000012318       0x38 /tmp/Shell.dll.2u1FF2.ltrans1.ltrans.o
 .text.CatIPv6Address
                0x0000000000012350       0x8c /tmp/Shell.dll.2u1FF2.ltrans1.ltrans.o
 .text.DevPathToTextIPv4
                0x00000000000123dc      0x120 /tmp/Shell.dll.2u1FF2.ltrans1.ltrans.o
 .text.DevPathToTextIPv6
                0x00000000000124fc       0xe8 /tmp/Shell.dll.2u1FF2.ltrans1.ltrans.o
 .text.DevPathToTextInfiniBand
                0x00000000000125e4       0x1c /tmp/Shell.dll.2u1FF2.ltrans1.ltrans.o
 .text.DevPathToTextUart
                0x0000000000012600      0x118 /tmp/Shell.dll.2u1FF2.ltrans1.ltrans.o
 .text.DevPathToTextiSCSI
                0x0000000000012718      0x10c /tmp/Shell.dll.2u1FF2.ltrans1.ltrans.o
 .text.DevPathToTextVlan
                0x0000000000012824       0x10 /tmp/Shell.dll.2u1FF2.ltrans1.ltrans.o
 .text.DevPathToTextBluetooth
                0x0000000000012834       0x24 /tmp/Shell.dll.2u1FF2.ltrans1.ltrans.o
 .text.DevPathToTextWiFi
                0x0000000000012858       0x44 /tmp/Shell.dll.2u1FF2.ltrans1.ltrans.o
 .text.DevPathToTextBluetoothLE
                0x000000000001289c       0x44 /tmp/Shell.dll.2u1FF2.ltrans1.ltrans.o
 .text.DevPathToTextDns
                0x00000000000128e0       0xd0 /tmp/Shell.dll.2u1FF2.ltrans1.ltrans.o
 .text.DevPathToTextUri
                0x00000000000129b0       0x94 /tmp/Shell.dll.2u1FF2.ltrans1.ltrans.o
 .text.DevPathToTextHardDrive
                0x0000000000012a44       0x8c /tmp/Shell.dll.2u1FF2.ltrans1.ltrans.o
 .text.DevPathToTextCDROM
                0x0000000000012ad0       0x30 /tmp/Shell.dll.2u1FF2.ltrans1.ltrans.o
 .text.DevPathToTextFilePath
                0x0000000000012b00       0x10 /tmp/Shell.dll.2u1FF2.ltrans1.ltrans.o
 .text.DevPathToTextMediaProtocol
                0x0000000000012b10       0x10 /tmp/Shell.dll.2u1FF2.ltrans1.ltrans.o
 .text.DevPathToTextFv
                0x0000000000012b20       0x10 /tmp/Shell.dll.2u1FF2.ltrans1.ltrans.o
 .text.DevPathToTextFvFile
                0x0000000000012b30       0x10 /tmp/Shell.dll.2u1FF2.ltrans1.ltrans.o
 .text.DevPathRelativeOffsetRange
                0x0000000000012b40       0x10 /tmp/Shell.dll.2u1FF2.ltrans1.ltrans.o
 .text.DevPathToTextRamDisk
                0x0000000000012b50      0x18c /tmp/Shell.dll.2u1FF2.ltrans1.ltrans.o
 .text.DevPathToTextBBS
                0x0000000000012cdc       0xa0 /tmp/Shell.dll.2u1FF2.ltrans1.ltrans.o
 .text.DevPathToTextEndInstance
                0x0000000000012d7c        0xc /tmp/Shell.dll.2u1FF2.ltrans1.ltrans.o
 .text.DevPathToTextNodeGeneric
                0x0000000000012d88       0xfc /tmp/Shell.dll.2u1FF2.ltrans1.ltrans.o
 .text.UefiDevicePathLibConvertDevicePathToText
                0x0000000000012e84      0x13c /tmp/Shell.dll.2u1FF2.ltrans1.ltrans.o
                0x0000000000012e84                UefiDevicePathLibConvertDevicePathToText
 .text.UefiDevicePathLibStrDuplicate
                0x0000000000012fc0       0x24 /tmp/Shell.dll.2u1FF2.ltrans1.ltrans.o
                0x0000000000012fc0                UefiDevicePathLibStrDuplicate
 .text.GetNextParamStr
                0x0000000000012fe4        0x8 /tmp/Shell.dll.2u1FF2.ltrans1.ltrans.o
                0x0000000000012fe4                GetNextParamStr
 .text.DevPathFromText1394
                0x0000000000012fec       0x50 /tmp/Shell.dll.2u1FF2.ltrans1.ltrans.o
                0x0000000000012fec                DevPathFromText1394
 .text.DevPathFromTextUartFlowCtrl
                0x000000000001303c       0x88 /tmp/Shell.dll.2u1FF2.ltrans1.ltrans.o
                0x000000000001303c                DevPathFromTextUartFlowCtrl
 .text.DevPathFromTextBluetooth
                0x00000000000130c4       0x54 /tmp/Shell.dll.2u1FF2.ltrans1.ltrans.o
                0x00000000000130c4                DevPathFromTextBluetooth
 .text.DevPathFromTextWiFi
                0x0000000000013118       0x8c /tmp/Shell.dll.2u1FF2.ltrans1.ltrans.o
                0x0000000000013118                DevPathFromTextWiFi
 .text.DevPathFromTextDns
                0x00000000000131a4      0x104 /tmp/Shell.dll.2u1FF2.ltrans1.ltrans.o
                0x00000000000131a4                DevPathFromTextDns
 .text.DevPathFromTextUri
                0x00000000000132a8       0x60 /tmp/Shell.dll.2u1FF2.ltrans1.ltrans.o
                0x00000000000132a8                DevPathFromTextUri
 .text.Strtoi   0x0000000000013308       0x2c /tmp/Shell.dll.2u1FF2.ltrans1.ltrans.o
                0x0000000000013308                Strtoi
 .text.DevPathFromTextPci
                0x0000000000013334       0x6c /tmp/Shell.dll.2u1FF2.ltrans1.ltrans.o
                0x0000000000013334                DevPathFromTextPci
 .text.DevPathFromTextPcCard
                0x00000000000133a0       0x4c /tmp/Shell.dll.2u1FF2.ltrans1.ltrans.o
                0x00000000000133a0                DevPathFromTextPcCard
 .text.DevPathFromTextCtrl
                0x00000000000133ec       0x4c /tmp/Shell.dll.2u1FF2.ltrans1.ltrans.o
                0x00000000000133ec                DevPathFromTextCtrl
 .text.DevPathFromTextBmc
                0x0000000000013438       0x74 /tmp/Shell.dll.2u1FF2.ltrans1.ltrans.o
                0x0000000000013438                DevPathFromTextBmc
 .text.DevPathFromTextAcpi
                0x00000000000134ac       0x6c /tmp/Shell.dll.2u1FF2.ltrans1.ltrans.o
                0x00000000000134ac                DevPathFromTextAcpi
 .text.ConvertFromTextAcpi
                0x0000000000013518       0x64 /tmp/Shell.dll.2u1FF2.ltrans1.ltrans.o
 .text.DevPathFromTextPciRoot
                0x000000000001357c        0x8 /tmp/Shell.dll.2u1FF2.ltrans1.ltrans.o
                0x000000000001357c                DevPathFromTextPciRoot
 .text.DevPathFromTextPcieRoot
                0x0000000000013584        0x8 /tmp/Shell.dll.2u1FF2.ltrans1.ltrans.o
                0x0000000000013584                DevPathFromTextPcieRoot
 .text.DevPathFromTextFloppy
                0x000000000001358c        0x8 /tmp/Shell.dll.2u1FF2.ltrans1.ltrans.o
                0x000000000001358c                DevPathFromTextFloppy
 .text.DevPathFromTextKeyboard
                0x0000000000013594        0x8 /tmp/Shell.dll.2u1FF2.ltrans1.ltrans.o
                0x0000000000013594                DevPathFromTextKeyboard
 .text.DevPathFromTextSerial
                0x000000000001359c        0x8 /tmp/Shell.dll.2u1FF2.ltrans1.ltrans.o
                0x000000000001359c                DevPathFromTextSerial
 .text.DevPathFromTextParallelPort
                0x00000000000135a4        0x8 /tmp/Shell.dll.2u1FF2.ltrans1.ltrans.o
                0x00000000000135a4                DevPathFromTextParallelPort
 .text.DevPathFromTextAcpiAdr
                0x00000000000135ac       0xf8 /tmp/Shell.dll.2u1FF2.ltrans1.ltrans.o
                0x00000000000135ac                DevPathFromTextAcpiAdr
 .text.DevPathFromTextAta
                0x00000000000136a4       0xf4 /tmp/Shell.dll.2u1FF2.ltrans1.ltrans.o
                0x00000000000136a4                DevPathFromTextAta
 .text.DevPathFromTextScsi
                0x0000000000013798       0x6c /tmp/Shell.dll.2u1FF2.ltrans1.ltrans.o
                0x0000000000013798                DevPathFromTextScsi
 .text.DevPathFromTextUsb
                0x0000000000013804       0x6c /tmp/Shell.dll.2u1FF2.ltrans1.ltrans.o
                0x0000000000013804                DevPathFromTextUsb
 .text.DevPathFromTextI2O
                0x0000000000013870       0x4c /tmp/Shell.dll.2u1FF2.ltrans1.ltrans.o
                0x0000000000013870                DevPathFromTextI2O
 .text.DevPathFromTextNVMe
                0x00000000000138bc       0x88 /tmp/Shell.dll.2u1FF2.ltrans1.ltrans.o
                0x00000000000138bc                DevPathFromTextNVMe
 .text.DevPathFromTextUfs
                0x0000000000013944       0x6c /tmp/Shell.dll.2u1FF2.ltrans1.ltrans.o
                0x0000000000013944                DevPathFromTextUfs
 .text.DevPathFromTextSd
                0x00000000000139b0       0x4c /tmp/Shell.dll.2u1FF2.ltrans1.ltrans.o
                0x00000000000139b0                DevPathFromTextSd
 .text.DevPathFromTextEmmc
                0x00000000000139fc       0x4c /tmp/Shell.dll.2u1FF2.ltrans1.ltrans.o
                0x00000000000139fc                DevPathFromTextEmmc
 .text.DevPathFromTextMAC
                0x0000000000013a48       0x84 /tmp/Shell.dll.2u1FF2.ltrans1.ltrans.o
                0x0000000000013a48                DevPathFromTextMAC
 .text.NetworkProtocolFromText
                0x0000000000013acc       0x5c /tmp/Shell.dll.2u1FF2.ltrans1.ltrans.o
 .text.DevPathFromTextIPv4
                0x0000000000013b28      0x120 /tmp/Shell.dll.2u1FF2.ltrans1.ltrans.o
                0x0000000000013b28                DevPathFromTextIPv4
 .text.DevPathFromTextIPv6
                0x0000000000013c48      0x134 /tmp/Shell.dll.2u1FF2.ltrans1.ltrans.o
                0x0000000000013c48                DevPathFromTextIPv6
 .text.ConvertFromTextUsbClass
                0x0000000000013d7c      0x118 /tmp/Shell.dll.2u1FF2.ltrans1.ltrans.o
 .text.DevPathFromTextUsbClass
                0x0000000000013e94       0x24 /tmp/Shell.dll.2u1FF2.ltrans1.ltrans.o
                0x0000000000013e94                DevPathFromTextUsbClass
 .text.DevPathFromTextUsbAudio
                0x0000000000013eb8       0x28 /tmp/Shell.dll.2u1FF2.ltrans1.ltrans.o
                0x0000000000013eb8                DevPathFromTextUsbAudio
 .text.DevPathFromTextUsbCDCControl
                0x0000000000013ee0       0x28 /tmp/Shell.dll.2u1FF2.ltrans1.ltrans.o
                0x0000000000013ee0                DevPathFromTextUsbCDCControl
 .text.DevPathFromTextUsbHID
                0x0000000000013f08       0x28 /tmp/Shell.dll.2u1FF2.ltrans1.ltrans.o
                0x0000000000013f08                DevPathFromTextUsbHID
 .text.DevPathFromTextUsbImage
                0x0000000000013f30       0x28 /tmp/Shell.dll.2u1FF2.ltrans1.ltrans.o
                0x0000000000013f30                DevPathFromTextUsbImage
 .text.DevPathFromTextUsbPrinter
                0x0000000000013f58       0x28 /tmp/Shell.dll.2u1FF2.ltrans1.ltrans.o
                0x0000000000013f58                DevPathFromTextUsbPrinter
 .text.DevPathFromTextUsbMassStorage
                0x0000000000013f80       0x28 /tmp/Shell.dll.2u1FF2.ltrans1.ltrans.o
                0x0000000000013f80                DevPathFromTextUsbMassStorage
 .text.DevPathFromTextUsbHub
                0x0000000000013fa8       0x28 /tmp/Shell.dll.2u1FF2.ltrans1.ltrans.o
                0x0000000000013fa8                DevPathFromTextUsbHub
 .text.DevPathFromTextUsbCDCData
                0x0000000000013fd0       0x28 /tmp/Shell.dll.2u1FF2.ltrans1.ltrans.o
                0x0000000000013fd0                DevPathFromTextUsbCDCData
 .text.DevPathFromTextUsbSmartCard
                0x0000000000013ff8       0x28 /tmp/Shell.dll.2u1FF2.ltrans1.ltrans.o
                0x0000000000013ff8                DevPathFromTextUsbSmartCard
 .text.DevPathFromTextUsbVideo
                0x0000000000014020       0x28 /tmp/Shell.dll.2u1FF2.ltrans1.ltrans.o
                0x0000000000014020                DevPathFromTextUsbVideo
 .text.DevPathFromTextUsbDiagnostic
                0x0000000000014048       0x28 /tmp/Shell.dll.2u1FF2.ltrans1.ltrans.o
                0x0000000000014048                DevPathFromTextUsbDiagnostic
 .text.DevPathFromTextUsbWireless
                0x0000000000014070       0x28 /tmp/Shell.dll.2u1FF2.ltrans1.ltrans.o
                0x0000000000014070                DevPathFromTextUsbWireless
 .text.DevPathFromTextUsbDeviceFirmwareUpdate
                0x0000000000014098       0x24 /tmp/Shell.dll.2u1FF2.ltrans1.ltrans.o
                0x0000000000014098                DevPathFromTextUsbDeviceFirmwareUpdate
 .text.DevPathFromTextUsbIrdaBridge
                0x00000000000140bc       0x24 /tmp/Shell.dll.2u1FF2.ltrans1.ltrans.o
                0x00000000000140bc                DevPathFromTextUsbIrdaBridge
 .text.DevPathFromTextUsbTestAndMeasurement
                0x00000000000140e0       0x24 /tmp/Shell.dll.2u1FF2.ltrans1.ltrans.o
                0x00000000000140e0                DevPathFromTextUsbTestAndMeasurement
 .text.DevPathFromTextUsbWwid
                0x0000000000014104       0xe8 /tmp/Shell.dll.2u1FF2.ltrans1.ltrans.o
                0x0000000000014104                DevPathFromTextUsbWwid
 .text.DevPathFromTextUnit
                0x00000000000141ec       0x4c /tmp/Shell.dll.2u1FF2.ltrans1.ltrans.o
                0x00000000000141ec                DevPathFromTextUnit
 .text.DevPathFromTextVlan
                0x0000000000014238       0x4c /tmp/Shell.dll.2u1FF2.ltrans1.ltrans.o
                0x0000000000014238                DevPathFromTextVlan
 .text.DevPathFromTextBluetoothLE
                0x0000000000014284       0x74 /tmp/Shell.dll.2u1FF2.ltrans1.ltrans.o
                0x0000000000014284                DevPathFromTextBluetoothLE
 .text.Strtoi64
                0x00000000000142f8       0x40 /tmp/Shell.dll.2u1FF2.ltrans1.ltrans.o
                0x00000000000142f8                Strtoi64
 .text.DevPathFromTextMemoryMapped
                0x0000000000014338       0x84 /tmp/Shell.dll.2u1FF2.ltrans1.ltrans.o
                0x0000000000014338                DevPathFromTextMemoryMapped
 .text.DevPathFromTextFibre
                0x00000000000143bc       0x70 /tmp/Shell.dll.2u1FF2.ltrans1.ltrans.o
                0x00000000000143bc                DevPathFromTextFibre
 .text.DevPathFromTextFibreEx
                0x000000000001442c       0x88 /tmp/Shell.dll.2u1FF2.ltrans1.ltrans.o
                0x000000000001442c                DevPathFromTextFibreEx
 .text.DevPathFromTextInfiniband
                0x00000000000144b4       0xbc /tmp/Shell.dll.2u1FF2.ltrans1.ltrans.o
                0x00000000000144b4                DevPathFromTextInfiniband
 .text.DevPathFromTextSAS
                0x0000000000014570      0x218 /tmp/Shell.dll.2u1FF2.ltrans1.ltrans.o
                0x0000000000014570                DevPathFromTextSAS
 .text.DevPathFromTextSasEx
                0x0000000000014788      0x210 /tmp/Shell.dll.2u1FF2.ltrans1.ltrans.o
                0x0000000000014788                DevPathFromTextSasEx
 .text.DevPathFromTextUart
                0x0000000000014998      0x1b0 /tmp/Shell.dll.2u1FF2.ltrans1.ltrans.o
                0x0000000000014998                DevPathFromTextUart
 .text.DevPathFromTextHD
                0x0000000000014b48      0x12c /tmp/Shell.dll.2u1FF2.ltrans1.ltrans.o
                0x0000000000014b48                DevPathFromTextHD
 .text.DevPathFromTextCDROM
                0x0000000000014c74       0x84 /tmp/Shell.dll.2u1FF2.ltrans1.ltrans.o
                0x0000000000014c74                DevPathFromTextCDROM
 .text.StrToAscii
                0x0000000000014cf8       0x2c /tmp/Shell.dll.2u1FF2.ltrans1.ltrans.o
                0x0000000000014cf8                StrToAscii
 .text.DevPathFromTextAcpiEx
                0x0000000000014d24      0x104 /tmp/Shell.dll.2u1FF2.ltrans1.ltrans.o
                0x0000000000014d24                DevPathFromTextAcpiEx
 .text.DevPathFromTextAcpiExp
                0x0000000000014e28       0xb8 /tmp/Shell.dll.2u1FF2.ltrans1.ltrans.o
                0x0000000000014e28                DevPathFromTextAcpiExp
 .text.DevPathFromTextiSCSI
                0x0000000000014ee0      0x174 /tmp/Shell.dll.2u1FF2.ltrans1.ltrans.o
                0x0000000000014ee0                DevPathFromTextiSCSI
 .text.DevPathFromTextGenericPath
                0x0000000000015054       0x88 /tmp/Shell.dll.2u1FF2.ltrans1.ltrans.o
                0x0000000000015054                DevPathFromTextGenericPath
 .text.DevPathFromTextPath
                0x00000000000150dc       0x28 /tmp/Shell.dll.2u1FF2.ltrans1.ltrans.o
                0x00000000000150dc                DevPathFromTextPath
 .text.DevPathFromTextHardwarePath
                0x0000000000015104        0xc /tmp/Shell.dll.2u1FF2.ltrans1.ltrans.o
                0x0000000000015104                DevPathFromTextHardwarePath
 .text.DevPathFromTextAcpiPath
                0x0000000000015110        0xc /tmp/Shell.dll.2u1FF2.ltrans1.ltrans.o
                0x0000000000015110                DevPathFromTextAcpiPath
 .text.DevPathFromTextMsg
                0x000000000001511c        0xc /tmp/Shell.dll.2u1FF2.ltrans1.ltrans.o
                0x000000000001511c                DevPathFromTextMsg
 .text.DevPathFromTextMediaPath
                0x0000000000015128        0xc /tmp/Shell.dll.2u1FF2.ltrans1.ltrans.o
                0x0000000000015128                DevPathFromTextMediaPath
 .text.ConvertFromTextVendor
                0x0000000000015134       0x90 /tmp/Shell.dll.2u1FF2.ltrans1.ltrans.o
                0x0000000000015134                ConvertFromTextVendor
 .text.DevPathFromTextVenHw
                0x00000000000151c4        0xc /tmp/Shell.dll.2u1FF2.ltrans1.ltrans.o
                0x00000000000151c4                DevPathFromTextVenHw
 .text.DevPathFromTextVenMsg
                0x00000000000151d0        0xc /tmp/Shell.dll.2u1FF2.ltrans1.ltrans.o
                0x00000000000151d0                DevPathFromTextVenMsg
 .text.FileHandleSetInfo
                0x00000000000151dc       0x34 /tmp/Shell.dll.2u1FF2.ltrans2.ltrans.o
                0x00000000000151dc                FileHandleSetInfo
 .text.FileHandleRead
                0x0000000000015210       0x1c /tmp/Shell.dll.2u1FF2.ltrans2.ltrans.o
                0x0000000000015210                FileHandleRead
 .text.FileHandleWrite
                0x000000000001522c       0x1c /tmp/Shell.dll.2u1FF2.ltrans2.ltrans.o
                0x000000000001522c                FileHandleWrite
 .text.FileHandleClose
                0x0000000000015248       0x1c /tmp/Shell.dll.2u1FF2.ltrans2.ltrans.o
                0x0000000000015248                FileHandleClose
 .text.FileHandleDelete
                0x0000000000015264       0x1c /tmp/Shell.dll.2u1FF2.ltrans2.ltrans.o
                0x0000000000015264                FileHandleDelete
 .text.FileHandleSetPosition
                0x0000000000015280       0x1c /tmp/Shell.dll.2u1FF2.ltrans2.ltrans.o
                0x0000000000015280                FileHandleSetPosition
 .text.FileHandleGetPosition
                0x000000000001529c       0x24 /tmp/Shell.dll.2u1FF2.ltrans2.ltrans.o
                0x000000000001529c                FileHandleGetPosition
 .text.FileHandleFlush
                0x00000000000152c0       0x1c /tmp/Shell.dll.2u1FF2.ltrans2.ltrans.o
                0x00000000000152c0                FileHandleFlush
 .text.DevPathFromTextVenMedia
                0x00000000000152dc        0xc /tmp/Shell.dll.2u1FF2.ltrans2.ltrans.o
                0x00000000000152dc                DevPathFromTextVenMedia
 .text.DevPathFromTextMedia
                0x00000000000152e8       0x4c /tmp/Shell.dll.2u1FF2.ltrans2.ltrans.o
                0x00000000000152e8                DevPathFromTextMedia
 .text.DevPathFromTextFv
                0x0000000000015334       0x4c /tmp/Shell.dll.2u1FF2.ltrans2.ltrans.o
                0x0000000000015334                DevPathFromTextFv
 .text.DevPathFromTextFvFile
                0x0000000000015380       0x4c /tmp/Shell.dll.2u1FF2.ltrans2.ltrans.o
                0x0000000000015380                DevPathFromTextFvFile
 .text.DevPathFromTextRelativeOffsetRange
                0x00000000000153cc       0x6c /tmp/Shell.dll.2u1FF2.ltrans2.ltrans.o
                0x00000000000153cc                DevPathFromTextRelativeOffsetRange
 .text.DevPathFromTextSata
                0x0000000000015438       0x94 /tmp/Shell.dll.2u1FF2.ltrans2.ltrans.o
                0x0000000000015438                DevPathFromTextSata
 .text.DevPathFromTextRamDisk
                0x00000000000154cc       0xbc /tmp/Shell.dll.2u1FF2.ltrans2.ltrans.o
                0x00000000000154cc                DevPathFromTextRamDisk
 .text.DevPathFromTextVirtualDisk
                0x0000000000015588       0xac /tmp/Shell.dll.2u1FF2.ltrans2.ltrans.o
                0x0000000000015588                DevPathFromTextVirtualDisk
 .text.DevPathFromTextVirtualCd
                0x0000000000015634       0xac /tmp/Shell.dll.2u1FF2.ltrans2.ltrans.o
                0x0000000000015634                DevPathFromTextVirtualCd
 .text.DevPathFromTextPersistentVirtualDisk
                0x00000000000156e0       0xac /tmp/Shell.dll.2u1FF2.ltrans2.ltrans.o
                0x00000000000156e0                DevPathFromTextPersistentVirtualDisk
 .text.DevPathFromTextPersistentVirtualCd
                0x000000000001578c       0xac /tmp/Shell.dll.2u1FF2.ltrans2.ltrans.o
                0x000000000001578c                DevPathFromTextPersistentVirtualCd
 .text.DevPathFromTextBbsPath
                0x0000000000015838        0xc /tmp/Shell.dll.2u1FF2.ltrans2.ltrans.o
                0x0000000000015838                DevPathFromTextBbsPath
 .text.DevPathFromTextBBS
                0x0000000000015844      0x13c /tmp/Shell.dll.2u1FF2.ltrans2.ltrans.o
                0x0000000000015844                DevPathFromTextBBS
 .text.FileHandleGetInfo
                0x0000000000015980       0x98 /tmp/Shell.dll.2u1FF2.ltrans2.ltrans.o
                0x0000000000015980                FileHandleGetInfo
 .text.FileHandleGetSize
                0x0000000000015a18       0x54 /tmp/Shell.dll.2u1FF2.ltrans2.ltrans.o
                0x0000000000015a18                FileHandleGetSize
 .text.DevicePathCompare
                0x0000000000015a6c      0x13c /tmp/Shell.dll.2u1FF2.ltrans2.ltrans.o
                0x0000000000015a6c                DevicePathCompare
 .text.InternalPrintTo
                0x0000000000015ba8       0xb4 /tmp/Shell.dll.2u1FF2.ltrans2.ltrans.o
 .text.InternalShellPrintWorker
                0x0000000000015c5c      0x4d4 /tmp/Shell.dll.2u1FF2.ltrans2.ltrans.o
 .text.DriverEfiVersionProtocolDumpInformation
                0x0000000000016130       0xbc /tmp/Shell.dll.2u1FF2.ltrans2.ltrans.o
 .text.EfiGetSystemConfigurationTable
                0x00000000000161ec       0x94 /tmp/Shell.dll.2u1FF2.ltrans2.ltrans.o
                0x00000000000161ec                EfiGetSystemConfigurationTable
 .text.GetVariable2
                0x0000000000016280      0x130 /tmp/Shell.dll.2u1FF2.ltrans2.ltrans.o
                0x0000000000016280                GetVariable2
 .text.GetBestLanguage
                0x00000000000163b0      0x1ac /tmp/Shell.dll.2u1FF2.ltrans2.ltrans.o
                0x00000000000163b0                GetBestLanguage
 .text.StringNoCaseCompare
                0x000000000001655c       0xc8 /tmp/Shell.dll.2u1FF2.ltrans2.ltrans.o
                0x000000000001655c                StringNoCaseCompare
 .text.HiiAddPackages
                0x0000000000016624      0x194 /tmp/Shell.dll.2u1FF2.ltrans2.ltrans.o
                0x0000000000016624                HiiAddPackages
 .text.HiiRemovePackages
                0x00000000000167b8       0xb4 /tmp/Shell.dll.2u1FF2.ltrans2.ltrans.o
                0x00000000000167b8                HiiRemovePackages
 .text.HiiGetSupportedLanguages
                0x000000000001686c       0xbc /tmp/Shell.dll.2u1FF2.ltrans2.ltrans.o
                0x000000000001686c                HiiGetSupportedLanguages
 .text.HiiGetString
                0x0000000000016928      0x194 /tmp/Shell.dll.2u1FF2.ltrans2.ltrans.o
                0x0000000000016928                HiiGetString
 .text.EdidDiscoveredProtocolDumpInformation
                0x0000000000016abc      0x110 /tmp/Shell.dll.2u1FF2.ltrans2.ltrans.o
 .text.EdidActiveProtocolDumpInformation
                0x0000000000016bcc      0x110 /tmp/Shell.dll.2u1FF2.ltrans2.ltrans.o
 .text.FirmwareManagementDumpInformation
                0x0000000000016cdc      0x778 /tmp/Shell.dll.2u1FF2.ltrans2.ltrans.o
 .text.FileHandleIsDirectory
                0x0000000000017454       0x50 /tmp/Shell.dll.2u1FF2.ltrans2.ltrans.o
                0x0000000000017454                FileHandleIsDirectory
 .text.FileHandleFindNextFile.part.0
                0x00000000000174a4       0xa0 /tmp/Shell.dll.2u1FF2.ltrans2.ltrans.o
                0x00000000000174a4                FileHandleFindNextFile.part.0
 .text.ShellIsHexaDecimalDigitCharacter
                0x0000000000017544       0x3c /tmp/Shell.dll.2u1FF2.ltrans2.ltrans.o
                0x0000000000017544                ShellIsHexaDecimalDigitCharacter
 .text.InternalShellIsHexOrDecimalNumber
                0x0000000000017580      0x12c /tmp/Shell.dll.2u1FF2.ltrans2.ltrans.o
 .text.ShellInitialize
                0x00000000000176ac       0x84 /tmp/Shell.dll.2u1FF2.ltrans2.ltrans.o
                0x00000000000176ac                ShellInitialize
 .text.ShellGetFileInfo
                0x0000000000017730       0x10 /tmp/Shell.dll.2u1FF2.ltrans2.ltrans.o
                0x0000000000017730                ShellGetFileInfo
 .text.ShellCreateDirectory
                0x0000000000017740       0x2c /tmp/Shell.dll.2u1FF2.ltrans2.ltrans.o
                0x0000000000017740                ShellCreateDirectory
 .text.ShellOpenFileByName
                0x000000000001776c      0x3e8 /tmp/Shell.dll.2u1FF2.ltrans2.ltrans.o
                0x000000000001776c                ShellOpenFileByName
 .text.ShellReadFile
                0x0000000000017b54       0x10 /tmp/Shell.dll.2u1FF2.ltrans2.ltrans.o
                0x0000000000017b54                ShellReadFile
 .text.ShellWriteFile
                0x0000000000017b64       0x10 /tmp/Shell.dll.2u1FF2.ltrans2.ltrans.o
                0x0000000000017b64                ShellWriteFile
 .text.ShellGetFileSize
                0x0000000000017b74       0x10 /tmp/Shell.dll.2u1FF2.ltrans2.ltrans.o
                0x0000000000017b74                ShellGetFileSize
 .text.ShellGetExecutionBreakFlag
                0x0000000000017b84       0x58 /tmp/Shell.dll.2u1FF2.ltrans2.ltrans.o
                0x0000000000017b84                ShellGetExecutionBreakFlag
 .text.ShellGetEnvironmentVariable
                0x0000000000017bdc       0x2c /tmp/Shell.dll.2u1FF2.ltrans2.ltrans.o
                0x0000000000017bdc                ShellGetEnvironmentVariable
 .text.ShellGetCurrentDir
                0x0000000000017c08       0x34 /tmp/Shell.dll.2u1FF2.ltrans2.ltrans.o
                0x0000000000017c08                ShellGetCurrentDir
 .text.FullyQualifyPath
                0x0000000000017c3c      0x188 /tmp/Shell.dll.2u1FF2.ltrans2.ltrans.o
                0x0000000000017c3c                FullyQualifyPath
 .text.ShellCloseFileMetaArg
                0x0000000000017dc4       0xb8 /tmp/Shell.dll.2u1FF2.ltrans2.ltrans.o
                0x0000000000017dc4                ShellCloseFileMetaArg
 .text.InternalIsFlag
                0x0000000000017e7c       0xa4 /tmp/Shell.dll.2u1FF2.ltrans2.ltrans.o
                0x0000000000017e7c                InternalIsFlag
 .text.ShellCommandLineFreeVarList
                0x0000000000017f20       0x70 /tmp/Shell.dll.2u1FF2.ltrans2.ltrans.o
                0x0000000000017f20                ShellCommandLineFreeVarList
 .text.ShellCommandLineGetRawValue
                0x0000000000017f90       0x78 /tmp/Shell.dll.2u1FF2.ltrans2.ltrans.o
                0x0000000000017f90                ShellCommandLineGetRawValue
 .text.ShellCommandLineGetCount
                0x0000000000018008       0x74 /tmp/Shell.dll.2u1FF2.ltrans2.ltrans.o
                0x0000000000018008                ShellCommandLineGetCount
 .text.ShellPrintEx
                0x000000000001807c       0x84 /tmp/Shell.dll.2u1FF2.ltrans2.ltrans.o
                0x000000000001807c                ShellPrintEx
 .text.ShellPrintHiiEx
                0x0000000000018100       0xc0 /tmp/Shell.dll.2u1FF2.ltrans2.ltrans.o
                0x0000000000018100                ShellPrintHiiEx
 .text.ShellIsFile
                0x00000000000181c0       0x8c /tmp/Shell.dll.2u1FF2.ltrans2.ltrans.o
                0x00000000000181c0                ShellIsFile
 .text.StrnCatGrow
                0x000000000001824c      0x174 /tmp/Shell.dll.2u1FF2.ltrans2.ltrans.o
                0x000000000001824c                StrnCatGrow
 .text.ShellFindFilePath
                0x00000000000183c0      0x2f8 /tmp/Shell.dll.2u1FF2.ltrans2.ltrans.o
                0x00000000000183c0                ShellFindFilePath
 .text.ShellCommandLineGetFlag
                0x00000000000186b8      0x104 /tmp/Shell.dll.2u1FF2.ltrans2.ltrans.o
                0x00000000000186b8                ShellCommandLineGetFlag
 .text.ShellCommandLineGetValue
                0x00000000000187bc      0x114 /tmp/Shell.dll.2u1FF2.ltrans2.ltrans.o
                0x00000000000187bc                ShellCommandLineGetValue
 .text.ShellIsDirectory
                0x00000000000188d0      0x160 /tmp/Shell.dll.2u1FF2.ltrans2.ltrans.o
                0x00000000000188d0                ShellIsDirectory
 .text.ConvertMemoryType
                0x0000000000018a30      0x158 /tmp/Shell.dll.2u1FF2.ltrans2.ltrans.o
 .text.DevicePathProtocolDumpInformationEx
                0x0000000000018b88      0x16c /tmp/Shell.dll.2u1FF2.ltrans2.ltrans.o
 .text.DevicePathProtocolDumpInformation
                0x0000000000018cf4        0xc /tmp/Shell.dll.2u1FF2.ltrans2.ltrans.o
 .text.LoadedImageDevicePathProtocolDumpInformation
                0x0000000000018d00        0xc /tmp/Shell.dll.2u1FF2.ltrans2.ltrans.o
 .text.ShellPromptForResponse
                0x0000000000018d0c      0x5f8 /tmp/Shell.dll.2u1FF2.ltrans2.ltrans.o
                0x0000000000018d0c                ShellPromptForResponse
 .text.ShellPromptForResponseHii
                0x0000000000019304       0x58 /tmp/Shell.dll.2u1FF2.ltrans2.ltrans.o
                0x0000000000019304                ShellPromptForResponseHii
 .text.ShellConvertStringToUint64
                0x000000000001935c      0x2b4 /tmp/Shell.dll.2u1FF2.ltrans2.ltrans.o
                0x000000000001935c                ShellConvertStringToUint64
 .text.ShellHexStrToUintn
                0x0000000000019610       0x2c /tmp/Shell.dll.2u1FF2.ltrans2.ltrans.o
                0x0000000000019610                ShellHexStrToUintn
 .text.ShellStrToUintn
                0x000000000001963c       0x48 /tmp/Shell.dll.2u1FF2.ltrans2.ltrans.o
                0x000000000001963c                ShellStrToUintn
 .text.ShellFileHandleReadLine
                0x0000000000019684      0x2ac /tmp/Shell.dll.2u1FF2.ltrans2.ltrans.o
                0x0000000000019684                ShellFileHandleReadLine
 .text.ShellFileHandleReturnLine
                0x0000000000019930       0xc0 /tmp/Shell.dll.2u1FF2.ltrans2.ltrans.o
                0x0000000000019930                ShellFileHandleReturnLine
 .text.ShellPrintHelp
                0x00000000000199f0      0x118 /tmp/Shell.dll.2u1FF2.ltrans2.ltrans.o
                0x00000000000199f0                ShellPrintHelp
 .text.InternalShellStripQuotes
                0x0000000000019b08       0x88 /tmp/Shell.dll.2u1FF2.ltrans2.ltrans.o
                0x0000000000019b08                InternalShellStripQuotes
                0x0000000000019b08                ShellLevel2StripQuotes
 .text.ShellOpenFileMetaArg
                0x0000000000019b90      0x37c /tmp/Shell.dll.2u1FF2.ltrans2.ltrans.o
                0x0000000000019b90                ShellOpenFileMetaArg
 .text.ShellFileExists
                0x0000000000019f0c       0x68 /tmp/Shell.dll.2u1FF2.ltrans2.ltrans.o
                0x0000000000019f0c                ShellFileExists
 .text.HandleParsingHiiInit
                0x0000000000019f74       0x7c /tmp/Shell.dll.2u1FF2.ltrans2.ltrans.o
                0x0000000000019f74                HandleParsingHiiInit
 .text.LoadedImageProtocolDumpInformation
                0x0000000000019ff0      0x228 /tmp/Shell.dll.2u1FF2.ltrans2.ltrans.o
 .text.GraphicsOutputProtocolDumpInformation
                0x000000000001a218      0x2d4 /tmp/Shell.dll.2u1FF2.ltrans2.ltrans.o
 .text.PciRootBridgeIoDumpInformation
                0x000000000001a4ec      0x2e8 /tmp/Shell.dll.2u1FF2.ltrans2.ltrans.o
 .text.TxtOutProtocolDumpInformation
                0x000000000001a7d4      0x210 /tmp/Shell.dll.2u1FF2.ltrans2.ltrans.o
 .text.BlockIoProtocolDumpInformation
                0x000000000001a9e4      0x198 /tmp/Shell.dll.2u1FF2.ltrans2.ltrans.o
 .text.DebugSupportProtocolDumpInformation
                0x000000000001ab7c      0x108 /tmp/Shell.dll.2u1FF2.ltrans2.ltrans.o
 .text.PciIoProtocolDumpInformation
                0x000000000001ac84      0x180 /tmp/Shell.dll.2u1FF2.ltrans2.ltrans.o
 .text.UsbIoProtocolDumpInformation
                0x000000000001ae04       0xb4 /tmp/Shell.dll.2u1FF2.ltrans2.ltrans.o
 .text.PartitionInfoProtocolDumpInformation
                0x000000000001aeb8      0x128 /tmp/Shell.dll.2u1FF2.ltrans2.ltrans.o
 .text.InternalShellGetNodeFromGuid
                0x000000000001afe0       0xf4 /tmp/Shell.dll.2u1FF2.ltrans2.ltrans.o
                0x000000000001afe0                InternalShellGetNodeFromGuid
 .text.GetStringNameFromGuid
                0x000000000001b0d4       0x4c /tmp/Shell.dll.2u1FF2.ltrans2.ltrans.o
                0x000000000001b0d4                GetStringNameFromGuid
 .text.AdapterInformationDumpInformation
                0x000000000001b120      0x504 /tmp/Shell.dll.2u1FF2.ltrans2.ltrans.o
 .text.GetProtocolInformationDump
                0x000000000001b624       0xb8 /tmp/Shell.dll.2u1FF2.ltrans2.ltrans.o
                0x000000000001b624                GetProtocolInformationDump
 .text.GetGuidFromStringName
                0x000000000001b6dc      0x1a8 /tmp/Shell.dll.2u1FF2.ltrans2.ltrans.o
                0x000000000001b6dc                GetGuidFromStringName
 .text.GetStringNameFromHandle
                0x000000000001b884      0x114 /tmp/Shell.dll.2u1FF2.ltrans2.ltrans.o
                0x000000000001b884                GetStringNameFromHandle
 .text.ConvertHandleToHandleIndex
                0x000000000001b998      0x110 /tmp/Shell.dll.2u1FF2.ltrans2.ltrans.o
                0x000000000001b998                ConvertHandleToHandleIndex
 .text.BusSpecificDriverOverrideProtocolDumpInformation
                0x000000000001baa8      0x130 /tmp/Shell.dll.2u1FF2.ltrans2.ltrans.o
 .text.ConvertHandleIndexToHandle
                0x000000000001bbd8       0xb8 /tmp/Shell.dll.2u1FF2.ltrans2.ltrans.o
                0x000000000001bbd8                ConvertHandleIndexToHandle
 .text.ParseHandleDatabaseByRelationshipWithType
                0x000000000001bc90      0x714 /tmp/Shell.dll.2u1FF2.ltrans2.ltrans.o
                0x000000000001bc90                ParseHandleDatabaseByRelationshipWithType
 .text.ParseHandleDatabaseByRelationship
                0x000000000001c3a4      0x1c4 /tmp/Shell.dll.2u1FF2.ltrans2.ltrans.o
                0x000000000001c3a4                ParseHandleDatabaseByRelationship
 .text.GetHandleListByProtocol
                0x000000000001c568      0x128 /tmp/Shell.dll.2u1FF2.ltrans2.ltrans.o
                0x000000000001c568                GetHandleListByProtocol
 .text.ParseHandleDatabaseForChildControllers
                0x000000000001c690      0x16c /tmp/Shell.dll.2u1FF2.ltrans2.ltrans.o
                0x000000000001c690                ParseHandleDatabaseForChildControllers
 .text.GetHandleListByProtocolList
                0x000000000001c7fc      0x17c /tmp/Shell.dll.2u1FF2.ltrans2.ltrans.o
                0x000000000001c7fc                GetHandleListByProtocolList
 .text.GetAllMappingGuids
                0x000000000001c978       0xec /tmp/Shell.dll.2u1FF2.ltrans2.ltrans.o
                0x000000000001c978                GetAllMappingGuids
 .text.CommandInit
                0x000000000001ca64      0x134 /tmp/Shell.dll.2u1FF2.ltrans2.ltrans.o
                0x000000000001ca64                CommandInit
 .text.ShellCommandFindDynamicCommand
                0x000000000001cb98       0xb4 /tmp/Shell.dll.2u1FF2.ltrans2.ltrans.o
                0x000000000001cb98                ShellCommandFindDynamicCommand
 .text.ShellCommandIsCommandOnList
                0x000000000001cc4c       0xf0 /tmp/Shell.dll.2u1FF2.ltrans2.ltrans.o
                0x000000000001cc4c                ShellCommandIsCommandOnList
 .text.ShellCommandIsOnAliasList
                0x000000000001cd3c      0x120 /tmp/Shell.dll.2u1FF2.ltrans2.ltrans.o
                0x000000000001cd3c                ShellCommandIsOnAliasList
 .text.ShellCommandRegisterExit
                0x000000000001ce5c       0x30 /tmp/Shell.dll.2u1FF2.ltrans2.ltrans.o
                0x000000000001ce5c                ShellCommandRegisterExit
 .text.DeleteScriptFileStruct
                0x000000000001ce8c       0xf0 /tmp/Shell.dll.2u1FF2.ltrans2.ltrans.o
                0x000000000001ce8c                DeleteScriptFileStruct
 .text.ShellCommandGetCurrentScriptFile
                0x000000000001cf7c       0x44 /tmp/Shell.dll.2u1FF2.ltrans2.ltrans.o
                0x000000000001cf7c                ShellCommandGetCurrentScriptFile
 .text.ShellCommandCreateNewMappingName
                0x000000000001cfc0       0x70 /tmp/Shell.dll.2u1FF2.ltrans2.ltrans.o
                0x000000000001cfc0                ShellCommandCreateNewMappingName
 .text.UniqueNameCompare.lto_priv.0
                0x000000000001d030       0x20 /tmp/Shell.dll.2u1FF2.ltrans3.ltrans.o
                0x000000000001d030                UniqueNameCompare.lto_priv.0
 .text.UniqueNameAliasCompare.lto_priv.0
                0x000000000001d050       0x20 /tmp/Shell.dll.2u1FF2.ltrans3.ltrans.o
                0x000000000001d050                UniqueNameAliasCompare.lto_priv.0
 .text.DevPathCompareAcpi
                0x000000000001d070       0x50 /tmp/Shell.dll.2u1FF2.ltrans3.ltrans.o
 .text.DevPathSerialDefault
                0x000000000001d0c0        0x8 /tmp/Shell.dll.2u1FF2.ltrans3.ltrans.o
 .text.ShellCommandGetManFileNameLevel2
                0x000000000001d0c8        0xc /tmp/Shell.dll.2u1FF2.ltrans3.ltrans.o
                0x000000000001d0c8                ShellCommandGetManFileNameLevel2
 .text.InternalIsTimeLikeString
                0x000000000001d0d4       0x7c /tmp/Shell.dll.2u1FF2.ltrans3.ltrans.o
 .text.IsNumberLetterOnly
                0x000000000001d150       0x58 /tmp/Shell.dll.2u1FF2.ltrans3.ltrans.o
 .text.DevPathComparePci
                0x000000000001d1a8       0x9c /tmp/Shell.dll.2u1FF2.ltrans3.ltrans.o
 .text.CatPrint
                0x000000000001d244      0x128 /tmp/Shell.dll.2u1FF2.ltrans3.ltrans.o
 .text.AppendCSDStr
                0x000000000001d36c      0x19c /tmp/Shell.dll.2u1FF2.ltrans3.ltrans.o
 .text.AppendCSDNum2
                0x000000000001d508       0x5c /tmp/Shell.dll.2u1FF2.ltrans3.ltrans.o
 .text.AppendCSDNum
                0x000000000001d564       0x84 /tmp/Shell.dll.2u1FF2.ltrans3.ltrans.o
 .text.DevPathSerialHardDrive
                0x000000000001d5e8       0x7c /tmp/Shell.dll.2u1FF2.ltrans3.ltrans.o
 .text.DevPathSerialAtapi
                0x000000000001d664       0x78 /tmp/Shell.dll.2u1FF2.ltrans3.ltrans.o
 .text.DevPathSerialCdRom
                0x000000000001d6dc       0x74 /tmp/Shell.dll.2u1FF2.ltrans3.ltrans.o
 .text.DevPathSerialFibre
                0x000000000001d750       0x88 /tmp/Shell.dll.2u1FF2.ltrans3.ltrans.o
 .text.DevPathSerialUart
                0x000000000001d7d8       0xa8 /tmp/Shell.dll.2u1FF2.ltrans3.ltrans.o
 .text.DevPathSerialUsb
                0x000000000001d880      0x174 /tmp/Shell.dll.2u1FF2.ltrans3.ltrans.o
 .text.DevPathSerialLun
                0x000000000001d9f4       0x6c /tmp/Shell.dll.2u1FF2.ltrans3.ltrans.o
 .text.DevPathSerialSata
                0x000000000001da60       0x98 /tmp/Shell.dll.2u1FF2.ltrans3.ltrans.o
 .text.DevPathSerialI2O
                0x000000000001daf8       0x6c /tmp/Shell.dll.2u1FF2.ltrans3.ltrans.o
 .text.DevPathSerialScsi
                0x000000000001db64       0x88 /tmp/Shell.dll.2u1FF2.ltrans3.ltrans.o
 .text.DevPathSerialAcpi
                0x000000000001dbec       0xa0 /tmp/Shell.dll.2u1FF2.ltrans3.ltrans.o
 .text.DevPathCompareDefault
                0x000000000001dc8c       0xb4 /tmp/Shell.dll.2u1FF2.ltrans3.ltrans.o
 .text.DevPathSerialIScsi
                0x000000000001dd40       0x68 /tmp/Shell.dll.2u1FF2.ltrans3.ltrans.o
 .text.DevPathSerialVendor
                0x000000000001dda8      0x134 /tmp/Shell.dll.2u1FF2.ltrans3.ltrans.o
 .text.DevPathSerialMacAddr
                0x000000000001dedc       0xd8 /tmp/Shell.dll.2u1FF2.ltrans3.ltrans.o
 .text.DevPathSerialInfiniBand
                0x000000000001dfb4       0xf4 /tmp/Shell.dll.2u1FF2.ltrans3.ltrans.o
 .text.DevPathSerialIPv4
                0x000000000001e0a8       0xf0 /tmp/Shell.dll.2u1FF2.ltrans3.ltrans.o
 .text.DevPathSerialIPv6
                0x000000000001e198      0x124 /tmp/Shell.dll.2u1FF2.ltrans3.ltrans.o
 .text.DevPathSerial1394
                0x000000000001e2bc       0x88 /tmp/Shell.dll.2u1FF2.ltrans3.ltrans.o
 .text.StrniCmp.part.0
                0x000000000001e344       0xdc /tmp/Shell.dll.2u1FF2.ltrans3.ltrans.o
 .text.VerifyIntermediateDirectories
                0x000000000001e420      0x120 /tmp/Shell.dll.2u1FF2.ltrans3.ltrans.o
 .text.ShellCommandRunDate
                0x000000000001e540      0x420 /tmp/Shell.dll.2u1FF2.ltrans3.ltrans.o
                0x000000000001e540                ShellCommandRunDate
 .text.ShellCommandRunTime
                0x000000000001e960      0x744 /tmp/Shell.dll.2u1FF2.ltrans3.ltrans.o
                0x000000000001e960                ShellCommandRunTime
 .text.ShellCommandRunTimeZone
                0x000000000001f0a4      0x6b0 /tmp/Shell.dll.2u1FF2.ltrans3.ltrans.o
                0x000000000001f0a4                ShellCommandRunTimeZone
 .text.LoadDriver
                0x000000000001f754      0x310 /tmp/Shell.dll.2u1FF2.ltrans3.ltrans.o
 .text.ShellCommandRunLoad
                0x000000000001fa64      0x2c8 /tmp/Shell.dll.2u1FF2.ltrans3.ltrans.o
                0x000000000001fa64                ShellCommandRunLoad
 .text.ShellCommandRunLs
                0x000000000001fd2c      0x6f4 /tmp/Shell.dll.2u1FF2.ltrans3.ltrans.o
                0x000000000001fd2c                ShellCommandRunLs
 .text.PerformSingleMappingDelete
                0x0000000000020420       0x80 /tmp/Shell.dll.2u1FF2.ltrans3.ltrans.o
 .text.PerformSingleMappingDisplay
                0x00000000000204a0      0x6a0 /tmp/Shell.dll.2u1FF2.ltrans3.ltrans.o
 .text.PerformMappingDisplay
                0x0000000000020b40      0x390 /tmp/Shell.dll.2u1FF2.ltrans3.ltrans.o
 .text.ShellCommandRunReset
                0x0000000000020ed0      0x3f8 /tmp/Shell.dll.2u1FF2.ltrans3.ltrans.o
                0x0000000000020ed0                ShellCommandRunReset
 .text.ShellCommandRunSet
                0x00000000000212c8      0x444 /tmp/Shell.dll.2u1FF2.ltrans3.ltrans.o
                0x00000000000212c8                ShellCommandRunSet
 .text.ShellCommandRunMkDir
                0x000000000002170c      0x300 /tmp/Shell.dll.2u1FF2.ltrans3.ltrans.o
                0x000000000002170c                ShellCommandRunMkDir
 .text.ShellCommandRunCd
                0x0000000000021a0c      0x640 /tmp/Shell.dll.2u1FF2.ltrans3.ltrans.o
                0x0000000000021a0c                ShellCommandRunCd
 .text.ShellFileHandleGetPath
                0x000000000002204c       0x7c /tmp/Shell.dll.2u1FF2.ltrans3.ltrans.o
                0x000000000002204c                ShellFileHandleGetPath
 .text.ShellFileHandleEof
                0x00000000000220c8       0xb4 /tmp/Shell.dll.2u1FF2.ltrans3.ltrans.o
                0x00000000000220c8                ShellFileHandleEof
 .text.DumpHex  0x000000000002217c      0x104 /tmp/Shell.dll.2u1FF2.ltrans3.ltrans.o
                0x000000000002217c                DumpHex
 .text.ConvertEfiFileProtocolToShellHandle.part.0
                0x0000000000022280       0xa0 /tmp/Shell.dll.2u1FF2.ltrans3.ltrans.o
                0x0000000000022280                ConvertEfiFileProtocolToShellHandle.part.0
 .text.FreeBufferList.part.0
                0x0000000000022320       0x58 /tmp/Shell.dll.2u1FF2.ltrans3.ltrans.o
                0x0000000000022320                FreeBufferList.part.0
 .text.GetHIDevicePath
                0x0000000000022378      0x154 /tmp/Shell.dll.2u1FF2.ltrans3.ltrans.o
                0x0000000000022378                GetHIDevicePath
 .text.ShellCommandConsistMappingGenMappingName
                0x00000000000224cc      0x260 /tmp/Shell.dll.2u1FF2.ltrans3.ltrans.o
 .text.ShellCommandFindMapItem
                0x000000000002272c       0x84 /tmp/Shell.dll.2u1FF2.ltrans3.ltrans.o
                0x000000000002272c                ShellCommandFindMapItem
 .text.ShellCommandCreateInitialMappingsAndPaths
                0x00000000000227b0      0x46c /tmp/Shell.dll.2u1FF2.ltrans3.ltrans.o
                0x00000000000227b0                ShellCommandCreateInitialMappingsAndPaths
 .text.ShellCommandRunMap
                0x0000000000022c1c      0xc88 /tmp/Shell.dll.2u1FF2.ltrans3.ltrans.o
                0x0000000000022c1c                ShellCommandRunMap
 .text.GetFullyQualifiedPath
                0x00000000000238a4       0xd4 /tmp/Shell.dll.2u1FF2.ltrans3.ltrans.o
                0x00000000000238a4                GetFullyQualifiedPath
 .text.PrintNonSfoHeader
                0x0000000000023978       0x64 /tmp/Shell.dll.2u1FF2.ltrans3.ltrans.o
                0x0000000000023978                PrintNonSfoHeader
 .text.FileTimeToLocalTime
                0x00000000000239dc      0x1ac /tmp/Shell.dll.2u1FF2.ltrans3.ltrans.o
                0x00000000000239dc                FileTimeToLocalTime
 .text.ValidateAndCopyFiles
                0x0000000000023b88      0x8e0 /tmp/Shell.dll.2u1FF2.ltrans3.ltrans.o
                0x0000000000023b88                ValidateAndCopyFiles
 .text.CopySingleFile
                0x0000000000024468      0x410 /tmp/Shell.dll.2u1FF2.ltrans3.ltrans.o
                0x0000000000024468                CopySingleFile
 .text.ShellCommandGetManFileNameLevel1
                0x0000000000024878        0xc /tmp/Shell.dll.2u1FF2.ltrans4.ltrans.o
                0x0000000000024878                ShellCommandGetManFileNameLevel1
 .text.ShellCommandGetManFileNameLevel3
                0x0000000000024884        0xc /tmp/Shell.dll.2u1FF2.ltrans4.ltrans.o
                0x0000000000024884                ShellCommandGetManFileNameLevel3
 .text.ProcessValidateAndCopyFiles
                0x0000000000024890      0x1dc /tmp/Shell.dll.2u1FF2.ltrans4.ltrans.o
 .text.ShellCommandRunCp
                0x0000000000024a6c      0x4dc /tmp/Shell.dll.2u1FF2.ltrans4.ltrans.o
                0x0000000000024a6c                ShellCommandRunCp
 .text.IsNextFragment
                0x0000000000024f48       0xd8 /tmp/Shell.dll.2u1FF2.ltrans4.ltrans.o
 .text.ShellCommandRunCls
                0x0000000000025020      0x414 /tmp/Shell.dll.2u1FF2.ltrans4.ltrans.o
                0x0000000000025020                ShellCommandRunCls
 .text.TestNodeForMove
                0x0000000000025434      0x174 /tmp/Shell.dll.2u1FF2.ltrans4.ltrans.o
 .text.ShellIsValidForNumber
                0x00000000000255a8       0xb4 /tmp/Shell.dll.2u1FF2.ltrans4.ltrans.o
 .text.ShellCommandRunParse
                0x000000000002565c      0x600 /tmp/Shell.dll.2u1FF2.ltrans4.ltrans.o
                0x000000000002565c                ShellCommandRunParse
 .text.ShellCommandRunAttrib
                0x0000000000025c5c      0x678 /tmp/Shell.dll.2u1FF2.ltrans4.ltrans.o
                0x0000000000025c5c                ShellCommandRunAttrib
 .text.MoveToTag
                0x00000000000262d4      0x170 /tmp/Shell.dll.2u1FF2.ltrans4.ltrans.o
 .text.InternalIsAliasOnList
                0x0000000000026444       0xf0 /tmp/Shell.dll.2u1FF2.ltrans4.ltrans.o
 .text.CascadeDelete
                0x0000000000026534      0x444 /tmp/Shell.dll.2u1FF2.ltrans4.ltrans.o
 .text.ShellCommandRunRm
                0x0000000000026978      0x41c /tmp/Shell.dll.2u1FF2.ltrans4.ltrans.o
                0x0000000000026978                ShellCommandRunRm
 .text.ShellCommandRunVol
                0x0000000000026d94      0x814 /tmp/Shell.dll.2u1FF2.ltrans4.ltrans.o
                0x0000000000026d94                ShellCommandRunVol
 .text.ShellCommandRunExit
                0x00000000000275a8      0x244 /tmp/Shell.dll.2u1FF2.ltrans4.ltrans.o
                0x00000000000275a8                ShellCommandRunExit
 .text.ReturnUintn
                0x00000000000277ec       0x2c /tmp/Shell.dll.2u1FF2.ltrans4.ltrans.o
 .text.ShellCommandRunStall
                0x0000000000027818      0x270 /tmp/Shell.dll.2u1FF2.ltrans4.ltrans.o
                0x0000000000027818                ShellCommandRunStall
 .text.ShellCommandRunGoto
                0x0000000000027a88      0x2f0 /tmp/Shell.dll.2u1FF2.ltrans4.ltrans.o
                0x0000000000027a88                ShellCommandRunGoto
 .text.PerformResultOperation
                0x0000000000027d78      0x194 /tmp/Shell.dll.2u1FF2.ltrans4.ltrans.o
 .text.ShellCommandRunElse
                0x0000000000027f0c      0x234 /tmp/Shell.dll.2u1FF2.ltrans4.ltrans.o
                0x0000000000027f0c                ShellCommandRunElse
 .text.ShellCommandRunEndIf
                0x0000000000028140      0x18c /tmp/Shell.dll.2u1FF2.ltrans4.ltrans.o
                0x0000000000028140                ShellCommandRunEndIf
 .text.ShellCommandRunEndFor
                0x00000000000282cc      0x188 /tmp/Shell.dll.2u1FF2.ltrans4.ltrans.o
                0x00000000000282cc                ShellCommandRunEndFor
 .text.ShellCommandRunShift
                0x0000000000028454      0x16c /tmp/Shell.dll.2u1FF2.ltrans4.ltrans.o
                0x0000000000028454                ShellCommandRunShift
 .text.ShellCommandRunIf
                0x00000000000285c0     0x16f8 /tmp/Shell.dll.2u1FF2.ltrans4.ltrans.o
                0x00000000000285c0                ShellCommandRunIf
 .text.ShellCommandRunFor
                0x0000000000029cb8      0xd48 /tmp/Shell.dll.2u1FF2.ltrans4.ltrans.o
                0x0000000000029cb8                ShellCommandRunFor
 .text.PrintSingleShellAlias
                0x000000000002aa00       0xbc /tmp/Shell.dll.2u1FF2.ltrans4.ltrans.o
                0x000000000002aa00                PrintSingleShellAlias
 .text.ShellLevel3CommandsLibSetAlias
                0x000000000002aabc       0xbc /tmp/Shell.dll.2u1FF2.ltrans4.ltrans.o
                0x000000000002aabc                ShellLevel3CommandsLibSetAlias
 .text.ValidateAndMoveFiles
                0x000000000002ab78      0xe28 /tmp/Shell.dll.2u1FF2.ltrans4.ltrans.o
 .text.ShellCommandRunMv
                0x000000000002b9a0      0x454 /tmp/Shell.dll.2u1FF2.ltrans4.ltrans.o
                0x000000000002b9a0                ShellCommandRunMv
 .text.ShellCommandGetManFileNameDriver1
                0x000000000002bdf4        0xc /tmp/Shell.dll.2u1FF2.ltrans5.ltrans.o
                0x000000000002bdf4                ShellCommandGetManFileNameDriver1
 .text.ShellCommandRunGetMtc
                0x000000000002be00      0x1ec /tmp/Shell.dll.2u1FF2.ltrans5.ltrans.o
                0x000000000002be00                ShellCommandRunGetMtc
 .text.ShellCommandRunAlias
                0x000000000002bfec      0x3f8 /tmp/Shell.dll.2u1FF2.ltrans5.ltrans.o
                0x000000000002bfec                ShellCommandRunAlias
 .text.ShellCommandRunVer
                0x000000000002c3e4      0x3a0 /tmp/Shell.dll.2u1FF2.ltrans5.ltrans.o
                0x000000000002c3e4                ShellCommandRunVer
 .text.ShellCommandRunEcho
                0x000000000002c784      0x268 /tmp/Shell.dll.2u1FF2.ltrans5.ltrans.o
                0x000000000002c784                ShellCommandRunEcho
 .text.ShellCommandRunPause
                0x000000000002c9ec      0x2a8 /tmp/Shell.dll.2u1FF2.ltrans5.ltrans.o
                0x000000000002c9ec                ShellCommandRunPause
 .text.LexicalInsertIntoList
                0x000000000002cc94      0x128 /tmp/Shell.dll.2u1FF2.ltrans5.ltrans.o
 .text.ShellCommandRunHelp
                0x000000000002cdbc      0x888 /tmp/Shell.dll.2u1FF2.ltrans5.ltrans.o
                0x000000000002cdbc                ShellCommandRunHelp
 .text.DoTouchByHandle
                0x000000000002d644      0x28c /tmp/Shell.dll.2u1FF2.ltrans5.ltrans.o
 .text.ShellCommandRunTouch
                0x000000000002d8d0      0x3f4 /tmp/Shell.dll.2u1FF2.ltrans5.ltrans.o
                0x000000000002d8d0                ShellCommandRunTouch
 .text.ShellCommandRunType
                0x000000000002dcc4      0x758 /tmp/Shell.dll.2u1FF2.ltrans5.ltrans.o
                0x000000000002dcc4                ShellCommandRunType
 .text.ShellConnectFromDevPaths
                0x000000000002e41c      0x3c4 /tmp/Shell.dll.2u1FF2.ltrans5.ltrans.o
 .text.ShellCommandRunConnect
                0x000000000002e7e0      0x690 /tmp/Shell.dll.2u1FF2.ltrans5.ltrans.o
                0x000000000002e7e0                ShellCommandRunConnect
 .text.ShellCommandRunDevices
                0x000000000002ee70      0x5b8 /tmp/Shell.dll.2u1FF2.ltrans5.ltrans.o
                0x000000000002ee70                ShellCommandRunDevices
 .text.ShellCommandRunOpenInfo
                0x000000000002f428      0x504 /tmp/Shell.dll.2u1FF2.ltrans5.ltrans.o
                0x000000000002f428                ShellCommandRunOpenInfo
 .text.ShellCommandRunDisconnect
                0x000000000002f92c      0x558 /tmp/Shell.dll.2u1FF2.ltrans5.ltrans.o
                0x000000000002f92c                ShellCommandRunDisconnect
 .text.ShellCommandRunReconnect
                0x000000000002fe84      0x200 /tmp/Shell.dll.2u1FF2.ltrans5.ltrans.o
                0x000000000002fe84                ShellCommandRunReconnect
 .text.ShellCommandRunUnload
                0x0000000000030084      0x364 /tmp/Shell.dll.2u1FF2.ltrans5.ltrans.o
                0x0000000000030084                ShellCommandRunUnload
 .text.ShellCommandRunDrvDiag
                0x00000000000303e8      0xa60 /tmp/Shell.dll.2u1FF2.ltrans5.ltrans.o
                0x00000000000303e8                ShellCommandRunDrvDiag
 .text.GetDriverName
                0x0000000000030e48       0xf8 /tmp/Shell.dll.2u1FF2.ltrans5.ltrans.o
 .text.ConvertStrToGuid
                0x0000000000030f40      0x1a4 /tmp/Shell.dll.2u1FF2.ltrans5.ltrans.o
 .text.GetProtocolInfoString
                0x00000000000310e4      0x2f0 /tmp/Shell.dll.2u1FF2.ltrans5.ltrans.o
 .text.DoDevTreeForHandle
                0x00000000000313d4      0x21c /tmp/Shell.dll.2u1FF2.ltrans5.ltrans.o
 .text.ShellCommandRunDevTree
                0x00000000000315f0      0x3a8 /tmp/Shell.dll.2u1FF2.ltrans5.ltrans.o
                0x00000000000315f0                ShellCommandRunDevTree
 .text.GetDriverImageName
                0x0000000000031998       0x78 /tmp/Shell.dll.2u1FF2.ltrans5.ltrans.o
 .text.DoDhByHandle
                0x0000000000031a10      0xa9c /tmp/Shell.dll.2u1FF2.ltrans5.ltrans.o
 .text.DoDhByProtocolGuid
                0x00000000000324ac      0x100 /tmp/Shell.dll.2u1FF2.ltrans5.ltrans.o
 .text.ShellCommandRunDh
                0x00000000000325ac      0x638 /tmp/Shell.dll.2u1FF2.ltrans5.ltrans.o
                0x00000000000325ac                ShellCommandRunDh
 .text.ShellCommandRunDrivers
                0x0000000000032be4      0x8b4 /tmp/Shell.dll.2u1FF2.ltrans5.ltrans.o
                0x0000000000032be4                ShellCommandRunDrivers
 .text.FindHiiHandleViaDevPath
                0x0000000000033498      0x278 /tmp/Shell.dll.2u1FF2.ltrans5.ltrans.o
                0x0000000000033498                FindHiiHandleViaDevPath
 .text.ShellCommandGetManFileNameDebug1
                0x0000000000033710        0xc /tmp/Shell.dll.2u1FF2.ltrans6.ltrans.o
                0x0000000000033710                ShellCommandGetManFileNameDebug1
 .text.LineDeleteAt
                0x000000000003371c       0x34 /tmp/Shell.dll.2u1FF2.ltrans6.ltrans.o
 .text.InternalEditorMiscLineAdvance
                0x0000000000033750       0xc0 /tmp/Shell.dll.2u1FF2.ltrans6.ltrans.o
 .text.InternalEditorMiscLineRetreat
                0x0000000000033810       0xc4 /tmp/Shell.dll.2u1FF2.ltrans6.ltrans.o
 .text.FileBufferMovePosition
                0x00000000000338d4      0x138 /tmp/Shell.dll.2u1FF2.ltrans6.ltrans.o
 .text.FileBufferScrollRight
                0x0000000000033a0c       0x64 /tmp/Shell.dll.2u1FF2.ltrans6.ltrans.o
 .text.FileBufferFreeLines
                0x0000000000033a70       0xd0 /tmp/Shell.dll.2u1FF2.ltrans6.ltrans.o
 .text.FileBufferScrollLeft
                0x0000000000033b40       0xac /tmp/Shell.dll.2u1FF2.ltrans6.ltrans.o
 .text.PreHiiDrvCfg
                0x0000000000033bec      0x894 /tmp/Shell.dll.2u1FF2.ltrans6.ltrans.o
 .text.ShellCommandRunDrvCfg
                0x0000000000034480      0xd68 /tmp/Shell.dll.2u1FF2.ltrans6.ltrans.o
                0x0000000000034480                ShellCommandRunDrvCfg
 .text.EditGetDefaultFileName
                0x00000000000351e8       0x8c /tmp/Shell.dll.2u1FF2.ltrans6.ltrans.o
 .text.LineCat  0x0000000000035274       0x7c /tmp/Shell.dll.2u1FF2.ltrans6.ltrans.o
 .text.HMainEditorBackup
                0x00000000000352f0      0x11c /tmp/Shell.dll.2u1FF2.ltrans6.ltrans.o
 .text.MainCommandSwitchFileType
                0x000000000003540c       0x54 /tmp/Shell.dll.2u1FF2.ltrans6.ltrans.o
 .text.MainCommandPasteLine
                0x0000000000035460      0x16c /tmp/Shell.dll.2u1FF2.ltrans6.ltrans.o
 .text.HMainCommandSelectStart
                0x00000000000355cc       0x80 /tmp/Shell.dll.2u1FF2.ltrans6.ltrans.o
 .text.HMainCommandSelectEnd
                0x000000000003564c       0x8c /tmp/Shell.dll.2u1FF2.ltrans6.ltrans.o
 .text.FileBufferCreateLine
                0x00000000000356d8       0xdc /tmp/Shell.dll.2u1FF2.ltrans6.ltrans.o
 .text.MainCommandCutLine
                0x00000000000357b4      0x18c /tmp/Shell.dll.2u1FF2.ltrans6.ltrans.o
 .text.FileBufferRead
                0x0000000000035940      0x56c /tmp/Shell.dll.2u1FF2.ltrans6.ltrans.o
 .text.FileBufferSave
                0x0000000000035eac      0x4b0 /tmp/Shell.dll.2u1FF2.ltrans6.ltrans.o
 .text.FileBufferSearch
                0x000000000003635c      0x13c /tmp/Shell.dll.2u1FF2.ltrans6.ltrans.o
 .text.MainCommandSearch
                0x0000000000036498      0x19c /tmp/Shell.dll.2u1FF2.ltrans6.ltrans.o
 .text.MainCommandExit
                0x0000000000036634       0xe8 /tmp/Shell.dll.2u1FF2.ltrans6.ltrans.o
 .text.MainCommandSearchReplace
                0x000000000003671c      0x748 /tmp/Shell.dll.2u1FF2.ltrans6.ltrans.o
 .text.MainCommandGotoLine
                0x0000000000036e64       0xb0 /tmp/Shell.dll.2u1FF2.ltrans6.ltrans.o
 .text.MainCommandDisplayHelp
                0x0000000000036f14      0x11c /tmp/Shell.dll.2u1FF2.ltrans6.ltrans.o
 .text.MainEditorRefresh
                0x0000000000037030      0x13c /tmp/Shell.dll.2u1FF2.ltrans6.ltrans.o
 .text.HMainCommandDisplayHelp
                0x000000000003716c      0x118 /tmp/Shell.dll.2u1FF2.ltrans6.ltrans.o
 .text.HMainCommandGoToOffset
                0x0000000000037284       0xf8 /tmp/Shell.dll.2u1FF2.ltrans6.ltrans.o
 .text.HMainCommandExit
                0x000000000003737c       0xe8 /tmp/Shell.dll.2u1FF2.ltrans6.ltrans.o
 .text.HMainCommandOpenDisk
                0x0000000000037464      0x2e8 /tmp/Shell.dll.2u1FF2.ltrans6.ltrans.o
 .text.HMainCommandOpenMemory
                0x000000000003774c      0x2b4 /tmp/Shell.dll.2u1FF2.ltrans6.ltrans.o
 .text.HMainCommandCut
                0x0000000000037a00       0xd0 /tmp/Shell.dll.2u1FF2.ltrans6.ltrans.o
 .text.HMainCommandPaste
                0x0000000000037ad0      0x230 /tmp/Shell.dll.2u1FF2.ltrans6.ltrans.o
 .text.ShellCommandRunSetSize
                0x0000000000037d00      0x3b8 /tmp/Shell.dll.2u1FF2.ltrans6.ltrans.o
                0x0000000000037d00                ShellCommandRunSetSize
 .text.GetSystemConfigurationTable
                0x00000000000380b8       0xa0 /tmp/Shell.dll.2u1FF2.ltrans6.ltrans.o
                0x00000000000380b8                GetSystemConfigurationTable
 .text.EditorClearLine
                0x0000000000038158       0xbc /tmp/Shell.dll.2u1FF2.ltrans6.ltrans.o
                0x0000000000038158                EditorClearLine
 .text.IsValidFileName
                0x0000000000038214       0xc8 /tmp/Shell.dll.2u1FF2.ltrans6.ltrans.o
                0x0000000000038214                IsValidFileName
 .text.MainCommandOpenFile
                0x00000000000382dc      0x1d8 /tmp/Shell.dll.2u1FF2.ltrans6.ltrans.o
 .text.MainCommandSaveFile
                0x00000000000384b4      0x2a0 /tmp/Shell.dll.2u1FF2.ltrans6.ltrans.o
 .text.ShellCommandRunHexEdit
                0x0000000000038754     0x128c /tmp/Shell.dll.2u1FF2.ltrans6.ltrans.o
                0x0000000000038754                ShellCommandRunHexEdit
 .text.HMainCommandSaveBuffer
                0x00000000000399e0      0x334 /tmp/Shell.dll.2u1FF2.ltrans6.ltrans.o
 .text.HMainCommandOpenFile
                0x0000000000039d14      0x2d8 /tmp/Shell.dll.2u1FF2.ltrans6.ltrans.o
 .text.MoveLine
                0x0000000000039fec       0x24 /tmp/Shell.dll.2u1FF2.ltrans6.ltrans.o
                0x0000000000039fec                MoveLine
 .text.ShellCommandRunEdit
                0x000000000003a010     0x1070 /tmp/Shell.dll.2u1FF2.ltrans6.ltrans.o
                0x000000000003a010                ShellCommandRunEdit
 .text.HLineAdvance
                0x000000000003b080       0xc8 /tmp/Shell.dll.2u1FF2.ltrans6.ltrans.o
                0x000000000003b080                HLineAdvance
 .text.HLineRetreat
                0x000000000003b148       0xc8 /tmp/Shell.dll.2u1FF2.ltrans6.ltrans.o
                0x000000000003b148                HLineRetreat
 .text.HMoveLine
                0x000000000003b210       0x14 /tmp/Shell.dll.2u1FF2.ltrans6.ltrans.o
                0x000000000003b210                HMoveLine
 .text.PrintDifferentPoint
                0x000000000003b224      0x124 /tmp/Shell.dll.2u1FF2.ltrans6.ltrans.o
                0x000000000003b224                PrintDifferentPoint
 .text.FileBufferUninit.lto_priv.0
                0x000000000003b348       0x2c /tmp/Shell.dll.2u1FF2.ltrans6.ltrans.o
                0x000000000003b348                FileBufferUninit.lto_priv.0
 .text.FileBufferReadByte.lto_priv.0
                0x000000000003b374       0x9c /tmp/Shell.dll.2u1FF2.ltrans6.ltrans.o
                0x000000000003b374                FileBufferReadByte.lto_priv.0
 .text.PciGetClassStrings
                0x000000000003b410       0x98 /tmp/Shell.dll.2u1FF2.ltrans7.ltrans.o
 .text.PciGetProtocolAndResource
                0x000000000003b4a8       0x64 /tmp/Shell.dll.2u1FF2.ltrans7.ltrans.o
 .text.ShellCommandRunComp
                0x000000000003b50c      0xa50 /tmp/Shell.dll.2u1FF2.ltrans7.ltrans.o
                0x000000000003b50c                ShellCommandRunComp
 .text.ShellCommandRunMode
                0x000000000003bf5c      0x41c /tmp/Shell.dll.2u1FF2.ltrans7.ltrans.o
                0x000000000003bf5c                ShellCommandRunMode
 .text.ShellCommandRunMemMap
                0x000000000003c378      0xc90 /tmp/Shell.dll.2u1FF2.ltrans7.ltrans.o
                0x000000000003c378                ShellCommandRunMemMap
 .text.ShellCommandRunEfiCompress
                0x000000000003d008      0x5fc /tmp/Shell.dll.2u1FF2.ltrans7.ltrans.o
                0x000000000003d008                ShellCommandRunEfiCompress
 .text.ShellCommandRunEfiDecompress
                0x000000000003d604      0x710 /tmp/Shell.dll.2u1FF2.ltrans7.ltrans.o
                0x000000000003d604                ShellCommandRunEfiDecompress
 .text.ShellCommandRunDmem
                0x000000000003dd14      0x590 /tmp/Shell.dll.2u1FF2.ltrans7.ltrans.o
                0x000000000003dd14                ShellCommandRunDmem
 .text.LoadEfiDriversFromRomImage
                0x000000000003e2a4      0x39c /tmp/Shell.dll.2u1FF2.ltrans7.ltrans.o
 .text.ShellCommandRunLoadPciRom
                0x000000000003e640      0x3b0 /tmp/Shell.dll.2u1FF2.ltrans7.ltrans.o
                0x000000000003e640                ShellCommandRunLoadPciRom
 .text.ShellMmAccess
                0x000000000003e9f0      0x4a0 /tmp/Shell.dll.2u1FF2.ltrans7.ltrans.o
 .text.ExplainPcieCapReg
                0x000000000003ee90       0xc4 /tmp/Shell.dll.2u1FF2.ltrans7.ltrans.o
 .text.ExplainPcieDeviceCap
                0x000000000003ef54      0x254 /tmp/Shell.dll.2u1FF2.ltrans7.ltrans.o
 .text.ExplainPcieDeviceControl
                0x000000000003f1a8      0x200 /tmp/Shell.dll.2u1FF2.ltrans7.ltrans.o
 .text.ExplainPcieDeviceStatus
                0x000000000003f3a8       0xc8 /tmp/Shell.dll.2u1FF2.ltrans7.ltrans.o
 .text.ExplainPcieLinkCap
                0x000000000003f470      0x18c /tmp/Shell.dll.2u1FF2.ltrans7.ltrans.o
 .text.ExplainPcieLinkControl
                0x000000000003f5fc      0x168 /tmp/Shell.dll.2u1FF2.ltrans7.ltrans.o
 .text.ExplainPcieLinkStatus
                0x000000000003f764      0x110 /tmp/Shell.dll.2u1FF2.ltrans7.ltrans.o
 .text.ExplainPcieSlotCap
                0x000000000003f874      0x18c /tmp/Shell.dll.2u1FF2.ltrans7.ltrans.o
 .text.ExplainPcieSlotControl
                0x000000000003fa00      0x184 /tmp/Shell.dll.2u1FF2.ltrans7.ltrans.o
 .text.ExplainPcieSlotStatus
                0x000000000003fb84      0x17c /tmp/Shell.dll.2u1FF2.ltrans7.ltrans.o
 .text.ExplainPcieRootControl
                0x000000000003fd00       0xac /tmp/Shell.dll.2u1FF2.ltrans7.ltrans.o
 .text.ExplainPcieRootCap
                0x000000000003fdac       0x30 /tmp/Shell.dll.2u1FF2.ltrans7.ltrans.o
 .text.ExplainPcieRootStatus
                0x000000000003fddc       0x70 /tmp/Shell.dll.2u1FF2.ltrans7.ltrans.o
 .text.ShellCommandRunMm
                0x000000000003fe4c      0x918 /tmp/Shell.dll.2u1FF2.ltrans7.ltrans.o
                0x000000000003fe4c                ShellCommandRunMm
 .text.IsStringOfHexNibbles
                0x0000000000040764       0x3c /tmp/Shell.dll.2u1FF2.ltrans7.ltrans.o
 .text.ParseParameterData
                0x00000000000407a0      0x624 /tmp/Shell.dll.2u1FF2.ltrans7.ltrans.o
 .text.ShellCommandRunSetVar
                0x0000000000040dc4      0x768 /tmp/Shell.dll.2u1FF2.ltrans7.ltrans.o
                0x0000000000040dc4                ShellCommandRunSetVar
 .text.DisplaySettings
                0x000000000004152c      0x214 /tmp/Shell.dll.2u1FF2.ltrans7.ltrans.o
 .text.ShellCommandRunSerMode
                0x0000000000041740      0x518 /tmp/Shell.dll.2u1FF2.ltrans7.ltrans.o
                0x0000000000041740                ShellCommandRunSerMode
 .text.ShellCommandRunPci
                0x0000000000041c58     0x1714 /tmp/Shell.dll.2u1FF2.ltrans7.ltrans.o
                0x0000000000041c58                ShellCommandRunPci
 .text.PutDword
                0x000000000004336c       0x7c /tmp/Shell.dll.2u1FF2.ltrans8.ltrans.o
 .text.Child    0x00000000000433e8       0x44 /tmp/Shell.dll.2u1FF2.ltrans8.ltrans.o
 .text.MakeChild
                0x000000000004342c       0x68 /tmp/Shell.dll.2u1FF2.ltrans8.ltrans.o
 .text.InsertNode
                0x0000000000043494      0x31c /tmp/Shell.dll.2u1FF2.ltrans8.ltrans.o
 .text.FreadCrc
                0x00000000000437b0       0xbc /tmp/Shell.dll.2u1FF2.ltrans8.ltrans.o
 .text.DownHeap
                0x000000000004386c       0x84 /tmp/Shell.dll.2u1FF2.ltrans8.ltrans.o
 .text.CountLen
                0x00000000000438f0       0x90 /tmp/Shell.dll.2u1FF2.ltrans8.ltrans.o
 .text.MakeTree
                0x0000000000043980      0x2d0 /tmp/Shell.dll.2u1FF2.ltrans8.ltrans.o
 .text.PutBits  0x0000000000043c50       0xc8 /tmp/Shell.dll.2u1FF2.ltrans8.ltrans.o
 .text.WritePTLen
                0x0000000000043d18       0xd8 /tmp/Shell.dll.2u1FF2.ltrans8.ltrans.o
 .text.MemToString
                0x0000000000043df0       0x20 /tmp/Shell.dll.2u1FF2.ltrans8.ltrans.o
 .text.ShellCommandGetManFileNameI2cDemo.lto_priv.0
                0x0000000000043e10        0xc /tmp/Shell.dll.2u1FF2.ltrans8.ltrans.o
                0x0000000000043e10                ShellCommandGetManFileNameI2cDemo.lto_priv.0
 .text.ShellCommandGetManFileNameSpiFlash
                0x0000000000043e1c        0xc /tmp/Shell.dll.2u1FF2.ltrans8.ltrans.o
                0x0000000000043e1c                ShellCommandGetManFileNameSpiFlash
 .text.NodeIsNullOrBlack
                0x0000000000043e28       0x1c /tmp/Shell.dll.2u1FF2.ltrans8.ltrans.o
 .text.GetAttrType
                0x0000000000043e44      0x118 /tmp/Shell.dll.2u1FF2.ltrans8.ltrans.o
 .text.FreeMemory
                0x0000000000043f5c       0xb8 /tmp/Shell.dll.2u1FF2.ltrans8.ltrans.o
 .text.GetNextMatch
                0x0000000000044014      0x254 /tmp/Shell.dll.2u1FF2.ltrans8.ltrans.o
 .text.CascadeProcessVariables
                0x0000000000044268      0x5e4 /tmp/Shell.dll.2u1FF2.ltrans8.ltrans.o
 .text.HBufferImageCreateLine
                0x000000000004484c       0xb8 /tmp/Shell.dll.2u1FF2.ltrans8.ltrans.o
 .text.ShellCommandRunDmpStore
                0x0000000000044904      0xc00 /tmp/Shell.dll.2u1FF2.ltrans8.ltrans.o
                0x0000000000044904                ShellCommandRunDmpStore
 .text.ShellCommandRunDblk
                0x0000000000045504      0x568 /tmp/Shell.dll.2u1FF2.ltrans8.ltrans.o
                0x0000000000045504                ShellCommandRunDblk
 .text.InputBarPrintInput
                0x0000000000045a6c      0x120 /tmp/Shell.dll.2u1FF2.ltrans8.ltrans.o
 .text.SendBlock
                0x0000000000045b8c      0x4b0 /tmp/Shell.dll.2u1FF2.ltrans8.ltrans.o
 .text.CompressOutput
                0x000000000004603c      0x120 /tmp/Shell.dll.2u1FF2.ltrans8.ltrans.o
 .text.CatVSPrint
                0x000000000004615c      0x104 /tmp/Shell.dll.2u1FF2.ltrans8.ltrans.o
 .text.LibGetSmbiosString
                0x0000000000046260       0x58 /tmp/Shell.dll.2u1FF2.ltrans8.ltrans.o
                0x0000000000046260                LibGetSmbiosString
 .text.LibGetSmbios64BitStructure
                0x00000000000462b8      0x100 /tmp/Shell.dll.2u1FF2.ltrans8.ltrans.o
 .text.LibGetSmbiosStructure
                0x00000000000463b8      0x104 /tmp/Shell.dll.2u1FF2.ltrans8.ltrans.o
 .text.MainTitleBarCleanup
                0x00000000000464bc       0x30 /tmp/Shell.dll.2u1FF2.ltrans8.ltrans.o
                0x00000000000464bc                MainTitleBarCleanup
 .text.InputBarCleanup
                0x00000000000464ec       0x48 /tmp/Shell.dll.2u1FF2.ltrans8.ltrans.o
                0x00000000000464ec                InputBarCleanup
 .text.InputBarRefresh
                0x0000000000046534      0x258 /tmp/Shell.dll.2u1FF2.ltrans8.ltrans.o
                0x0000000000046534                InputBarRefresh
 .text.InputBarSetStringSize
                0x000000000004678c       0x58 /tmp/Shell.dll.2u1FF2.ltrans8.ltrans.o
                0x000000000004678c                InputBarSetStringSize
 .text.StatusBarCleanup
                0x00000000000467e4       0x2c /tmp/Shell.dll.2u1FF2.ltrans8.ltrans.o
                0x00000000000467e4                StatusBarCleanup
 .text.MenuBarCleanup
                0x0000000000046810       0x2c /tmp/Shell.dll.2u1FF2.ltrans8.ltrans.o
                0x0000000000046810                MenuBarCleanup
 .text.MenuBarInit
                0x000000000004683c       0x94 /tmp/Shell.dll.2u1FF2.ltrans8.ltrans.o
                0x000000000004683c                MenuBarInit
 .text.HBufferImageFreeLines
                0x00000000000468d0       0xb0 /tmp/Shell.dll.2u1FF2.ltrans8.ltrans.o
                0x00000000000468d0                HBufferImageFreeLines
 .text.HBufferImageIsAtHighBits
                0x0000000000046980       0x50 /tmp/Shell.dll.2u1FF2.ltrans8.ltrans.o
                0x0000000000046980                HBufferImageIsAtHighBits
 .text.HBufferImageIsInSelectedArea
                0x00000000000469d0       0xac /tmp/Shell.dll.2u1FF2.ltrans8.ltrans.o
                0x00000000000469d0                HBufferImageIsInSelectedArea
 .text.HBufferImageMovePosition
                0x0000000000046a7c       0xe4 /tmp/Shell.dll.2u1FF2.ltrans8.ltrans.o
                0x0000000000046a7c                HBufferImageMovePosition
 .text.HBufferImageGetTotalSize
                0x0000000000046b60       0x90 /tmp/Shell.dll.2u1FF2.ltrans8.ltrans.o
                0x0000000000046b60                HBufferImageGetTotalSize
 .text.HBufferImageBufferToList
                0x0000000000046bf0       0xa8 /tmp/Shell.dll.2u1FF2.ltrans8.ltrans.o
                0x0000000000046bf0                HBufferImageBufferToList
 .text.HBufferImageListToBuffer
                0x0000000000046c98       0xec /tmp/Shell.dll.2u1FF2.ltrans8.ltrans.o
                0x0000000000046c98                HBufferImageListToBuffer
 .text.Compress
                0x0000000000046d84      0x450 /tmp/Shell.dll.2u1FF2.ltrans8.ltrans.o
                0x0000000000046d84                Compress
 .text.DisplayBiosCharacteristics.part.0
                0x00000000000471d4      0x3d0 /tmp/Shell.dll.2u1FF2.ltrans8.ltrans.o
                0x00000000000471d4                DisplayBiosCharacteristics.part.0
 .text.CompareMem
                0x00000000000475a4       0xd0 /tmp/Shell.dll.2u1FF2.ltrans8.ltrans.o
                0x00000000000475a4                CompareMem
 .text.SwapBytes64
                0x0000000000047674       0x34 /tmp/Shell.dll.2u1FF2.ltrans8.ltrans.o
                0x0000000000047674                SwapBytes64
 .text.DivU64x32Remainder
                0x00000000000476a8       0x54 /tmp/Shell.dll.2u1FF2.ltrans8.ltrans.o
                0x00000000000476a8                DivU64x32Remainder
 .text.ReadUnaligned16
                0x00000000000476fc       0x5c /tmp/Shell.dll.2u1FF2.ltrans8.ltrans.o
                0x00000000000476fc                ReadUnaligned16
 .text.ReadUnaligned32
                0x0000000000047758       0x50 /tmp/Shell.dll.2u1FF2.ltrans8.ltrans.o
                0x0000000000047758                ReadUnaligned32
 .text.ReadUnaligned64
                0x00000000000477a8       0x5c /tmp/Shell.dll.2u1FF2.ltrans8.ltrans.o
                0x00000000000477a8                ReadUnaligned64
 .text.MmioRead8
                0x0000000000047804        0x8 /tmp/Shell.dll.2u1FF2.ltrans8.ltrans.o
                0x0000000000047804                MmioRead8
 .text.MmioRead16
                0x000000000004780c       0x3c /tmp/Shell.dll.2u1FF2.ltrans8.ltrans.o
                0x000000000004780c                MmioRead16
 .text.MmioRead32
                0x0000000000047848       0x40 /tmp/Shell.dll.2u1FF2.ltrans8.ltrans.o
                0x0000000000047848                MmioRead32
 .text.MmioRead64
                0x0000000000047888       0x40 /tmp/Shell.dll.2u1FF2.ltrans8.ltrans.o
                0x0000000000047888                MmioRead64
 .text.Print    0x00000000000478c8      0x16c /tmp/Shell.dll.2u1FF2.ltrans8.ltrans.o
                0x00000000000478c8                Print
 .text.SmbiosPrintEPSInfo
                0x0000000000047a34      0x224 /tmp/Shell.dll.2u1FF2.ltrans8.ltrans.o
 .text.Smbios64BitPrintEPSInfo
                0x0000000000047c58      0x178 /tmp/Shell.dll.2u1FF2.ltrans8.ltrans.o
 .text.ShellCommandRunSmbiosView
                0x0000000000047dd0      0xfb8 /tmp/Shell.dll.2u1FF2.ltrans8.ltrans.o
                0x0000000000047dd0                ShellCommandRunSmbiosView
 .text.DisplayMmMemorySize
                0x0000000000048d88      0x100 /tmp/Shell.dll.2u1FF2.ltrans8.ltrans.o
                0x0000000000048d88                DisplayMmMemorySize
 .text.PrintBitsInfo
                0x0000000000048e88       0xd0 /tmp/Shell.dll.2u1FF2.ltrans8.ltrans.o
                0x0000000000048e88                PrintBitsInfo
 .text.DisplaySystemEnclosureStatus
                0x0000000000048f58       0x8c /tmp/Shell.dll.2u1FF2.ltrans8.ltrans.o
                0x0000000000048f58                DisplaySystemEnclosureStatus
 .text.DisplayMcErrorCorrectCapability
                0x0000000000048fe4       0x7c /tmp/Shell.dll.2u1FF2.ltrans8.ltrans.o
                0x0000000000048fe4                DisplayMcErrorCorrectCapability
 .text.DisplayMcInterleaveSupport
                0x0000000000049060       0x8c /tmp/Shell.dll.2u1FF2.ltrans8.ltrans.o
                0x0000000000049060                DisplayMcInterleaveSupport
 .text.DisplayMmMemoryType
                0x00000000000490ec       0x7c /tmp/Shell.dll.2u1FF2.ltrans8.ltrans.o
                0x00000000000490ec                DisplayMmMemoryType
 .text.DisplayPortConnectorType
                0x0000000000049168       0x8c /tmp/Shell.dll.2u1FF2.ltrans8.ltrans.o
                0x0000000000049168                DisplayPortConnectorType
 .text.DisplaySystemSlotType
                0x00000000000491f4       0x8c /tmp/Shell.dll.2u1FF2.ltrans8.ltrans.o
                0x00000000000491f4                DisplaySystemSlotType
 .text.DisplayOnboardDeviceTypes
                0x0000000000049280       0x8c /tmp/Shell.dll.2u1FF2.ltrans8.ltrans.o
                0x0000000000049280                DisplayOnboardDeviceTypes
 .text.DisplaySELTypes
                0x000000000004930c       0x8c /tmp/Shell.dll.2u1FF2.ltrans8.ltrans.o
                0x000000000004930c                DisplaySELTypes
 .text.DisplaySELVarDataFormatType
                0x0000000000049398       0x8c /tmp/Shell.dll.2u1FF2.ltrans8.ltrans.o
                0x0000000000049398                DisplaySELVarDataFormatType
 .text.DisplayMemoryErrorType
                0x0000000000049424       0x8c /tmp/Shell.dll.2u1FF2.ltrans8.ltrans.o
                0x0000000000049424                DisplayMemoryErrorType
 .text.DisplayMemoryErrorGranularity
                0x00000000000494b0       0x8c /tmp/Shell.dll.2u1FF2.ltrans8.ltrans.o
                0x00000000000494b0                DisplayMemoryErrorGranularity
 .text.DisplayMemoryErrorOperation
                0x000000000004953c       0x8c /tmp/Shell.dll.2u1FF2.ltrans8.ltrans.o
                0x000000000004953c                DisplayMemoryErrorOperation
 .text.ShellCommandRunI2cDemo
                0x00000000000495c8      0x4fc /tmp/Shell.dll.2u1FF2.ltrans8.ltrans.o
                0x00000000000495c8                ShellCommandRunI2cDemo
 .text.ShellCommandRunSpiFlash
                0x0000000000049ac4      0x6ac /tmp/Shell.dll.2u1FF2.ltrans8.ltrans.o
                0x0000000000049ac4                ShellCommandRunSpiFlash
 .text.CatSPrint
                0x000000000004a170       0x74 /tmp/Shell.dll.2u1FF2.ltrans8.ltrans.o
                0x000000000004a170                CatSPrint
 .text.InputBarSetPrompt
                0x000000000004a1e4       0x58 /tmp/Shell.dll.2u1FF2.ltrans8.ltrans.o
                0x000000000004a1e4                InputBarSetPrompt
 .text.StatusBarSetStatusString
                0x000000000004a23c       0x64 /tmp/Shell.dll.2u1FF2.ltrans8.ltrans.o
                0x000000000004a23c                StatusBarSetStatusString
 .text.HBufferImageHandleInput
                0x000000000004a2a0      0x538 /tmp/Shell.dll.2u1FF2.ltrans8.ltrans.o
                0x000000000004a2a0                HBufferImageHandleInput
 .text.HDiskImageRead
                0x000000000004a7d8      0x2fc /tmp/Shell.dll.2u1FF2.ltrans8.ltrans.o
                0x000000000004a7d8                HDiskImageRead
 .text.HFileImageRead
                0x000000000004aad4      0x2c4 /tmp/Shell.dll.2u1FF2.ltrans8.ltrans.o
                0x000000000004aad4                HFileImageRead
 .text.HMemImageRead
                0x000000000004ad98      0x1d8 /tmp/Shell.dll.2u1FF2.ltrans8.ltrans.o
                0x000000000004ad98                HMemImageRead
 .text.HBufferImageRead
                0x000000000004af70       0x8c /tmp/Shell.dll.2u1FF2.ltrans8.ltrans.o
                0x000000000004af70                HBufferImageRead
 .text.EfiGetNameGuidFromFwVolDevicePathNode
                0x000000000004affc       0x78 /tmp/Shell.dll.2u1FF2.ltrans8.ltrans.o
                0x000000000004affc                EfiGetNameGuidFromFwVolDevicePathNode
 .text.PeCoffLoaderGetPdbPointer
                0x000000000004b074      0x1ac /tmp/Shell.dll.2u1FF2.ltrans8.ltrans.o
                0x000000000004b074                PeCoffLoaderGetPdbPointer
 .text.OrderedCollectionUninit
                0x000000000004b220       0x40 /tmp/Shell.dll.2u1FF2.ltrans8.ltrans.o
                0x000000000004b220                OrderedCollectionUninit
 .text.OrderedCollectionFind
                0x000000000004b260       0x58 /tmp/Shell.dll.2u1FF2.ltrans8.ltrans.o
                0x000000000004b260                OrderedCollectionFind
 .text.OrderedCollectionNext
                0x000000000004b2b8       0x38 /tmp/Shell.dll.2u1FF2.ltrans8.ltrans.o
                0x000000000004b2b8                OrderedCollectionNext
 .text.RedBlackTreeRotateRight
                0x000000000004b2f0       0x48 /tmp/Shell.dll.2u1FF2.ltrans8.ltrans.o
                0x000000000004b2f0                RedBlackTreeRotateRight
 .text.RedBlackTreeRotateLeft
                0x000000000004b338       0x4c /tmp/Shell.dll.2u1FF2.ltrans8.ltrans.o
                0x000000000004b338                RedBlackTreeRotateLeft
 .text.OrderedCollectionDelete
                0x000000000004b384      0x3f4 /tmp/Shell.dll.2u1FF2.ltrans8.ltrans.o
                0x000000000004b384                OrderedCollectionDelete
 .text.ShellCommandGetManFileNameBcfg
                0x000000000004b778        0xc /tmp/Shell.dll.2u1FF2.ltrans9.ltrans.o
 .text.GetDevicePathForDriverHandle
                0x000000000004b784      0x100 /tmp/Shell.dll.2u1FF2.ltrans9.ltrans.o
 .text.BcfgMod  0x000000000004b884      0x978 /tmp/Shell.dll.2u1FF2.ltrans9.ltrans.o
 .text.QuickSortWorker.constprop.0
                0x000000000004c1fc      0x17c /tmp/Shell.dll.2u1FF2.ltrans9.ltrans.o
 .text.InternalCommandLineParse.part.0.constprop.0
                0x000000000004c378      0x454 /tmp/Shell.dll.2u1FF2.ltrans9.ltrans.o
 .text.ManFileFindTitleSection.constprop.0
                0x000000000004c7cc      0x284 /tmp/Shell.dll.2u1FF2.ltrans9.ltrans.o
 .text.BcfgLibraryRegisterBcfgCommand.part.0
                0x000000000004ca50       0x84 /tmp/Shell.dll.2u1FF2.ltrans9.ltrans.o
                0x000000000004ca50                BcfgLibraryRegisterBcfgCommand.part.0
 .text.DisplaySELSysManagementTypes.constprop.0
                0x000000000004cad4       0xc4 /tmp/Shell.dll.2u1FF2.ltrans9.ltrans.o
                0x000000000004cad4                DisplaySELSysManagementTypes.constprop.0
 .text.IoRead8.constprop.0
                0x000000000004cb98       0x2c /tmp/Shell.dll.2u1FF2.ltrans9.ltrans.o
                0x000000000004cb98                IoRead8.constprop.0
 .text.IoRead16.constprop.0
                0x000000000004cbc4       0x2c /tmp/Shell.dll.2u1FF2.ltrans9.ltrans.o
                0x000000000004cbc4                IoRead16.constprop.0
 .text.IoRead32.constprop.0
                0x000000000004cbf0       0x2c /tmp/Shell.dll.2u1FF2.ltrans9.ltrans.o
                0x000000000004cbf0                IoRead32.constprop.0
 .text.IoRead64.constprop.0
                0x000000000004cc1c       0x2c /tmp/Shell.dll.2u1FF2.ltrans9.ltrans.o
                0x000000000004cc1c                IoRead64.constprop.0
 .text.MultU64x64.constprop.0
                0x000000000004cc48        0x8 /tmp/Shell.dll.2u1FF2.ltrans9.ltrans.o
                0x000000000004cc48                MultU64x64.constprop.0
 .text.HBufferImageSave.constprop.0
                0x000000000004cc50      0x464 /tmp/Shell.dll.2u1FF2.ltrans9.ltrans.o
                0x000000000004cc50                HBufferImageSave.constprop.0
 .text.ModU64x32.constprop.0
                0x000000000004d0b4        0x8 /tmp/Shell.dll.2u1FF2.ltrans9.ltrans.o
                0x000000000004d0b4                ModU64x32.constprop.0
 .text.ConvertHandleToHiiHandle.constprop.0
                0x000000000004d0bc       0x94 /tmp/Shell.dll.2u1FF2.ltrans9.ltrans.o
                0x000000000004d0bc                ConvertHandleToHiiHandle.constprop.0
 .text.SearchList.constprop.0
                0x000000000004d150      0x1b4 /tmp/Shell.dll.2u1FF2.ltrans9.ltrans.o
                0x000000000004d150                SearchList.constprop.0
 .text.CatSDumpHex.constprop.0
                0x000000000004d304      0x120 /tmp/Shell.dll.2u1FF2.ltrans9.ltrans.o
                0x000000000004d304                CatSDumpHex.constprop.0
 .text.ShellIsHexOrDecimalNumber.constprop.0
                0x000000000004d424       0x30 /tmp/Shell.dll.2u1FF2.ltrans9.ltrans.o
                0x000000000004d424                ShellIsHexOrDecimalNumber.constprop.0
 .text.ShellCommandLineParseEx.constprop.0
                0x000000000004d454       0xc4 /tmp/Shell.dll.2u1FF2.ltrans9.ltrans.o
                0x000000000004d454                ShellCommandLineParseEx.constprop.0
 .text.ShellCommandRunBcfg
                0x000000000004d518     0x22b0 /tmp/Shell.dll.2u1FF2.ltrans9.ltrans.o
 .text.StrnCatGrowLeft.constprop.0
                0x000000000004f7c8       0xf8 /tmp/Shell.dll.2u1FF2.ltrans9.ltrans.o
                0x000000000004f7c8                StrnCatGrowLeft.constprop.0
 .text.FileHandleFindFirstFile.constprop.0
                0x000000000004f8c0      0x104 /tmp/Shell.dll.2u1FF2.ltrans9.ltrans.o
                0x000000000004f8c0                FileHandleFindFirstFile.constprop.0
 .text.CreateAndPopulateShellFileInfo.constprop.0
                0x000000000004f9c4      0x160 /tmp/Shell.dll.2u1FF2.ltrans9.ltrans.o
                0x000000000004f9c4                CreateAndPopulateShellFileInfo.constprop.0
 .text.OrderedCollectionInsert.constprop.0
                0x000000000004fb24      0x228 /tmp/Shell.dll.2u1FF2.ltrans9.ltrans.o
                0x000000000004fb24                OrderedCollectionInsert.constprop.0
 .text.OrderedCollectionInit.constprop.0
                0x000000000004fd4c       0x34 /tmp/Shell.dll.2u1FF2.ltrans9.ltrans.o
                0x000000000004fd4c                OrderedCollectionInit.constprop.0
 .text.GetBestLanguageForDriver.constprop.0
                0x000000000004fd80       0x84 /tmp/Shell.dll.2u1FF2.ltrans9.ltrans.o
                0x000000000004fd80                GetBestLanguageForDriver.constprop.0
 .text.ShellSetFilePosition.constprop.0
                0x000000000004fe04       0x14 /tmp/Shell.dll.2u1FF2.ltrans9.ltrans.o
                0x000000000004fe04                ShellSetFilePosition.constprop.0
 .text.ProcessManFile.constprop.0
                0x000000000004fe18      0x73c /tmp/Shell.dll.2u1FF2.ltrans9.ltrans.o
                0x000000000004fe18                ProcessManFile.constprop.0
 .text.ShellLibConstructorWorker.constprop.0
                0x0000000000050554      0x3c0 /tmp/Shell.dll.2u1FF2.ltrans9.ltrans.o
                0x0000000000050554                ShellLibConstructorWorker.constprop.0
 .text.PerformQuickSort.constprop.0
                0x0000000000050914       0x90 /tmp/Shell.dll.2u1FF2.ltrans9.ltrans.o
                0x0000000000050914                PerformQuickSort.constprop.0
 .text.ShellCommandAddMapItemAndUpdatePath.constprop.0
                0x00000000000509a4      0x240 /tmp/Shell.dll.2u1FF2.ltrans9.ltrans.o
                0x00000000000509a4                ShellCommandAddMapItemAndUpdatePath.constprop.0
 .text.IsDevicePathValid.constprop.0
                0x0000000000050be4       0xc8 /tmp/Shell.dll.2u1FF2.ltrans9.ltrans.o
                0x0000000000050be4                IsDevicePathValid.constprop.0
 .text.CreateFileInterfaceFile.constprop.0
                0x0000000000050cac       0xbc /tmp/Shell.dll.2u1FF2.ltrans9.ltrans.o
                0x0000000000050cac                CreateFileInterfaceFile.constprop.0
 .text.ShellFindFilePathEx.constprop.0
                0x0000000000050d68      0x10c /tmp/Shell.dll.2u1FF2.ltrans9.ltrans.o
                0x0000000000050d68                ShellFindFilePathEx.constprop.0
 .text.FindNextInstance.constprop.0
                0x0000000000050e74       0x54 /tmp/Shell.dll.2u1FF2.ltrans9.ltrans.o
                0x0000000000050e74                FindNextInstance.constprop.0
 .text.ShellCopySearchAndReplace.constprop.0
                0x0000000000050ec8      0x19c /tmp/Shell.dll.2u1FF2.ltrans9.ltrans.o
                0x0000000000050ec8                ShellCopySearchAndReplace.constprop.0
 .text.RunScriptFile.constprop.0
                0x0000000000051064      0xc70 /tmp/Shell.dll.2u1FF2.ltrans9.ltrans.o
                0x0000000000051064                RunScriptFile.constprop.0
 .text.InternalAllocatePool.constprop.0
                0x0000000000051cd4       0x38 /tmp/Shell.dll.2u1FF2.ltrans9.ltrans.o
                0x0000000000051cd4                InternalAllocatePool.constprop.0
 .text.ShellLibDestructor.constprop.0
                0x0000000000051d0c      0x118 /tmp/Shell.dll.2u1FF2.ltrans9.ltrans.o
                0x0000000000051d0c                ShellLibDestructor.constprop.0
 .text.BasePrintLibSPrintMarker.constprop.0
                0x0000000000051e24      0xfc4 /tmp/Shell.dll.2u1FF2.ltrans9.ltrans.o
                0x0000000000051e24                BasePrintLibSPrintMarker.constprop.0
 .text.BasePrintLibSPrint.constprop.0
                0x0000000000052de8       0x54 /tmp/Shell.dll.2u1FF2.ltrans9.ltrans.o
 .text.UartWrite.constprop.0.isra.0
                0x0000000000052e3c       0x54 /tmp/Shell.dll.2u1FF2.ltrans9.ltrans.o
                0x0000000000052e3c                UartWrite.constprop.0.isra.0
 .text.ConsoleLoggerDisplayHistory.constprop.0.isra.0
                0x0000000000052e90       0xb4 /tmp/Shell.dll.2u1FF2.ltrans9.ltrans.o
                0x0000000000052e90                ConsoleLoggerDisplayHistory.constprop.0.isra.0
 .text.StrHexToUint64S.constprop.0.isra.0
                0x0000000000052f44      0x194 /tmp/Shell.dll.2u1FF2.ltrans9.ltrans.o
                0x0000000000052f44                StrHexToUint64S.constprop.0.isra.0
 .text.StrToIpv6Address.constprop.0.isra.0
                0x00000000000530d8      0x250 /tmp/Shell.dll.2u1FF2.ltrans9.ltrans.o
                0x00000000000530d8                StrToIpv6Address.constprop.0.isra.0
 .text.StrToIpv4Address.constprop.0.isra.0
                0x0000000000053328      0x14c /tmp/Shell.dll.2u1FF2.ltrans9.ltrans.o
                0x0000000000053328                StrToIpv4Address.constprop.0.isra.0
 .text.UnicodeStrToAsciiStrS.constprop.0.isra.0
                0x0000000000053474      0x174 /tmp/Shell.dll.2u1FF2.ltrans9.ltrans.o
                0x0000000000053474                UnicodeStrToAsciiStrS.constprop.0.isra.0
 .text.UnicodeValueToStringS.constprop.0.isra.0
                0x00000000000535e8      0x120 /tmp/Shell.dll.2u1FF2.ltrans10.ltrans.o
                0x00000000000535e8                UnicodeValueToStringS.constprop.0.isra.0
 .text.StatusBarRefresh.constprop.0.isra.0
                0x0000000000053708      0x188 /tmp/Shell.dll.2u1FF2.ltrans10.ltrans.o
                0x0000000000053708                StatusBarRefresh.constprop.0.isra.0
 .text.IoWrite64.constprop.0.isra.0
                0x0000000000053890       0x18 /tmp/Shell.dll.2u1FF2.ltrans10.ltrans.o
                0x0000000000053890                IoWrite64.constprop.0.isra.0
 .text.IoWrite32.constprop.0.isra.0
                0x00000000000538a8       0x18 /tmp/Shell.dll.2u1FF2.ltrans10.ltrans.o
                0x00000000000538a8                IoWrite32.constprop.0.isra.0
 .text.IoWrite16.constprop.0.isra.0
                0x00000000000538c0       0x18 /tmp/Shell.dll.2u1FF2.ltrans10.ltrans.o
                0x00000000000538c0                IoWrite16.constprop.0.isra.0
 .text.IoWrite8.constprop.0.isra.0
                0x00000000000538d8       0x18 /tmp/Shell.dll.2u1FF2.ltrans10.ltrans.o
                0x00000000000538d8                IoWrite8.constprop.0.isra.0
 .text.QueryTable.constprop.0.isra.0
                0x00000000000538f0       0xac /tmp/Shell.dll.2u1FF2.ltrans10.ltrans.o
                0x00000000000538f0                QueryTable.constprop.0.isra.0
 .text.OrderedCollectionMin.isra.0
                0x000000000005399c       0x18 /tmp/Shell.dll.2u1FF2.ltrans10.ltrans.o
                0x000000000005399c                OrderedCollectionMin.isra.0
 .text.OrderedCollectionUserStruct.isra.0
                0x00000000000539b4        0x4 /tmp/Shell.dll.2u1FF2.ltrans10.ltrans.o
                0x00000000000539b4                OrderedCollectionUserStruct.isra.0
 .text.MmioWrite64.isra.0
                0x00000000000539b8       0x44 /tmp/Shell.dll.2u1FF2.ltrans10.ltrans.o
                0x00000000000539b8                MmioWrite64.isra.0
 .text.MmioWrite32.isra.0
                0x00000000000539fc       0x44 /tmp/Shell.dll.2u1FF2.ltrans10.ltrans.o
                0x00000000000539fc                MmioWrite32.isra.0
 .text.MmioWrite16.isra.0
                0x0000000000053a40       0x40 /tmp/Shell.dll.2u1FF2.ltrans10.ltrans.o
                0x0000000000053a40                MmioWrite16.isra.0
 .text.MmioWrite8.isra.0
                0x0000000000053a80        0xc /tmp/Shell.dll.2u1FF2.ltrans10.ltrans.o
                0x0000000000053a80                MmioWrite8.isra.0
 .text.WriteUnaligned16.isra.0
                0x0000000000053a8c       0x4c /tmp/Shell.dll.2u1FF2.ltrans10.ltrans.o
                0x0000000000053a8c                WriteUnaligned16.isra.0
 .text.WriteUnaligned32.isra.0
                0x0000000000053ad8       0x50 /tmp/Shell.dll.2u1FF2.ltrans10.ltrans.o
                0x0000000000053ad8                WriteUnaligned32.isra.0
 .text.WriteUnaligned64.isra.0
                0x0000000000053b28       0x38 /tmp/Shell.dll.2u1FF2.ltrans10.ltrans.o
                0x0000000000053b28                WriteUnaligned64.isra.0
 .text.SmbiosPrintStructure.part.0.isra.0
                0x0000000000053b60     0x7fa4 /tmp/Shell.dll.2u1FF2.ltrans11.ltrans.o
                0x0000000000053b60                SmbiosPrintStructure.part.0.isra.0
 .text.HBufferImageRestorePosition.isra.0
                0x000000000005bb04       0x2c /tmp/Shell.dll.2u1FF2.ltrans12.ltrans.o
 .text.HBufferImageRestoreMousePosition.isra.0
                0x000000000005bb30      0x2a4 /tmp/Shell.dll.2u1FF2.ltrans12.ltrans.o
 .text.HBufferImagePrintLine.isra.0
                0x000000000005bdd4      0x42c /tmp/Shell.dll.2u1FF2.ltrans12.ltrans.o
 .text.FileBufferRestoreMousePosition.isra.0
                0x000000000005c200      0x224 /tmp/Shell.dll.2u1FF2.ltrans12.ltrans.o
 .text.HFileImageSetFileName.isra.0
                0x000000000005c424       0x4c /tmp/Shell.dll.2u1FF2.ltrans12.ltrans.o
                0x000000000005c424                HFileImageSetFileName.isra.0
 .text.HBufferImageDeleteCharacterFromBuffer.isra.0
                0x000000000005c470      0x1c8 /tmp/Shell.dll.2u1FF2.ltrans12.ltrans.o
                0x000000000005c470                HBufferImageDeleteCharacterFromBuffer.isra.0
 .text.HBufferImageRefresh.isra.0
                0x000000000005c638      0x2d4 /tmp/Shell.dll.2u1FF2.ltrans12.ltrans.o
                0x000000000005c638                HBufferImageRefresh.isra.0
 .text.MenuBarDispatchControlHotKey.isra.0
                0x000000000005c90c       0x94 /tmp/Shell.dll.2u1FF2.ltrans12.ltrans.o
                0x000000000005c90c                MenuBarDispatchControlHotKey.isra.0
 .text.MenuBarDispatchFunctionKey.isra.0
                0x000000000005c9a0       0x58 /tmp/Shell.dll.2u1FF2.ltrans12.ltrans.o
                0x000000000005c9a0                MenuBarDispatchFunctionKey.isra.0
 .text.MainTitleBarRefresh.isra.0
                0x000000000005c9f8      0x23c /tmp/Shell.dll.2u1FF2.ltrans12.ltrans.o
                0x000000000005c9f8                MainTitleBarRefresh.isra.0
 .text.HMainEditorRefresh.isra.0
                0x000000000005cc34      0x270 /tmp/Shell.dll.2u1FF2.ltrans12.ltrans.o
                0x000000000005cc34                HMainEditorRefresh.isra.0
 .text.FileBufferSetFileName.isra.0
                0x000000000005cea4       0x54 /tmp/Shell.dll.2u1FF2.ltrans12.ltrans.o
                0x000000000005cea4                FileBufferSetFileName.isra.0
 .text.FileBufferRestorePosition.isra.0
                0x000000000005cef8       0x2c /tmp/Shell.dll.2u1FF2.ltrans12.ltrans.o
                0x000000000005cef8                FileBufferRestorePosition.isra.0
 .text.FileBufferBackup.isra.0
                0x000000000005cf24       0x90 /tmp/Shell.dll.2u1FF2.ltrans12.ltrans.o
                0x000000000005cf24                FileBufferBackup.isra.0
 .text.ShellCmdDriverConfigurationProcessActionRequired.isra.0
                0x000000000005cfb4      0x248 /tmp/Shell.dll.2u1FF2.ltrans12.ltrans.o
                0x000000000005cfb4                ShellCmdDriverConfigurationProcessActionRequired.isra.0
 .text.InternalRemoveAliasFromList.isra.0
                0x000000000005d1fc      0x114 /tmp/Shell.dll.2u1FF2.ltrans12.ltrans.o
                0x000000000005d1fc                InternalRemoveAliasFromList.isra.0
 .text.InternalUpdateAliasOnList.isra.0
                0x000000000005d310      0x1bc /tmp/Shell.dll.2u1FF2.ltrans12.ltrans.o
                0x000000000005d310                InternalUpdateAliasOnList.isra.0
 .text.ShellCommandConsistMappingUnInitialize.isra.0
                0x000000000005d4cc       0x5c /tmp/Shell.dll.2u1FF2.ltrans12.ltrans.o
                0x000000000005d4cc                ShellCommandConsistMappingUnInitialize.isra.0
 .text.ShellCommandConsistMappingInitialize.isra.0
                0x000000000005d528      0x1d0 /tmp/Shell.dll.2u1FF2.ltrans12.ltrans.o
                0x000000000005d528                ShellCommandConsistMappingInitialize.isra.0
 .text.ShellFileHandleRemove.isra.0
                0x000000000005d6f8       0xb4 /tmp/Shell.dll.2u1FF2.ltrans12.ltrans.o
                0x000000000005d6f8                ShellFileHandleRemove.isra.0
 .text.ShellCommandSetNewScript.isra.0
                0x000000000005d7ac       0x88 /tmp/Shell.dll.2u1FF2.ltrans12.ltrans.o
                0x000000000005d7ac                ShellCommandSetNewScript.isra.0
 .text.ShellCommandRegisterAlias.isra.0
                0x000000000005d834      0x110 /tmp/Shell.dll.2u1FF2.ltrans12.ltrans.o
                0x000000000005d834                ShellCommandRegisterAlias.isra.0
 .text.ShellCommandRegisterCommandName.isra.0
                0x000000000005d944      0x200 /tmp/Shell.dll.2u1FF2.ltrans12.ltrans.o
                0x000000000005d944                ShellCommandRegisterCommandName.isra.0
 .text.ShellDeleteFile.isra.0
                0x000000000005db44       0x10 /tmp/Shell.dll.2u1FF2.ltrans12.ltrans.o
                0x000000000005db44                ShellDeleteFile.isra.0
 .text.ShellDeleteFileByName.isra.0
                0x000000000005db54       0x44 /tmp/Shell.dll.2u1FF2.ltrans12.ltrans.o
                0x000000000005db54                ShellDeleteFileByName.isra.0
 .text.ShellCloseFile.isra.0
                0x000000000005db98       0x10 /tmp/Shell.dll.2u1FF2.ltrans12.ltrans.o
                0x000000000005db98                ShellCloseFile.isra.0
 .text.CatIPv4Address.isra.0
                0x000000000005dba8       0x1c /tmp/Shell.dll.2u1FF2.ltrans12.ltrans.o
                0x000000000005dba8                CatIPv4Address.isra.0
 .text.SetDevicePathNodeLength.isra.0
                0x000000000005dbc4       0x78 /tmp/Shell.dll.2u1FF2.ltrans12.ltrans.o
                0x000000000005dbc4                SetDevicePathNodeLength.isra.0
 .text.AsciiStrToUnicodeStrS.isra.0
                0x000000000005dc3c      0x1cc /tmp/Shell.dll.2u1FF2.ltrans12.ltrans.o
                0x000000000005dc3c                AsciiStrToUnicodeStrS.isra.0
 .text.StrnCpyS.isra.0
                0x000000000005de08      0x254 /tmp/Shell.dll.2u1FF2.ltrans12.ltrans.o
                0x000000000005de08                StrnCpyS.isra.0
 .text.FileBufferPrintLine.isra.0
                0x000000000005e05c      0x128 /tmp/Shell.dll.2u1FF2.ltrans12.ltrans.o
 .text.FileBufferRefresh.isra.0
                0x000000000005e184      0x214 /tmp/Shell.dll.2u1FF2.ltrans12.ltrans.o
                0x000000000005e184                FileBufferRefresh.isra.0
 .text.StrCpyS.isra.0
                0x000000000005e398      0x1f4 /tmp/Shell.dll.2u1FF2.ltrans12.ltrans.o
                0x000000000005e398                StrCpyS.isra.0
 .text.InitializeListHead.isra.0
                0x000000000005e58c       0x3c /tmp/Shell.dll.2u1FF2.ltrans12.ltrans.o
                0x000000000005e58c                InitializeListHead.isra.0
 .text.ShellSortFileList.part.0.isra.0
                0x000000000005e5c8      0x2d0 /tmp/Shell.dll.2u1FF2.ltrans12.ltrans.o
                0x000000000005e5c8                ShellSortFileList.part.0.isra.0
 .text.PrintLsOutput.isra.0
                0x000000000005e898      0xb1c /tmp/Shell.dll.2u1FF2.ltrans12.ltrans.o
                0x000000000005e898                PrintLsOutput.isra.0
 .text.InternalShellInitHandleList.isra.0
                0x000000000005f3b4      0x120 /tmp/Shell.dll.2u1FF2.ltrans12.ltrans.o
                0x000000000005f3b4                InternalShellInitHandleList.isra.0
 .text.SetMem.isra.0
                0x000000000005f4d4       0x68 /tmp/Shell.dll.2u1FF2.ltrans12.ltrans.o
                0x000000000005f4d4                SetMem.isra.0
 .text.SetMem16.isra.0
                0x000000000005f53c       0xbc /tmp/Shell.dll.2u1FF2.ltrans12.ltrans.o
                0x000000000005f53c                SetMem16.isra.0
 .text.CloseSimpleTextOutOnFile.isra.0
                0x000000000005f5f8       0x50 /tmp/Shell.dll.2u1FF2.ltrans12.ltrans.o
                0x000000000005f5f8                CloseSimpleTextOutOnFile.isra.0
 .text.CloseSimpleTextInOnFile.isra.0
                0x000000000005f648       0x58 /tmp/Shell.dll.2u1FF2.ltrans12.ltrans.o
                0x000000000005f648                CloseSimpleTextInOnFile.isra.0
 .text.UpdateDisplayFromHistory.isra.0
                0x000000000005f6a0      0x254 /tmp/Shell.dll.2u1FF2.ltrans12.ltrans.o
                0x000000000005f6a0                UpdateDisplayFromHistory.isra.0
 .text.ShellRemvoeEnvVarFromList.isra.0
                0x000000000005f8f4       0xb4 /tmp/Shell.dll.2u1FF2.ltrans12.ltrans.o
                0x000000000005f8f4                ShellRemvoeEnvVarFromList.isra.0
 .text.SetEnvironmentVariables.part.0.isra.0
                0x000000000005f9a8      0x1c8 /tmp/Shell.dll.2u1FF2.ltrans12.ltrans.o
                0x000000000005f9a8                SetEnvironmentVariables.part.0.isra.0
 .text.CleanUpShellProtocol.isra.0
                0x000000000005fb70       0xdc /tmp/Shell.dll.2u1FF2.ltrans12.ltrans.o
                0x000000000005fb70                CleanUpShellProtocol.isra.0
 .text.ToLower.isra.0
                0x000000000005fc4c       0x2c /tmp/Shell.dll.2u1FF2.ltrans12.ltrans.o
                0x000000000005fc4c                ToLower.isra.0
 .text.SetLastError.isra.0
                0x000000000005fc78       0x5c /tmp/Shell.dll.2u1FF2.ltrans12.ltrans.o
                0x000000000005fc78                SetLastError.isra.0
 .text.TrimSpaces.isra.0
                0x000000000005fcd4       0xd8 /tmp/Shell.dll.2u1FF2.ltrans12.ltrans.o
                0x000000000005fcd4                TrimSpaces.isra.0
 *fill*         0x000000000005fdac        0x4 
 .text          0x000000000005fdb0      0x200 /home/daijh/sdk/rk3588/uefi/Build/RK3588/DEBUG_GCC5/AARCH64/MdePkg/Library/BaseMemoryLibOptDxe/BaseMemoryLibOptDxe/OUTPUT/BaseMemoryLibOptDxe.lib(SetMem.obj)
                0x000000000005fdb0                InternalMemSetMem16
                0x000000000005fdbc                InternalMemSetMem32
                0x000000000005fdc8                InternalMemSetMem64
                0x000000000005fdd4                InternalMemZeroMem
                0x000000000005fddc                InternalMemSetMem
 .text          0x000000000005ffb0      0x218 /home/daijh/sdk/rk3588/uefi/Build/RK3588/DEBUG_GCC5/AARCH64/MdePkg/Library/BaseMemoryLibOptDxe/BaseMemoryLibOptDxe/OUTPUT/BaseMemoryLibOptDxe.lib(CopyMem.obj)
                0x000000000006011c                InternalMemCopyMem
 *fill*         0x00000000000601c8       0x18 
 .text          0x00000000000601e0       0x20 /home/daijh/sdk/rk3588/uefi/Build/RK3588/DEBUG_GCC5/AARCH64/MdePkg/Library/BaseMemoryLibOptDxe/BaseMemoryLibOptDxe/OUTPUT/BaseMemoryLibOptDxe.lib(CompareGuid.obj)
                0x00000000000601e0                InternalMemCompareGuid
 .text          0x0000000000060200        0x8 /home/daijh/sdk/rk3588/uefi/Build/RK3588/DEBUG_GCC5/AARCH64/MdePkg/Library/BaseLib/BaseLib/OUTPUT/BaseLib.lib(CpuBreakpoint.obj)
                0x0000000000060200                CpuBreakpoint
 *fill*         0x0000000000060208       0x38 
 .text          0x0000000000060240       0xe0 /home/daijh/sdk/rk3588/uefi/Build/RK3588/DEBUG_GCC5/AARCH64/MdePkg/Library/BaseMemoryLibOptDxe/BaseMemoryLibOptDxe/OUTPUT/BaseMemoryLibOptDxe.lib(CompareMem.obj)
                0x0000000000060240                InternalMemCompareMem
 *(.rodata .rodata.* .gnu.linkonce.r.*)
 .rodata.WriteFileTag.str1.1
                0x0000000000060320       0x96 /tmp/Shell.dll.2u1FF2.ltrans0.ltrans.o
 .rodata.FixFileName.str2.2
                0x00000000000603b6        0x0 /tmp/Shell.dll.2u1FF2.ltrans0.ltrans.o
                                          0x8 (size before relaxing)
 .rodata.FixVarName.str2.2
                0x00000000000603b6        0x0 /tmp/Shell.dll.2u1FF2.ltrans0.ltrans.o
                                          0x4 (size before relaxing)
 .rodata.ProcessLibraryConstructorList.str1.1
                0x00000000000603b6      0x32c /tmp/Shell.dll.2u1FF2.ltrans0.ltrans.o
 .rodata.ProcessLibraryConstructorList.str2.2
                0x00000000000606e2      0x33c /tmp/Shell.dll.2u1FF2.ltrans0.ltrans.o
                                        0x42a (size before relaxing)
 .rodata.ContainsSplit.str2.2
                0x0000000000060a1e        0x4 /tmp/Shell.dll.2u1FF2.ltrans0.ltrans.o
 .rodata.ProcessCommandLine.str2.2
                0x0000000000060a22       0xc6 /tmp/Shell.dll.2u1FF2.ltrans0.ltrans.o
                                         0xca (size before relaxing)
 .rodata.ProcessCommandLine.str1.1
                0x0000000000060ae8       0xd4 /tmp/Shell.dll.2u1FF2.ltrans0.ltrans.o
 .rodata.GetNextParameter.str2.2
                0x0000000000060bbc        0x6 /tmp/Shell.dll.2u1FF2.ltrans0.ltrans.o
                                          0xc (size before relaxing)
 .rodata.GetOperationType.part.0.str2.2
                0x0000000000060bc2        0x6 /tmp/Shell.dll.2u1FF2.ltrans0.ltrans.o
                                          0x4 (size before relaxing)
 .rodata.EfiShellGetFilePathFromDevicePath.str1.1
                0x0000000000060bc2       0xdb /tmp/Shell.dll.2u1FF2.ltrans0.ltrans.o
 .rodata.EfiShellGetFilePathFromDevicePath.str2.2
                0x0000000000060c9d        0x6 /tmp/Shell.dll.2u1FF2.ltrans0.ltrans.o
                                          0x4 (size before relaxing)
 .rodata.EfiShellRegisterGuidName.str1.1
                0x0000000000060c9d       0x54 /tmp/Shell.dll.2u1FF2.ltrans0.ltrans.o
                                         0x6e (size before relaxing)
 .rodata.EfiShellGetMapFromDevicePath.str2.2
                0x0000000000060cf1        0x6 /tmp/Shell.dll.2u1FF2.ltrans0.ltrans.o
                                          0x4 (size before relaxing)
 .rodata.EfiShellGetEnvEx.str1.1
                0x0000000000060cf1       0x26 /tmp/Shell.dll.2u1FF2.ltrans0.ltrans.o
 .rodata.ProcessCommandLineToFinal.str1.1
                0x0000000000060d17       0x56 /tmp/Shell.dll.2u1FF2.ltrans0.ltrans.o
 *fill*         0x0000000000060d6d        0x1 
 .rodata.ProcessCommandLineToFinal.str2.2
                0x0000000000060d6e       0x18 /tmp/Shell.dll.2u1FF2.ltrans0.ltrans.o
                                         0x1c (size before relaxing)
 .rodata.ParseCommandLineToArgs.str1.1
                0x0000000000060d86       0x26 /tmp/Shell.dll.2u1FF2.ltrans0.ltrans.o
 .rodata.InternalShellExecuteDevicePath.str1.1
                0x0000000000060dac       0x3d /tmp/Shell.dll.2u1FF2.ltrans0.ltrans.o
 .rodata.RestoreArgcArgv.str1.1
                0x0000000000060de9       0x20 /tmp/Shell.dll.2u1FF2.ltrans0.ltrans.o
 *fill*         0x0000000000060e09        0x1 
 .rodata.EfiShellCreateFile.str2.2
                0x0000000000060e0a        0x6 /tmp/Shell.dll.2u1FF2.ltrans0.ltrans.o
 .rodata.EfiShellOpenFileByName.str2.2
                0x0000000000060e10       0x24 /tmp/Shell.dll.2u1FF2.ltrans0.ltrans.o
 .rodata.EfiShellOpenFileByName.str1.1
                0x0000000000060e34       0x1c /tmp/Shell.dll.2u1FF2.ltrans0.ltrans.o
 .rodata.EfiShellFindFilesInDir.str2.2
                0x0000000000060e50       0x24 /tmp/Shell.dll.2u1FF2.ltrans0.ltrans.o
                                          0xa (size before relaxing)
 .rodata.EfiShellFindFilesInDir.str1.1
                0x0000000000060e50       0xa6 /tmp/Shell.dll.2u1FF2.ltrans0.ltrans.o
 .rodata.EfiShellFindFiles.str1.1
                0x0000000000060ef6       0x36 /tmp/Shell.dll.2u1FF2.ltrans0.ltrans.o
 .rodata.EfiShellOpenFileList.str1.1
                0x0000000000060f2c       0x5b /tmp/Shell.dll.2u1FF2.ltrans0.ltrans.o
 .rodata.RunShellCommand.str1.1
                0x0000000000060f87      0x141 /tmp/Shell.dll.2u1FF2.ltrans0.ltrans.o
                                        0x15f (size before relaxing)
 .rodata.RunShellCommand.str2.2
                0x00000000000610c8       0xfe /tmp/Shell.dll.2u1FF2.ltrans0.ltrans.o
 .rodata._ModuleEntryPoint.str2.2
                0x00000000000611c6       0xc2 /tmp/Shell.dll.2u1FF2.ltrans0.ltrans.o
                                         0xd4 (size before relaxing)
 .rodata._ModuleEntryPoint.str1.1
                0x0000000000061288      0x1b0 /tmp/Shell.dll.2u1FF2.ltrans0.ltrans.o
 .rodata.RunSplitCommand.str1.1
                0x0000000000061438       0xa4 /tmp/Shell.dll.2u1FF2.ltrans0.ltrans.o
 .rodata.EfiShellExecute.str2.2
                0x00000000000614dc       0x22 /tmp/Shell.dll.2u1FF2.ltrans0.ltrans.o
 .rodata._gPcd_FixedAtBuild_PcdShellSupplier
                0x00000000000614fe        0xe /tmp/Shell.dll.2u1FF2.ltrans0.ltrans.o
                0x00000000000614fe                _gPcd_FixedAtBuild_PcdShellSupplier
 .rodata.gUnicodeFileTag
                0x000000000006150c        0x2 /tmp/Shell.dll.2u1FF2.ltrans0.ltrans.o
                0x000000000006150c                gUnicodeFileTag
 .rodata.mExecutableExtensions.lto_priv.0
                0x000000000006150e       0x14 /tmp/Shell.dll.2u1FF2.ltrans0.ltrans.o
                0x000000000006150e                mExecutableExtensions.lto_priv.0
 .rodata.mNoNestingEnvVarName
                0x0000000000061522       0x14 /tmp/Shell.dll.2u1FF2.ltrans0.ltrans.o
                0x0000000000061522                mNoNestingEnvVarName
 .rodata.mNoNestingTrue
                0x0000000000061536        0xa /tmp/Shell.dll.2u1FF2.ltrans0.ltrans.o
 .rodata.mScriptExtension
                0x0000000000061540        0xa /tmp/Shell.dll.2u1FF2.ltrans0.ltrans.o
 .rodata.mStartupScript
                0x000000000006154a       0x18 /tmp/Shell.dll.2u1FF2.ltrans0.ltrans.o
 .rodata.DebugAssert.str1.1
                0x0000000000061562       0x1e /tmp/Shell.dll.2u1FF2.ltrans1.ltrans.o
 .rodata.ConsoleLoggerTestString.str1.1
                0x0000000000061580       0x15 /tmp/Shell.dll.2u1FF2.ltrans1.ltrans.o
                                         0x61 (size before relaxing)
 .rodata.CopyGuid.str1.1
                0x0000000000061595       0x90 /tmp/Shell.dll.2u1FF2.ltrans1.ltrans.o
 .rodata.CompareGuid.str1.1
                0x0000000000061625       0x2c /tmp/Shell.dll.2u1FF2.ltrans1.ltrans.o
 .rodata.ZeroMem.str1.1
                0x0000000000061651       0x8b /tmp/Shell.dll.2u1FF2.ltrans1.ltrans.o
                                         0xa2 (size before relaxing)
 .rodata.CopyMem.str1.1
                0x00000000000616dc       0xd6 /tmp/Shell.dll.2u1FF2.ltrans1.ltrans.o
 .rodata.AppendStringToHistory.str1.1
                0x00000000000617b2      0x15c /tmp/Shell.dll.2u1FF2.ltrans1.ltrans.o
                                        0x178 (size before relaxing)
 .rodata.AppendStringToHistory.str2.2
                0x000000000006190e       0x22 /tmp/Shell.dll.2u1FF2.ltrans1.ltrans.o
                                          0x6 (size before relaxing)
 .rodata.InternalBaseLibIsListValid.str1.1
                0x000000000006190e       0x86 /tmp/Shell.dll.2u1FF2.ltrans1.ltrans.o
                                         0x9b (size before relaxing)
 .rodata.IsNodeInList.str1.1
                0x0000000000061994       0x44 /tmp/Shell.dll.2u1FF2.ltrans1.ltrans.o
 .rodata.InsertHeadList.str1.1
                0x00000000000619d8       0x26 /tmp/Shell.dll.2u1FF2.ltrans1.ltrans.o
 .rodata.GetFirstNode.str1.1
                0x00000000000619fe       0x22 /tmp/Shell.dll.2u1FF2.ltrans1.ltrans.o
 .rodata.EfiShellGetCurDir.str2.2
                0x0000000000061a20        0x8 /tmp/Shell.dll.2u1FF2.ltrans1.ltrans.o
 .rodata.EfiShellGetCurDir.str1.1
                0x0000000000061a20       0x4e /tmp/Shell.dll.2u1FF2.ltrans1.ltrans.o
                                         0x9a (size before relaxing)
 .rodata.RemoveEntryList.str1.1
                0x0000000000061a6e       0x15 /tmp/Shell.dll.2u1FF2.ltrans1.ltrans.o
 .rodata.StrnLenS.str1.1
                0x0000000000061a83       0x68 /tmp/Shell.dll.2u1FF2.ltrans1.ltrans.o
 .rodata.StrLen.str1.1
                0x0000000000061aeb       0x7b /tmp/Shell.dll.2u1FF2.ltrans1.ltrans.o
                                         0x92 (size before relaxing)
 .rodata.StrCmp.str1.1
                0x0000000000061b66       0x37 /tmp/Shell.dll.2u1FF2.ltrans1.ltrans.o
 .rodata.EfiShellSetEnv.str2.2
                0x0000000000061b9d       0x22 /tmp/Shell.dll.2u1FF2.ltrans1.ltrans.o
                                         0x82 (size before relaxing)
 .rodata.StrnCmp.str1.1
                0x0000000000061b9d       0x3b /tmp/Shell.dll.2u1FF2.ltrans1.ltrans.o
 .rodata.StrStr.str1.1
                0x0000000000061bd8       0x32 /tmp/Shell.dll.2u1FF2.ltrans1.ltrans.o
 .rodata.PathCleanUpDirectories.str2.2
                0x0000000000061c0a       0x1c /tmp/Shell.dll.2u1FF2.ltrans1.ltrans.o
 .rodata.AsciiStrLen.str1.1
                0x0000000000061c26       0x38 /tmp/Shell.dll.2u1FF2.ltrans1.ltrans.o
 .rodata.AsciiStrnCmp.str1.1
                0x0000000000061c5e       0x70 /tmp/Shell.dll.2u1FF2.ltrans1.ltrans.o
 .rodata.UnicodeVSPrint.str1.1
                0x0000000000061cce       0x97 /tmp/Shell.dll.2u1FF2.ltrans1.ltrans.o
 .rodata.StrCatS.str1.1
                0x0000000000061d65      0x154 /tmp/Shell.dll.2u1FF2.ltrans1.ltrans.o
 .rodata.StrnCatS.str1.1
                0x0000000000061eb9       0x16 /tmp/Shell.dll.2u1FF2.ltrans1.ltrans.o
 .rodata.StrDecimalToUintnS.str1.1
                0x0000000000061ecf       0x41 /tmp/Shell.dll.2u1FF2.ltrans1.ltrans.o
 .rodata.StrHexToBytes.str1.1
                0x0000000000061f10       0x46 /tmp/Shell.dll.2u1FF2.ltrans1.ltrans.o
 .rodata.AllocateCopyPool.str1.1
                0x0000000000061f56       0x9d /tmp/Shell.dll.2u1FF2.ltrans1.ltrans.o
 .rodata.FreePool.str1.1
                0x0000000000061ff3       0x35 /tmp/Shell.dll.2u1FF2.ltrans1.ltrans.o
 .rodata.EfiShellSetCurDir.str1.1
                0x0000000000061ff3       0xe0 /tmp/Shell.dll.2u1FF2.ltrans1.ltrans.o
                                         0xf8 (size before relaxing)
 .rodata.EfiShellSetCurDir.str2.2
                0x00000000000620d3        0x8 /tmp/Shell.dll.2u1FF2.ltrans1.ltrans.o
 .rodata.EfiShellGetHelpText.str1.1
                0x00000000000620d3       0x19 /tmp/Shell.dll.2u1FF2.ltrans1.ltrans.o
                                         0xb7 (size before relaxing)
 .rodata.EfiShellGetAlias.str1.1
                0x00000000000620ec       0x45 /tmp/Shell.dll.2u1FF2.ltrans1.ltrans.o
 .rodata.EfiShellGetAlias.str2.2
                0x0000000000062131        0x4 /tmp/Shell.dll.2u1FF2.ltrans1.ltrans.o
 .rodata.InternalSetAlias.str1.1
                0x0000000000062131       0x45 /tmp/Shell.dll.2u1FF2.ltrans1.ltrans.o
                                         0x16 (size before relaxing)
 *fill*         0x0000000000062131        0x1 
 .rodata.FileInterfaceStdInRead.str2.2
                0x0000000000062132       0x28 /tmp/Shell.dll.2u1FF2.ltrans1.ltrans.o
                                         0x40 (size before relaxing)
 .rodata.FileInterfaceStdInRead.str1.1
                0x000000000006215a       0x91 /tmp/Shell.dll.2u1FF2.ltrans1.ltrans.o
 *fill*         0x00000000000621eb        0x1 
 .rodata.FileInterfaceStdInRead
                0x00000000000621ec       0x2e /tmp/Shell.dll.2u1FF2.ltrans1.ltrans.o
 .rodata.CreateFileInterfaceMem.str1.1
                0x000000000006221a       0x62 /tmp/Shell.dll.2u1FF2.ltrans1.ltrans.o
 .rodata.FileInterfaceFileWrite.str1.1
                0x000000000006227c        0x3 /tmp/Shell.dll.2u1FF2.ltrans1.ltrans.o
 .rodata.FreeEnvironmentVariableList.str1.1
                0x000000000006227f       0x4a /tmp/Shell.dll.2u1FF2.ltrans1.ltrans.o
                                         0x5f (size before relaxing)
 *fill*         0x00000000000622c9        0x1 
 .rodata.ManFileFindSections.str2.2
                0x00000000000622ca       0x10 /tmp/Shell.dll.2u1FF2.ltrans1.ltrans.o
 .rodata.ManFileFindSections.str1.1
                0x00000000000622da       0x9a /tmp/Shell.dll.2u1FF2.ltrans1.ltrans.o
 .rodata.ConsoleLoggerOutputString.str1.1
                0x0000000000062374       0x61 /tmp/Shell.dll.2u1FF2.ltrans1.ltrans.o
                                         0x73 (size before relaxing)
 .rodata.DevicePathType.str1.1
                0x00000000000623d5       0x58 /tmp/Shell.dll.2u1FF2.ltrans1.ltrans.o
 .rodata.UefiDevicePathLibCatPrint.str1.1
                0x000000000006242d       0x6e /tmp/Shell.dll.2u1FF2.ltrans1.ltrans.o
 *fill*         0x000000000006249b        0x1 
 .rodata.DevPathToTextPci.str2.2
                0x000000000006249c       0x1e /tmp/Shell.dll.2u1FF2.ltrans1.ltrans.o
 .rodata.DevPathToTextPccard.str2.2
                0x00000000000624ba       0x1a /tmp/Shell.dll.2u1FF2.ltrans1.ltrans.o
 .rodata.DevPathToTextMemMap.str2.2
                0x00000000000624d4       0x3e /tmp/Shell.dll.2u1FF2.ltrans1.ltrans.o
 .rodata.DevPathToTextVendor.str2.2
                0x0000000000062512      0x1a0 /tmp/Shell.dll.2u1FF2.ltrans1.ltrans.o
                                        0x1f8 (size before relaxing)
 .rodata.DevPathToTextController.str2.2
                0x00000000000626b2       0x16 /tmp/Shell.dll.2u1FF2.ltrans1.ltrans.o
 .rodata.DevPathToTextBmc.str2.2
                0x00000000000626c8       0x20 /tmp/Shell.dll.2u1FF2.ltrans1.ltrans.o
 .rodata.DevPathToTextAcpi.str2.2
                0x00000000000626e8       0xfc /tmp/Shell.dll.2u1FF2.ltrans1.ltrans.o
 .rodata.DevPathToTextAcpiEx.str2.2
                0x00000000000627e4       0xf2 /tmp/Shell.dll.2u1FF2.ltrans1.ltrans.o
                                        0x10a (size before relaxing)
 .rodata.DevPathToTextAcpiAdr.str2.2
                0x00000000000628d6       0x26 /tmp/Shell.dll.2u1FF2.ltrans1.ltrans.o
 .rodata.DevPathToTextAtapi.str2.2
                0x00000000000628fc       0x72 /tmp/Shell.dll.2u1FF2.ltrans1.ltrans.o
 .rodata.DevPathToTextScsi.str2.2
                0x000000000006296e       0x20 /tmp/Shell.dll.2u1FF2.ltrans1.ltrans.o
 .rodata.DevPathToTextFibre.str2.2
                0x000000000006298e       0x26 /tmp/Shell.dll.2u1FF2.ltrans1.ltrans.o
 .rodata.DevPathToTextFibreEx.str2.2
                0x00000000000629b4       0x16 /tmp/Shell.dll.2u1FF2.ltrans1.ltrans.o
                                         0x1e (size before relaxing)
 .rodata.DevPathToTextSasEx.str2.2
                0x00000000000629ca       0x4a /tmp/Shell.dll.2u1FF2.ltrans1.ltrans.o
                                         0x66 (size before relaxing)
 .rodata.DevPathToTextNVMe.str2.2
                0x0000000000062a14       0x66 /tmp/Shell.dll.2u1FF2.ltrans1.ltrans.o
 .rodata.DevPathToTextUfs.str2.2
                0x0000000000062a7a       0x1e /tmp/Shell.dll.2u1FF2.ltrans1.ltrans.o
 .rodata.DevPathToTextSd.str2.2
                0x0000000000062a98       0x12 /tmp/Shell.dll.2u1FF2.ltrans1.ltrans.o
 .rodata.DevPathToTextEmmc.str2.2
                0x0000000000062aaa       0x16 /tmp/Shell.dll.2u1FF2.ltrans1.ltrans.o
 .rodata.DevPathToText1394.str2.2
                0x0000000000062ac0       0x1c /tmp/Shell.dll.2u1FF2.ltrans1.ltrans.o
 .rodata.DevPathToTextUsb.str2.2
                0x0000000000062adc       0x1e /tmp/Shell.dll.2u1FF2.ltrans1.ltrans.o
 .rodata.DevPathToTextUsbWWID.str1.1
                0x0000000000062afa       0x17 /tmp/Shell.dll.2u1FF2.ltrans1.ltrans.o
 *fill*         0x0000000000062b11        0x1 
 .rodata.DevPathToTextUsbWWID.str2.2
                0x0000000000062b12       0x3a /tmp/Shell.dll.2u1FF2.ltrans1.ltrans.o
 .rodata.DevPathToTextLogicalUnit.str2.2
                0x0000000000062b4c       0x16 /tmp/Shell.dll.2u1FF2.ltrans1.ltrans.o
 .rodata.DevPathToTextUsbClass.str2.2
                0x0000000000062b62      0x250 /tmp/Shell.dll.2u1FF2.ltrans1.ltrans.o
 *fill*         0x0000000000062db2        0x2 
 .rodata.DevPathToTextUsbClass
                0x0000000000062db4        0xe /tmp/Shell.dll.2u1FF2.ltrans1.ltrans.o
 .rodata.DevPathToTextSata.str2.2
                0x0000000000062dc2       0x2a /tmp/Shell.dll.2u1FF2.ltrans1.ltrans.o
 .rodata.DevPathToTextI2O.str2.2
                0x0000000000062dec       0x14 /tmp/Shell.dll.2u1FF2.ltrans1.ltrans.o
 .rodata.DevPathToTextMacAddr.str2.2
                0x0000000000062e00        0xa /tmp/Shell.dll.2u1FF2.ltrans1.ltrans.o
                                         0x18 (size before relaxing)
 .rodata.CatNetworkProtocol.str2.2
                0x0000000000062e0a       0x10 /tmp/Shell.dll.2u1FF2.ltrans1.ltrans.o
 .rodata.CatIPv6Address.str2.2
                0x0000000000062e1a       0x90 /tmp/Shell.dll.2u1FF2.ltrans1.ltrans.o
 .rodata.DevPathToTextIPv4.str2.2
                0x0000000000062eaa       0x24 /tmp/Shell.dll.2u1FF2.ltrans1.ltrans.o
                                         0x2e (size before relaxing)
 .rodata.DevPathToTextIPv6.str2.2
                0x0000000000062ece       0x80 /tmp/Shell.dll.2u1FF2.ltrans1.ltrans.o
 .rodata.DevPathToTextInfiniBand.str2.2
                0x0000000000062f4e       0x4c /tmp/Shell.dll.2u1FF2.ltrans1.ltrans.o
 .rodata.DevPathToTextUart.str2.2
                0x0000000000062f9a       0x50 /tmp/Shell.dll.2u1FF2.ltrans1.ltrans.o
                                         0x74 (size before relaxing)
 *fill*         0x0000000000062fea        0x2 
 .rodata.DevPathToTextUart
                0x0000000000062fec        0x4 /tmp/Shell.dll.2u1FF2.ltrans1.ltrans.o
 .rodata.DevPathToTextiSCSI.str2.2
                0x0000000000062ff0       0x64 /tmp/Shell.dll.2u1FF2.ltrans1.ltrans.o
                                         0x6c (size before relaxing)
 .rodata.DevPathToTextVlan.str2.2
                0x0000000000063054       0x12 /tmp/Shell.dll.2u1FF2.ltrans1.ltrans.o
 .rodata.DevPathToTextBluetooth.str2.2
                0x0000000000063066       0x48 /tmp/Shell.dll.2u1FF2.ltrans1.ltrans.o
 .rodata.DevPathToTextWiFi.str2.2
                0x00000000000630ae       0x14 /tmp/Shell.dll.2u1FF2.ltrans1.ltrans.o
 .rodata.DevPathToTextBluetoothLE.str2.2
                0x00000000000630c2       0x5a /tmp/Shell.dll.2u1FF2.ltrans1.ltrans.o
 .rodata.DevPathToTextDns.str2.2
                0x000000000006311c        0xa /tmp/Shell.dll.2u1FF2.ltrans1.ltrans.o
 .rodata.DevPathToTextUri.str1.1
                0x0000000000063126       0x17 /tmp/Shell.dll.2u1FF2.ltrans1.ltrans.o
 *fill*         0x000000000006313d        0x1 
 .rodata.DevPathToTextUri.str2.2
                0x000000000006313e       0x10 /tmp/Shell.dll.2u1FF2.ltrans1.ltrans.o
 .rodata.DevPathToTextHardDrive.str2.2
                0x000000000006314e       0x64 /tmp/Shell.dll.2u1FF2.ltrans1.ltrans.o
                                         0x7e (size before relaxing)
 .rodata.DevPathToTextCDROM.str2.2
                0x00000000000631b2       0x48 /tmp/Shell.dll.2u1FF2.ltrans1.ltrans.o
 .rodata.DevPathToTextFilePath.str2.2
                0x00000000000631fa       0x48 /tmp/Shell.dll.2u1FF2.ltrans1.ltrans.o
                                          0x6 (size before relaxing)
 .rodata.DevPathToTextMediaProtocol.str2.2
                0x00000000000631fa       0x14 /tmp/Shell.dll.2u1FF2.ltrans1.ltrans.o
 .rodata.DevPathToTextFv.str2.2
                0x000000000006320e        0xe /tmp/Shell.dll.2u1FF2.ltrans1.ltrans.o
 .rodata.DevPathToTextFvFile.str2.2
                0x000000000006321c       0x16 /tmp/Shell.dll.2u1FF2.ltrans1.ltrans.o
 .rodata.DevPathRelativeOffsetRange.str2.2
                0x0000000000063232       0x28 /tmp/Shell.dll.2u1FF2.ltrans1.ltrans.o
 .rodata.DevPathToTextRamDisk.str2.2
                0x000000000006325a       0xca /tmp/Shell.dll.2u1FF2.ltrans1.ltrans.o
                                        0x136 (size before relaxing)
 .rodata.DevPathToTextBBS.str2.2
                0x0000000000063324       0x2c /tmp/Shell.dll.2u1FF2.ltrans1.ltrans.o
 .rodata.DevPathToTextNodeGeneric.str2.2
                0x0000000000063350       0x22 /tmp/Shell.dll.2u1FF2.ltrans1.ltrans.o
 .rodata.UefiDevicePathLibConvertDevicePathToText.str2.2
                0x0000000000063372        0x4 /tmp/Shell.dll.2u1FF2.ltrans1.ltrans.o
 .rodata.DevPathFromTextAcpiAdr.str1.1
                0x0000000000063376       0x6f /tmp/Shell.dll.2u1FF2.ltrans1.ltrans.o
 *fill*         0x00000000000633e5        0x1 
 .rodata.DevPathFromTextIPv6.str2.2
                0x00000000000633e6       0x2e /tmp/Shell.dll.2u1FF2.ltrans1.ltrans.o
 .rodata.DevPathFromTextSAS.str2.2
                0x0000000000063414       0x16 /tmp/Shell.dll.2u1FF2.ltrans1.ltrans.o
 .rodata.DevPathFromTextUart.str2.2
                0x000000000006342a       0x18 /tmp/Shell.dll.2u1FF2.ltrans1.ltrans.o
                                         0x24 (size before relaxing)
 *fill*         0x0000000000063442        0x2 
 .rodata.DevPathFromTextUart
                0x0000000000063444       0x10 /tmp/Shell.dll.2u1FF2.ltrans1.ltrans.o
 .rodata.str2.2
                0x0000000000063454       0x80 /tmp/Shell.dll.2u1FF2.ltrans1.ltrans.o
                                         0x96 (size before relaxing)
 .rodata.CSWTCH.42
                0x00000000000634d4        0x6 /tmp/Shell.dll.2u1FF2.ltrans1.ltrans.o
 *fill*         0x00000000000634da        0x6 
 .rodata.CSWTCH.58
                0x00000000000634e0       0x30 /tmp/Shell.dll.2u1FF2.ltrans1.ltrans.o
 .rodata.__FUNCTION__.16
                0x0000000000063510        0xe /tmp/Shell.dll.2u1FF2.ltrans1.ltrans.o
 .rodata.__FUNCTION__.17
                0x000000000006351e        0xa /tmp/Shell.dll.2u1FF2.ltrans1.ltrans.o
 .rodata.__FUNCTION__.21
                0x0000000000063528        0xf /tmp/Shell.dll.2u1FF2.ltrans1.ltrans.o
 .rodata.__FUNCTION__.22
                0x0000000000063537       0x14 /tmp/Shell.dll.2u1FF2.ltrans1.ltrans.o
 .rodata.__FUNCTION__.23
                0x000000000006354b       0x13 /tmp/Shell.dll.2u1FF2.ltrans1.ltrans.o
 .rodata.__FUNCTION__.24
                0x000000000006355e        0x9 /tmp/Shell.dll.2u1FF2.ltrans1.ltrans.o
 .rodata.__FUNCTION__.25
                0x0000000000063567        0x8 /tmp/Shell.dll.2u1FF2.ltrans1.ltrans.o
 .rodata.mHexStr
                0x000000000006356f       0x10 /tmp/Shell.dll.2u1FF2.ltrans1.ltrans.o
 .rodata.mUefiDevicePathLibEndDevicePath
                0x000000000006357f        0x4 /tmp/Shell.dll.2u1FF2.ltrans1.ltrans.o
 *fill*         0x0000000000063583        0x5 
 .rodata.mUefiDevicePathLibToTextTable
                0x0000000000063588      0x320 /tmp/Shell.dll.2u1FF2.ltrans1.ltrans.o
 .rodata.mUefiDevicePathLibToTextTableGeneric
                0x00000000000638a8       0x60 /tmp/Shell.dll.2u1FF2.ltrans1.ltrans.o
 .rodata.DevPathFromTextBBS.str2.2
                0x0000000000063908       0x46 /tmp/Shell.dll.2u1FF2.ltrans2.ltrans.o
 .rodata.DevicePathCompare.str1.1
                0x0000000000063908       0x50 /tmp/Shell.dll.2u1FF2.ltrans2.ltrans.o
                                         0x85 (size before relaxing)
 .rodata.InternalPrintTo.str1.1
                0x0000000000063958       0x4e /tmp/Shell.dll.2u1FF2.ltrans2.ltrans.o
                                         0x60 (size before relaxing)
 .rodata.InternalShellPrintWorker.str2.2
                0x00000000000639a6       0x20 /tmp/Shell.dll.2u1FF2.ltrans2.ltrans.o
                                         0x4a (size before relaxing)
 .rodata.DriverEfiVersionProtocolDumpInformation.str1.1
                0x00000000000639c6       0x5e /tmp/Shell.dll.2u1FF2.ltrans2.ltrans.o
 .rodata.DriverEfiVersionProtocolDumpInformation.str2.2
                0x0000000000063a24        0xe /tmp/Shell.dll.2u1FF2.ltrans2.ltrans.o
 .rodata.GetVariable2.str1.1
                0x0000000000063a32       0x9f /tmp/Shell.dll.2u1FF2.ltrans2.ltrans.o
 .rodata.GetBestLanguage.str1.1
                0x0000000000063ad1       0x23 /tmp/Shell.dll.2u1FF2.ltrans2.ltrans.o
 .rodata.HiiRemovePackages.str1.1
                0x0000000000063af4       0x4a /tmp/Shell.dll.2u1FF2.ltrans2.ltrans.o
                                         0x64 (size before relaxing)
 .rodata.HiiGetSupportedLanguages.str1.1
                0x0000000000063b3e       0x4f /tmp/Shell.dll.2u1FF2.ltrans2.ltrans.o
 .rodata.HiiGetString.str1.1
                0x0000000000063b8d        0xe /tmp/Shell.dll.2u1FF2.ltrans2.ltrans.o
                                         0x5c (size before relaxing)
 *fill*         0x0000000000063b9b        0x1 
 .rodata.HiiGetString.str2.2
                0x0000000000063b9c       0x1a /tmp/Shell.dll.2u1FF2.ltrans2.ltrans.o
 .rodata.EdidDiscoveredProtocolDumpInformation.str2.2
                0x0000000000063bb6       0x1e /tmp/Shell.dll.2u1FF2.ltrans2.ltrans.o
 .rodata.EdidActiveProtocolDumpInformation.str2.2
                0x0000000000063bd4       0x16 /tmp/Shell.dll.2u1FF2.ltrans2.ltrans.o
 .rodata.FirmwareManagementDumpInformation.str2.2
                0x0000000000063bea      0x168 /tmp/Shell.dll.2u1FF2.ltrans2.ltrans.o
                                        0x176 (size before relaxing)
 .rodata.FileHandleFindNextFile.part.0.str1.1
                0x0000000000063d52       0x39 /tmp/Shell.dll.2u1FF2.ltrans2.ltrans.o
                                         0x8f (size before relaxing)
 .rodata.ShellOpenFileByName.str1.1
                0x0000000000063d8b       0x3f /tmp/Shell.dll.2u1FF2.ltrans2.ltrans.o
                                         0x58 (size before relaxing)
 .rodata.ShellOpenFileByName.str2.2
                0x0000000000063dca       0x12 /tmp/Shell.dll.2u1FF2.ltrans2.ltrans.o
 .rodata.FullyQualifyPath.str1.1
                0x0000000000063dca       0x3f /tmp/Shell.dll.2u1FF2.ltrans2.ltrans.o
                                         0x15 (size before relaxing)
 .rodata.FullyQualifyPath.str2.2
                0x0000000000063dca       0x10 /tmp/Shell.dll.2u1FF2.ltrans2.ltrans.o
 .rodata.InternalIsFlag.str1.1
                0x0000000000063dca       0x3f /tmp/Shell.dll.2u1FF2.ltrans2.ltrans.o
                                         0x15 (size before relaxing)
 .rodata.StrnCatGrow.str1.1
                0x0000000000063dca       0x52 /tmp/Shell.dll.2u1FF2.ltrans2.ltrans.o
 .rodata.ShellFindFilePath.str1.1
                0x0000000000063e1c       0x17 /tmp/Shell.dll.2u1FF2.ltrans2.ltrans.o
 *fill*         0x0000000000063e33        0x1 
 .rodata.ShellFindFilePath.str2.2
                0x0000000000063e34        0xa /tmp/Shell.dll.2u1FF2.ltrans2.ltrans.o
                                          0xe (size before relaxing)
 .rodata.ShellIsDirectory.str1.1
                0x0000000000063e3e       0x18 /tmp/Shell.dll.2u1FF2.ltrans2.ltrans.o
 .rodata.ConvertMemoryType.str2.2
                0x0000000000063e56      0x23e /tmp/Shell.dll.2u1FF2.ltrans2.ltrans.o
 .rodata.ConvertMemoryType
                0x0000000000064094       0x10 /tmp/Shell.dll.2u1FF2.ltrans2.ltrans.o
 .rodata.DevicePathProtocolDumpInformationEx.str2.2
                0x00000000000640a4      0x23e /tmp/Shell.dll.2u1FF2.ltrans2.ltrans.o
                                          0xc (size before relaxing)
 .rodata.ShellPromptForResponse.str2.2
                0x00000000000640a4      0x23e /tmp/Shell.dll.2u1FF2.ltrans2.ltrans.o
                                         0x12 (size before relaxing)
 .rodata.ShellPromptForResponse.str1.1
                0x00000000000640a4       0x42 /tmp/Shell.dll.2u1FF2.ltrans2.ltrans.o
 *fill*         0x00000000000640e6        0x2 
 .rodata.ShellPromptForResponse
                0x00000000000640e8        0xa /tmp/Shell.dll.2u1FF2.ltrans2.ltrans.o
 .rodata.ShellConvertStringToUint64.str2.2
                0x00000000000640f2        0x6 /tmp/Shell.dll.2u1FF2.ltrans2.ltrans.o
                                          0xc (size before relaxing)
 .rodata.ShellFileHandleReadLine.str1.1
                0x00000000000640f8       0x3d /tmp/Shell.dll.2u1FF2.ltrans2.ltrans.o
                                         0x54 (size before relaxing)
 *fill*         0x0000000000064135        0x1 
 .rodata.ShellPrintHelp.str2.2
                0x0000000000064136       0x2e /tmp/Shell.dll.2u1FF2.ltrans2.ltrans.o
 .rodata.ShellOpenFileMetaArg.str1.1
                0x0000000000064164       0x8f /tmp/Shell.dll.2u1FF2.ltrans2.ltrans.o
                                         0xa4 (size before relaxing)
 .rodata.HandleParsingHiiInit.str1.1
                0x00000000000641f3       0x28 /tmp/Shell.dll.2u1FF2.ltrans2.ltrans.o
 *fill*         0x000000000006421b        0x1 
 .rodata.GraphicsOutputProtocolDumpInformation.str2.2
                0x000000000006421c      0x108 /tmp/Shell.dll.2u1FF2.ltrans2.ltrans.o
 .rodata.GraphicsOutputProtocolDumpInformation
                0x0000000000064324        0x5 /tmp/Shell.dll.2u1FF2.ltrans2.ltrans.o
 *fill*         0x0000000000064329        0x1 
 .rodata.PciRootBridgeIoDumpInformation.str2.2
                0x000000000006432a       0x66 /tmp/Shell.dll.2u1FF2.ltrans2.ltrans.o
                                         0x70 (size before relaxing)
 .rodata.TxtOutProtocolDumpInformation.str1.1
                0x0000000000064390       0x31 /tmp/Shell.dll.2u1FF2.ltrans2.ltrans.o
 .rodata.TxtOutProtocolDumpInformation.str2.2
                0x00000000000643c1        0x2 /tmp/Shell.dll.2u1FF2.ltrans2.ltrans.o
 *fill*         0x00000000000643c1        0x1 
 .rodata.BlockIoProtocolDumpInformation.str2.2
                0x00000000000643c2       0x76 /tmp/Shell.dll.2u1FF2.ltrans2.ltrans.o
                                         0x84 (size before relaxing)
 .rodata.DebugSupportProtocolDumpInformation.str2.2
                0x0000000000064438       0x1c /tmp/Shell.dll.2u1FF2.ltrans2.ltrans.o
 .rodata.PciIoProtocolDumpInformation.str2.2
                0x0000000000064454       0x1c /tmp/Shell.dll.2u1FF2.ltrans2.ltrans.o
                                         0x26 (size before relaxing)
 .rodata.PartitionInfoProtocolDumpInformation.str2.2
                0x0000000000064470        0xe /tmp/Shell.dll.2u1FF2.ltrans2.ltrans.o
 .rodata.InternalShellGetNodeFromGuid.str1.1
                0x000000000006447e       0x31 /tmp/Shell.dll.2u1FF2.ltrans2.ltrans.o
                                         0x15 (size before relaxing)
 .rodata.AdapterInformationDumpInformation.str2.2
                0x000000000006447e      0x13a /tmp/Shell.dll.2u1FF2.ltrans2.ltrans.o
 .rodata.GetProtocolInformationDump.str1.1
                0x00000000000645b8       0x1a /tmp/Shell.dll.2u1FF2.ltrans2.ltrans.o
 .rodata.ParseHandleDatabaseByRelationshipWithType.str1.1
                0x00000000000645d2       0x48 /tmp/Shell.dll.2u1FF2.ltrans2.ltrans.o
 .rodata.ParseHandleDatabaseByRelationship.str1.1
                0x000000000006461a       0xb7 /tmp/Shell.dll.2u1FF2.ltrans2.ltrans.o
 .rodata.GetHandleListByProtocolList.str1.1
                0x00000000000646d1       0x3d /tmp/Shell.dll.2u1FF2.ltrans2.ltrans.o
 .rodata.ShellCommandIsCommandOnList.str1.1
                0x000000000006470e       0x9e /tmp/Shell.dll.2u1FF2.ltrans2.ltrans.o
 .rodata.ShellCommandIsOnAliasList.str1.1
                0x000000000006470e       0x1c /tmp/Shell.dll.2u1FF2.ltrans2.ltrans.o
                                         0x32 (size before relaxing)
 .rodata.ShellCommandCreateNewMappingName.str2.2
                0x000000000006472a       0x1a /tmp/Shell.dll.2u1FF2.ltrans2.ltrans.o
 .rodata.EfiIsaAcpiProtocolGuid
                0x0000000000064744       0x10 /tmp/Shell.dll.2u1FF2.ltrans2.ltrans.o
 .rodata.EfiIsaIoProtocolGuid
                0x0000000000064754       0x10 /tmp/Shell.dll.2u1FF2.ltrans2.ltrans.o
 .rodata.WinNtIoProtocolGuid
                0x0000000000064764       0x10 /tmp/Shell.dll.2u1FF2.ltrans2.ltrans.o
 .rodata.WinNtSerialPortGuid
                0x0000000000064774       0x10 /tmp/Shell.dll.2u1FF2.ltrans2.ltrans.o
 .rodata.WinNtThunkProtocolGuid
                0x0000000000064784       0x10 /tmp/Shell.dll.2u1FF2.ltrans2.ltrans.o
 .rodata.mEndOfPakageList
                0x0000000000064794        0x4 /tmp/Shell.dll.2u1FF2.ltrans2.ltrans.o
 .rodata.mGuidStringList
                0x0000000000064798     0x1a58 /tmp/Shell.dll.2u1FF2.ltrans2.ltrans.o
 .rodata.mGuidStringListNT
                0x00000000000661f0       0x60 /tmp/Shell.dll.2u1FF2.ltrans2.ltrans.o
 .rodata.DevPathComparePci.str1.1
                0x0000000000066250       0x8f /tmp/Shell.dll.2u1FF2.ltrans3.ltrans.o
 .rodata.AppendCSDStr.str1.1
                0x00000000000662df       0x33 /tmp/Shell.dll.2u1FF2.ltrans3.ltrans.o
 .rodata.AppendCSDStr.str2.2
                0x0000000000066312        0x8 /tmp/Shell.dll.2u1FF2.ltrans3.ltrans.o
                                         0x14 (size before relaxing)
 .rodata.AppendCSDNum.str1.1
                0x000000000006631a       0x33 /tmp/Shell.dll.2u1FF2.ltrans3.ltrans.o
                                         0x1c (size before relaxing)
 .rodata.AppendCSDNum.str2.2
                0x000000000006631a        0x8 /tmp/Shell.dll.2u1FF2.ltrans3.ltrans.o
 .rodata.DevPathSerialHardDrive.str1.1
                0x0000000000066322       0x33 /tmp/Shell.dll.2u1FF2.ltrans3.ltrans.o
                                         0x1f (size before relaxing)
 .rodata.DevPathSerialUsb.str1.1
                0x0000000000066322       0x16 /tmp/Shell.dll.2u1FF2.ltrans3.ltrans.o
 .rodata.DevPathSerialVendor.str1.1
                0x0000000000066338       0x34 /tmp/Shell.dll.2u1FF2.ltrans3.ltrans.o
 .rodata.DevPathSerialVendor.str2.2
                0x000000000006636c        0x8 /tmp/Shell.dll.2u1FF2.ltrans3.ltrans.o
                                          0x6 (size before relaxing)
 .rodata.DevPathSerialMacAddr.str2.2
                0x000000000006636c        0xa /tmp/Shell.dll.2u1FF2.ltrans3.ltrans.o
 .rodata.DevPathSerialIPv4.str2.2
                0x000000000006636c       0x22 /tmp/Shell.dll.2u1FF2.ltrans3.ltrans.o
 .rodata.DevPathSerial1394.str2.2
                0x000000000006638e        0x8 /tmp/Shell.dll.2u1FF2.ltrans3.ltrans.o
 .rodata.VerifyIntermediateDirectories.str1.1
                0x0000000000066396       0x6a /tmp/Shell.dll.2u1FF2.ltrans3.ltrans.o
                                         0x7f (size before relaxing)
 .rodata.ShellCommandRunDate.str1.1
                0x0000000000066400       0x58 /tmp/Shell.dll.2u1FF2.ltrans3.ltrans.o
                                         0x9f (size before relaxing)
 .rodata.ShellCommandRunDate.str2.2
                0x0000000000066458       0x24 /tmp/Shell.dll.2u1FF2.ltrans3.ltrans.o
                                         0x38 (size before relaxing)
 .rodata.ShellCommandRunTime.str2.2
                0x000000000006647c       0x42 /tmp/Shell.dll.2u1FF2.ltrans3.ltrans.o
                                         0x54 (size before relaxing)
 *fill*         0x00000000000664be        0x2 
 .rodata.ShellCommandRunTime
                0x00000000000664c0        0x4 /tmp/Shell.dll.2u1FF2.ltrans3.ltrans.o
 .rodata.ShellCommandRunTimeZone.str2.2
                0x00000000000664c4       0x18 /tmp/Shell.dll.2u1FF2.ltrans3.ltrans.o
                                         0x36 (size before relaxing)
 .rodata.LoadDriver.str1.1
                0x00000000000664dc       0x76 /tmp/Shell.dll.2u1FF2.ltrans3.ltrans.o
                                         0x8f (size before relaxing)
 .rodata.ShellCommandRunLoad.str2.2
                0x0000000000066552        0x8 /tmp/Shell.dll.2u1FF2.ltrans3.ltrans.o
                                         0x12 (size before relaxing)
 .rodata.ShellCommandRunLs.str1.1
                0x000000000006655a       0xce /tmp/Shell.dll.2u1FF2.ltrans3.ltrans.o
 .rodata.ShellCommandRunLs.str2.2
                0x0000000000066628        0x6 /tmp/Shell.dll.2u1FF2.ltrans3.ltrans.o
                                         0x1a (size before relaxing)
 .rodata.PerformSingleMappingDisplay.str2.2
                0x000000000006662e       0x2e /tmp/Shell.dll.2u1FF2.ltrans3.ltrans.o
                                         0x40 (size before relaxing)
 .rodata.PerformMappingDisplay.str2.2
                0x000000000006665c        0x8 /tmp/Shell.dll.2u1FF2.ltrans3.ltrans.o
 .rodata.ShellCommandRunReset.str1.1
                0x000000000006665c       0x55 /tmp/Shell.dll.2u1FF2.ltrans3.ltrans.o
 *fill*         0x00000000000666b1        0x1 
 .rodata.ShellCommandRunReset.str2.2
                0x00000000000666b2       0x94 /tmp/Shell.dll.2u1FF2.ltrans3.ltrans.o
                                         0xa0 (size before relaxing)
 .rodata.ShellCommandRunSet.str1.1
                0x0000000000066746       0x53 /tmp/Shell.dll.2u1FF2.ltrans3.ltrans.o
 *fill*         0x0000000000066799        0x1 
 .rodata.ShellCommandRunSet.str2.2
                0x000000000006679a        0x6 /tmp/Shell.dll.2u1FF2.ltrans3.ltrans.o
                                          0xe (size before relaxing)
 .rodata.ShellCommandRunMkDir.str1.1
                0x00000000000667a0       0x70 /tmp/Shell.dll.2u1FF2.ltrans3.ltrans.o
 .rodata.ShellCommandRunMkDir.str2.2
                0x0000000000066810        0xc /tmp/Shell.dll.2u1FF2.ltrans3.ltrans.o
 .rodata.ShellCommandRunCd.str1.1
                0x0000000000066810       0x81 /tmp/Shell.dll.2u1FF2.ltrans3.ltrans.o
 .rodata.ShellCommandRunCd.str2.2
                0x0000000000066891        0xc /tmp/Shell.dll.2u1FF2.ltrans3.ltrans.o
 .rodata.ShellFileHandleEof.str1.1
                0x0000000000066891       0x81 /tmp/Shell.dll.2u1FF2.ltrans3.ltrans.o
                                         0x73 (size before relaxing)
 .rodata.DumpHex.str1.1
                0x0000000000066891        0x1 /tmp/Shell.dll.2u1FF2.ltrans3.ltrans.o
 *fill*         0x0000000000066891        0x1 
 .rodata.DumpHex.str2.2
                0x0000000000066892       0x2c /tmp/Shell.dll.2u1FF2.ltrans3.ltrans.o
 .rodata.GetHIDevicePath.str1.1
                0x00000000000668be       0x1b /tmp/Shell.dll.2u1FF2.ltrans3.ltrans.o
 .rodata.ShellCommandConsistMappingGenMappingName.str1.1
                0x00000000000668d9       0x16 /tmp/Shell.dll.2u1FF2.ltrans3.ltrans.o
 .rodata.ShellCommandConsistMappingGenMappingName.str2.2
                0x00000000000668ef        0x6 /tmp/Shell.dll.2u1FF2.ltrans3.ltrans.o
 .rodata.ShellCommandCreateInitialMappingsAndPaths.str2.2
                0x00000000000668ef       0x12 /tmp/Shell.dll.2u1FF2.ltrans3.ltrans.o
 .rodata.ShellCommandCreateInitialMappingsAndPaths.str1.1
                0x00000000000668ef       0x1f /tmp/Shell.dll.2u1FF2.ltrans3.ltrans.o
 .rodata.ShellCommandRunMap.str1.1
                0x000000000006690e       0x53 /tmp/Shell.dll.2u1FF2.ltrans3.ltrans.o
 *fill*         0x0000000000066961        0x1 
 .rodata.ShellCommandRunMap.str2.2
                0x0000000000066962        0x6 /tmp/Shell.dll.2u1FF2.ltrans3.ltrans.o
                                         0x10 (size before relaxing)
 .rodata.FileTimeToLocalTime.str1.1
                0x0000000000066968       0x92 /tmp/Shell.dll.2u1FF2.ltrans3.ltrans.o
 .rodata.ValidateAndCopyFiles.str1.1
                0x00000000000669fa       0xe2 /tmp/Shell.dll.2u1FF2.ltrans3.ltrans.o
 .rodata.ValidateAndCopyFiles.str2.2
                0x0000000000066adc       0x10 /tmp/Shell.dll.2u1FF2.ltrans3.ltrans.o
 .rodata.CopySingleFile.str2.2
                0x0000000000066adc        0x6 /tmp/Shell.dll.2u1FF2.ltrans3.ltrans.o
 *fill*         0x0000000000066ae2        0x2 
 .rodata.CopySingleFile
                0x0000000000066ae4        0xc /tmp/Shell.dll.2u1FF2.ltrans3.ltrans.o
 .rodata.str2.2
                0x0000000000066af0        0x6 /tmp/Shell.dll.2u1FF2.ltrans3.ltrans.o
                                         0x16 (size before relaxing)
 .rodata.Cd     0x0000000000066af6        0x8 /tmp/Shell.dll.2u1FF2.ltrans3.ltrans.o
 *fill*         0x0000000000066afe        0x2 
 .rodata.DevPathConsistMappingTable
                0x0000000000066b00      0x1f8 /tmp/Shell.dll.2u1FF2.ltrans3.ltrans.o
 .rodata.Fp     0x0000000000066cf8        0x8 /tmp/Shell.dll.2u1FF2.ltrans3.ltrans.o
 .rodata.Hd     0x0000000000066d00        0x8 /tmp/Shell.dll.2u1FF2.ltrans3.ltrans.o
 .rodata.Hex.lto_priv.0
                0x0000000000066d08       0x10 /tmp/Shell.dll.2u1FF2.ltrans3.ltrans.o
                0x0000000000066d08                Hex.lto_priv.0
 .rodata.LoadParamList
                0x0000000000066d18       0x20 /tmp/Shell.dll.2u1FF2.ltrans3.ltrans.o
 .rodata.LsParamList
                0x0000000000066d38       0x40 /tmp/Shell.dll.2u1FF2.ltrans3.ltrans.o
 .rodata.MapParamList
                0x0000000000066d78       0x90 /tmp/Shell.dll.2u1FF2.ltrans3.ltrans.o
 .rodata.ResetParamList
                0x0000000000066e08       0x50 /tmp/Shell.dll.2u1FF2.ltrans3.ltrans.o
 .rodata.SetParamList
                0x0000000000066e58       0x30 /tmp/Shell.dll.2u1FF2.ltrans3.ltrans.o
 .rodata.TimeParamList3
                0x0000000000066e88       0x30 /tmp/Shell.dll.2u1FF2.ltrans3.ltrans.o
 .rodata.TimeZoneList
                0x0000000000066eb8       0x90 /tmp/Shell.dll.2u1FF2.ltrans3.ltrans.o
 .rodata.TimeZoneParamList3
                0x0000000000066f48       0x40 /tmp/Shell.dll.2u1FF2.ltrans3.ltrans.o
 .rodata.mFileName
                0x0000000000066f88       0x1c /tmp/Shell.dll.2u1FF2.ltrans3.ltrans.o
 *fill*         0x0000000000066fa4        0x4 
 .rodata.mMTDName
                0x0000000000066fa8       0x50 /tmp/Shell.dll.2u1FF2.ltrans3.ltrans.o
 .rodata.ProcessValidateAndCopyFiles.str2.2
                0x0000000000066ff8        0x6 /tmp/Shell.dll.2u1FF2.ltrans4.ltrans.o
 .rodata.ProcessValidateAndCopyFiles.str1.1
                0x0000000000066ff8       0x8a /tmp/Shell.dll.2u1FF2.ltrans4.ltrans.o
                                         0xf5 (size before relaxing)
 .rodata.ShellCommandRunCp.str1.1
                0x0000000000067082       0x47 /tmp/Shell.dll.2u1FF2.ltrans4.ltrans.o
 .rodata.ShellCommandRunCp.str2.2
                0x0000000000067082        0x6 /tmp/Shell.dll.2u1FF2.ltrans4.ltrans.o
                                         0x12 (size before relaxing)
 .rodata.ShellCommandRunCls.str1.1
                0x0000000000067088       0x53 /tmp/Shell.dll.2u1FF2.ltrans4.ltrans.o
 .rodata.ShellCommandRunCls.str2.2
                0x00000000000670db       0x12 /tmp/Shell.dll.2u1FF2.ltrans4.ltrans.o
 .rodata.TestNodeForMove.str2.2
                0x00000000000670db        0x4 /tmp/Shell.dll.2u1FF2.ltrans4.ltrans.o
 *fill*         0x00000000000670db        0x1 
 .rodata.ShellCommandRunParse.str2.2
                0x00000000000670dc       0x42 /tmp/Shell.dll.2u1FF2.ltrans4.ltrans.o
                                         0x64 (size before relaxing)
 .rodata.ShellCommandRunParse.str1.1
                0x000000000006711e       0x6f /tmp/Shell.dll.2u1FF2.ltrans4.ltrans.o
                                         0x88 (size before relaxing)
 .rodata.ShellCommandRunAttrib.str1.1
                0x000000000006718d       0x72 /tmp/Shell.dll.2u1FF2.ltrans4.ltrans.o
 *fill*         0x00000000000671ff        0x1 
 .rodata.ShellCommandRunAttrib.str2.2
                0x0000000000067200       0x1e /tmp/Shell.dll.2u1FF2.ltrans4.ltrans.o
                                         0x3c (size before relaxing)
 .rodata.InternalIsAliasOnList.str1.1
                0x000000000006721e       0x53 /tmp/Shell.dll.2u1FF2.ltrans4.ltrans.o
                                         0xa9 (size before relaxing)
 .rodata.CascadeDelete.str2.2
                0x0000000000067271        0xa /tmp/Shell.dll.2u1FF2.ltrans4.ltrans.o
 .rodata.CascadeDelete.str1.1
                0x0000000000067271       0x52 /tmp/Shell.dll.2u1FF2.ltrans4.ltrans.o
                                         0x67 (size before relaxing)
 .rodata.ShellCommandRunRm.str2.2
                0x00000000000672c3        0x8 /tmp/Shell.dll.2u1FF2.ltrans4.ltrans.o
 *fill*         0x00000000000672c3        0x1 
 .rodata.ShellCommandRunVol.str2.2
                0x00000000000672c4       0x14 /tmp/Shell.dll.2u1FF2.ltrans4.ltrans.o
                                         0x58 (size before relaxing)
 .rodata.ShellCommandRunVol.str1.1
                0x00000000000672d8       0x6b /tmp/Shell.dll.2u1FF2.ltrans4.ltrans.o
 .rodata.ShellCommandRunExit.str1.1
                0x0000000000067343       0x54 /tmp/Shell.dll.2u1FF2.ltrans4.ltrans.o
 *fill*         0x0000000000067397        0x1 
 .rodata.ShellCommandRunExit.str2.2
                0x0000000000067398        0x6 /tmp/Shell.dll.2u1FF2.ltrans4.ltrans.o
                                         0x10 (size before relaxing)
 .rodata.ShellCommandRunStall.str1.1
                0x000000000006739e       0x55 /tmp/Shell.dll.2u1FF2.ltrans4.ltrans.o
 .rodata.ShellCommandRunStall.str2.2
                0x00000000000673f3        0xc /tmp/Shell.dll.2u1FF2.ltrans4.ltrans.o
 .rodata.ShellCommandRunGoto.str1.1
                0x00000000000673f3       0x54 /tmp/Shell.dll.2u1FF2.ltrans4.ltrans.o
 *fill*         0x0000000000067447        0x1 
 .rodata.ShellCommandRunGoto.str2.2
                0x0000000000067448        0xa /tmp/Shell.dll.2u1FF2.ltrans4.ltrans.o
                                         0x2a (size before relaxing)
 .rodata.PerformResultOperation.str2.2
                0x0000000000067452        0xa /tmp/Shell.dll.2u1FF2.ltrans4.ltrans.o
                                         0x1c (size before relaxing)
 .rodata.ShellCommandRunElse.str1.1
                0x0000000000067452       0x57 /tmp/Shell.dll.2u1FF2.ltrans4.ltrans.o
 *fill*         0x00000000000674a9        0x1 
 .rodata.ShellCommandRunElse.str2.2
                0x00000000000674aa       0x16 /tmp/Shell.dll.2u1FF2.ltrans4.ltrans.o
                                         0x1c (size before relaxing)
 .rodata.ShellCommandRunEndIf.str2.2
                0x00000000000674c0        0xc /tmp/Shell.dll.2u1FF2.ltrans4.ltrans.o
 .rodata.ShellCommandRunEndFor.str2.2
                0x00000000000674cc        0xe /tmp/Shell.dll.2u1FF2.ltrans4.ltrans.o
                                         0x16 (size before relaxing)
 .rodata.ShellCommandRunShift.str1.1
                0x00000000000674da       0x77 /tmp/Shell.dll.2u1FF2.ltrans4.ltrans.o
 .rodata.ShellCommandRunShift.str2.2
                0x0000000000067551        0xc /tmp/Shell.dll.2u1FF2.ltrans4.ltrans.o
 *fill*         0x0000000000067551        0x1 
 .rodata.ShellCommandRunIf.str2.2
                0x0000000000067552       0xba /tmp/Shell.dll.2u1FF2.ltrans4.ltrans.o
                                        0x134 (size before relaxing)
 .rodata.ShellCommandRunIf.str1.1
                0x000000000006760c       0xa6 /tmp/Shell.dll.2u1FF2.ltrans4.ltrans.o
 *fill*         0x00000000000676b2        0x2 
 .rodata.ShellCommandRunIf
                0x00000000000676b4       0x12 /tmp/Shell.dll.2u1FF2.ltrans4.ltrans.o
 .rodata.ShellCommandRunFor.str2.2
                0x00000000000676c6       0x10 /tmp/Shell.dll.2u1FF2.ltrans4.ltrans.o
                                         0x22 (size before relaxing)
 .rodata.ShellCommandRunFor.str1.1
                0x00000000000676d6       0x9b /tmp/Shell.dll.2u1FF2.ltrans4.ltrans.o
                                         0xb0 (size before relaxing)
 .rodata.PrintSingleShellAlias.str2.2
                0x0000000000067771        0xc /tmp/Shell.dll.2u1FF2.ltrans4.ltrans.o
 .rodata.ValidateAndMoveFiles.str1.1
                0x0000000000067771       0xde /tmp/Shell.dll.2u1FF2.ltrans4.ltrans.o
                                        0x156 (size before relaxing)
 .rodata.ValidateAndMoveFiles.str2.2
                0x000000000006784f        0xc /tmp/Shell.dll.2u1FF2.ltrans4.ltrans.o
 *fill*         0x000000000006784f        0x1 
 .rodata.ValidateAndMoveFiles
                0x0000000000067850        0x6 /tmp/Shell.dll.2u1FF2.ltrans4.ltrans.o
 .rodata.AllFiles
                0x0000000000067856        0x4 /tmp/Shell.dll.2u1FF2.ltrans4.ltrans.o
 *fill*         0x000000000006785a        0x6 
 .rodata.AttribParamList
                0x0000000000067860       0x90 /tmp/Shell.dll.2u1FF2.ltrans4.ltrans.o
 .rodata.ParamList.lto_priv.0
                0x00000000000678f0       0x30 /tmp/Shell.dll.2u1FF2.ltrans4.ltrans.o
 .rodata.ParamList.lto_priv.1
                0x0000000000067920       0x30 /tmp/Shell.dll.2u1FF2.ltrans4.ltrans.o
 .rodata.ParamList.lto_priv.2
                0x0000000000067950       0x20 /tmp/Shell.dll.2u1FF2.ltrans4.ltrans.o
 .rodata.ParamList.lto_priv.3
                0x0000000000067970       0x30 /tmp/Shell.dll.2u1FF2.ltrans4.ltrans.o
 .rodata.ParamList.lto_priv.4
                0x00000000000679a0       0x20 /tmp/Shell.dll.2u1FF2.ltrans4.ltrans.o
 .rodata.ParamList.lto_priv.5
                0x00000000000679c0       0x20 /tmp/Shell.dll.2u1FF2.ltrans4.ltrans.o
 .rodata.gShellLevel3FileName
                0x00000000000679e0       0x1c /tmp/Shell.dll.2u1FF2.ltrans4.ltrans.o
 .rodata.mFileName
                0x00000000000679fc       0x1c /tmp/Shell.dll.2u1FF2.ltrans4.ltrans.o
 .rodata.ShellCommandRunGetMtc.str1.1
                0x0000000000067a18       0x56 /tmp/Shell.dll.2u1FF2.ltrans5.ltrans.o
                                         0x9d (size before relaxing)
 .rodata.ShellCommandRunGetMtc.str2.2
                0x0000000000067a6e       0x14 /tmp/Shell.dll.2u1FF2.ltrans5.ltrans.o
 .rodata.ShellCommandRunAlias.str1.1
                0x0000000000067a6e       0x62 /tmp/Shell.dll.2u1FF2.ltrans5.ltrans.o
 .rodata.ShellCommandRunAlias.str2.2
                0x0000000000067ad0       0x1c /tmp/Shell.dll.2u1FF2.ltrans5.ltrans.o
 .rodata.ShellCommandRunVer.str1.1
                0x0000000000067ad0       0x53 /tmp/Shell.dll.2u1FF2.ltrans5.ltrans.o
 *fill*         0x0000000000067b23        0x1 
 .rodata.ShellCommandRunVer.str2.2
                0x0000000000067b24       0x2e /tmp/Shell.dll.2u1FF2.ltrans5.ltrans.o
                                         0x68 (size before relaxing)
 .rodata.ShellCommandRunEcho.str1.1
                0x0000000000067b52       0x54 /tmp/Shell.dll.2u1FF2.ltrans5.ltrans.o
 .rodata.ShellCommandRunEcho.str2.2
                0x0000000000067ba6       0x2e /tmp/Shell.dll.2u1FF2.ltrans5.ltrans.o
                                         0x2a (size before relaxing)
 .rodata.ShellCommandRunPause.str1.1
                0x0000000000067ba6       0x55 /tmp/Shell.dll.2u1FF2.ltrans5.ltrans.o
 .rodata.ShellCommandRunPause.str2.2
                0x0000000000067bfb       0x12 /tmp/Shell.dll.2u1FF2.ltrans5.ltrans.o
 .rodata.ShellCommandRunHelp.str1.1
                0x0000000000067bfb       0x9a /tmp/Shell.dll.2u1FF2.ltrans5.ltrans.o
 *fill*         0x0000000000067c95        0x1 
 .rodata.ShellCommandRunHelp.str2.2
                0x0000000000067c96       0xbe /tmp/Shell.dll.2u1FF2.ltrans5.ltrans.o
                                         0xd2 (size before relaxing)
 .rodata.DoTouchByHandle.str2.2
                0x0000000000067d54       0x34 /tmp/Shell.dll.2u1FF2.ltrans5.ltrans.o
 .rodata.ShellCommandRunTouch.str1.1
                0x0000000000067d54       0x55 /tmp/Shell.dll.2u1FF2.ltrans5.ltrans.o
 .rodata.ShellCommandRunTouch.str2.2
                0x0000000000067da9        0x6 /tmp/Shell.dll.2u1FF2.ltrans5.ltrans.o
 .rodata.ShellCommandRunType.str1.1
                0x0000000000067da9       0x71 /tmp/Shell.dll.2u1FF2.ltrans5.ltrans.o
 .rodata.ShellCommandRunType.str2.2
                0x0000000000067e1a       0x10 /tmp/Shell.dll.2u1FF2.ltrans5.ltrans.o
                                         0x32 (size before relaxing)
 .rodata.ShellCommandRunConnect.str1.1
                0x0000000000067e2a       0x58 /tmp/Shell.dll.2u1FF2.ltrans5.ltrans.o
 .rodata.ShellCommandRunConnect.str2.2
                0x0000000000067e82       0x72 /tmp/Shell.dll.2u1FF2.ltrans5.ltrans.o
                                         0x88 (size before relaxing)
 .rodata.ShellCommandRunDevices.str2.2
                0x0000000000067ef4       0x14 /tmp/Shell.dll.2u1FF2.ltrans5.ltrans.o
                                         0x34 (size before relaxing)
 .rodata.ShellCommandRunDevices.str1.1
                0x0000000000067f08       0x73 /tmp/Shell.dll.2u1FF2.ltrans5.ltrans.o
                                         0x76 (size before relaxing)
 .rodata.ShellCommandRunOpenInfo.str1.1
                0x0000000000067f7b       0x59 /tmp/Shell.dll.2u1FF2.ltrans5.ltrans.o
                                         0x73 (size before relaxing)
 .rodata.ShellCommandRunOpenInfo.str2.2
                0x0000000000067fd4       0x12 /tmp/Shell.dll.2u1FF2.ltrans5.ltrans.o
                                         0x24 (size before relaxing)
 .rodata.ShellCommandRunDisconnect.str1.1
                0x0000000000067fe6       0x89 /tmp/Shell.dll.2u1FF2.ltrans5.ltrans.o
 *fill*         0x000000000006806f        0x1 
 .rodata.ShellCommandRunDisconnect.str2.2
                0x0000000000068070       0x32 /tmp/Shell.dll.2u1FF2.ltrans5.ltrans.o
                                         0x50 (size before relaxing)
 .rodata.ShellCommandRunReconnect.str1.1
                0x00000000000680a2       0x5a /tmp/Shell.dll.2u1FF2.ltrans5.ltrans.o
 .rodata.ShellCommandRunReconnect.str2.2
                0x00000000000680fc       0x14 /tmp/Shell.dll.2u1FF2.ltrans5.ltrans.o
 .rodata.ShellCommandRunUnload.str1.1
                0x00000000000680fc       0x57 /tmp/Shell.dll.2u1FF2.ltrans5.ltrans.o
 *fill*         0x0000000000068153        0x1 
 .rodata.ShellCommandRunUnload.str2.2
                0x0000000000068154        0xe /tmp/Shell.dll.2u1FF2.ltrans5.ltrans.o
                                         0x22 (size before relaxing)
 .rodata.ShellCommandRunDrvDiag.str1.1
                0x0000000000068162       0x78 /tmp/Shell.dll.2u1FF2.ltrans5.ltrans.o
 .rodata.ShellCommandRunDrvDiag.str2.2
                0x00000000000681da       0xa6 /tmp/Shell.dll.2u1FF2.ltrans5.ltrans.o
                                         0xb6 (size before relaxing)
 .rodata.GetProtocolInfoString.str1.1
                0x0000000000068280       0x95 /tmp/Shell.dll.2u1FF2.ltrans5.ltrans.o
 *fill*         0x0000000000068315        0x1 
 .rodata.GetProtocolInfoString.str2.2
                0x0000000000068316       0x10 /tmp/Shell.dll.2u1FF2.ltrans5.ltrans.o
                                         0x30 (size before relaxing)
 .rodata.DoDevTreeForHandle.str2.2
                0x0000000000068326       0x12 /tmp/Shell.dll.2u1FF2.ltrans5.ltrans.o
                                         0x24 (size before relaxing)
 .rodata.DoDevTreeForHandle.str1.1
                0x0000000000068338       0x72 /tmp/Shell.dll.2u1FF2.ltrans5.ltrans.o
 .rodata.ShellCommandRunDevTree.str2.2
                0x00000000000683aa       0x10 /tmp/Shell.dll.2u1FF2.ltrans5.ltrans.o
 .rodata.DoDhByHandle.str2.2
                0x00000000000683aa       0xc2 /tmp/Shell.dll.2u1FF2.ltrans5.ltrans.o
                                         0xe2 (size before relaxing)
 .rodata.ShellCommandRunDh.str2.2
                0x000000000006846c        0x6 /tmp/Shell.dll.2u1FF2.ltrans5.ltrans.o
                                         0x1a (size before relaxing)
 .rodata.ShellCommandRunDh.str1.1
                0x0000000000068472        0x6 /tmp/Shell.dll.2u1FF2.ltrans5.ltrans.o
 .rodata.ShellCommandRunDrivers.str2.2
                0x0000000000068478       0x14 /tmp/Shell.dll.2u1FF2.ltrans5.ltrans.o
 .rodata.ShellCommandRunDrivers.str1.1
                0x0000000000068478       0x58 /tmp/Shell.dll.2u1FF2.ltrans5.ltrans.o
 .rodata.FindHiiHandleViaDevPath.str1.1
                0x00000000000684d0       0xa1 /tmp/Shell.dll.2u1FF2.ltrans5.ltrans.o
 *fill*         0x0000000000068571        0x7 
 .rodata.CSWTCH.41
                0x0000000000068578      0x180 /tmp/Shell.dll.2u1FF2.ltrans5.ltrans.o
 .rodata.ParamList.lto_priv.10
                0x00000000000686f8       0x30 /tmp/Shell.dll.2u1FF2.ltrans5.ltrans.o
 .rodata.ParamList.lto_priv.11
                0x0000000000068728       0x20 /tmp/Shell.dll.2u1FF2.ltrans5.ltrans.o
 .rodata.ParamList.lto_priv.12
                0x0000000000068748       0x50 /tmp/Shell.dll.2u1FF2.ltrans5.ltrans.o
 .rodata.ParamList.lto_priv.13
                0x0000000000068798       0x30 /tmp/Shell.dll.2u1FF2.ltrans5.ltrans.o
 .rodata.ParamList.lto_priv.14
                0x00000000000687c8       0x30 /tmp/Shell.dll.2u1FF2.ltrans5.ltrans.o
 .rodata.ParamList.lto_priv.15
                0x00000000000687f8       0x30 /tmp/Shell.dll.2u1FF2.ltrans5.ltrans.o
 .rodata.ParamList.lto_priv.16
                0x0000000000068828       0x20 /tmp/Shell.dll.2u1FF2.ltrans5.ltrans.o
 .rodata.ParamList.lto_priv.17
                0x0000000000068848       0x40 /tmp/Shell.dll.2u1FF2.ltrans5.ltrans.o
 .rodata.ParamList.lto_priv.18
                0x0000000000068888       0x60 /tmp/Shell.dll.2u1FF2.ltrans5.ltrans.o
 .rodata.ParamList.lto_priv.19
                0x00000000000688e8       0x70 /tmp/Shell.dll.2u1FF2.ltrans5.ltrans.o
 .rodata.ParamList.lto_priv.20
                0x0000000000068958       0x30 /tmp/Shell.dll.2u1FF2.ltrans5.ltrans.o
 .rodata.ParamList.lto_priv.21
                0x0000000000068988       0x30 /tmp/Shell.dll.2u1FF2.ltrans5.ltrans.o
 .rodata.ParamList.lto_priv.6
                0x00000000000689b8       0x30 /tmp/Shell.dll.2u1FF2.ltrans5.ltrans.o
 .rodata.ParamList.lto_priv.7
                0x00000000000689e8       0x30 /tmp/Shell.dll.2u1FF2.ltrans5.ltrans.o
 .rodata.ParamList.lto_priv.8
                0x0000000000068a18       0x20 /tmp/Shell.dll.2u1FF2.ltrans5.ltrans.o
 .rodata.ParamList.lto_priv.9
                0x0000000000068a38       0x50 /tmp/Shell.dll.2u1FF2.ltrans5.ltrans.o
 .rodata.StringChild
                0x0000000000068a88       0x14 /tmp/Shell.dll.2u1FF2.ltrans5.ltrans.o
 .rodata.StringDriver
                0x0000000000068a9c       0x14 /tmp/Shell.dll.2u1FF2.ltrans5.ltrans.o
 .rodata.StringDriverEx
                0x0000000000068ab0       0x14 /tmp/Shell.dll.2u1FF2.ltrans5.ltrans.o
 .rodata.StringExclusive
                0x0000000000068ac4       0x14 /tmp/Shell.dll.2u1FF2.ltrans5.ltrans.o
 .rodata.StringGetProt
                0x0000000000068ad8       0x14 /tmp/Shell.dll.2u1FF2.ltrans5.ltrans.o
 .rodata.StringHandProt
                0x0000000000068aec       0x14 /tmp/Shell.dll.2u1FF2.ltrans5.ltrans.o
 .rodata.StringTestProt
                0x0000000000068b00       0x14 /tmp/Shell.dll.2u1FF2.ltrans5.ltrans.o
 .rodata.StringUnknown
                0x0000000000068b14       0x14 /tmp/Shell.dll.2u1FF2.ltrans5.ltrans.o
 .rodata.mFileName
                0x0000000000068b28       0x20 /tmp/Shell.dll.2u1FF2.ltrans5.ltrans.o
 .rodata.mGuidDataLen
                0x0000000000068b48       0x28 /tmp/Shell.dll.2u1FF2.ltrans5.ltrans.o
 .rodata.InternalEditorMiscLineAdvance.str1.1
                0x0000000000068b70       0x5f /tmp/Shell.dll.2u1FF2.ltrans6.ltrans.o
                                         0x74 (size before relaxing)
 .rodata.PreHiiDrvCfg.str1.1
                0x0000000000068bcf       0x18 /tmp/Shell.dll.2u1FF2.ltrans6.ltrans.o
                                         0x70 (size before relaxing)
 .rodata.PreHiiDrvCfg.str2.2
                0x0000000000068be7       0x18 /tmp/Shell.dll.2u1FF2.ltrans6.ltrans.o
 *fill*         0x0000000000068be7        0x1 
 .rodata.ShellCommandRunDrvCfg.str2.2
                0x0000000000068be8       0x72 /tmp/Shell.dll.2u1FF2.ltrans6.ltrans.o
                                         0x9e (size before relaxing)
 .rodata.ShellCommandRunDrvCfg.str1.1
                0x0000000000068c5a       0x4a /tmp/Shell.dll.2u1FF2.ltrans6.ltrans.o
 .rodata.EditGetDefaultFileName.str2.2
                0x0000000000068c5a       0x1a /tmp/Shell.dll.2u1FF2.ltrans6.ltrans.o
 .rodata.LineCat.str2.2
                0x0000000000068c74        0xa /tmp/Shell.dll.2u1FF2.ltrans6.ltrans.o
 .rodata.HMainEditorBackup.str2.2
                0x0000000000068c7e        0x6 /tmp/Shell.dll.2u1FF2.ltrans6.ltrans.o
 .rodata.MainCommandSwitchFileType.str2.2
                0x0000000000068c7e       0x46 /tmp/Shell.dll.2u1FF2.ltrans6.ltrans.o
 .rodata.MainCommandPasteLine.str2.2
                0x0000000000068cc4       0x22 /tmp/Shell.dll.2u1FF2.ltrans6.ltrans.o
 .rodata.HMainCommandSelectStart.str2.2
                0x0000000000068ce6       0x28 /tmp/Shell.dll.2u1FF2.ltrans6.ltrans.o
 .rodata.HMainCommandSelectEnd.str2.2
                0x0000000000068d0e       0x24 /tmp/Shell.dll.2u1FF2.ltrans6.ltrans.o
 .rodata.MainCommandCutLine.str2.2
                0x0000000000068d32       0x1e /tmp/Shell.dll.2u1FF2.ltrans6.ltrans.o
 .rodata.FileBufferRead.str2.2
                0x0000000000068d50      0x12a /tmp/Shell.dll.2u1FF2.ltrans6.ltrans.o
 .rodata.FileBufferSave.str2.2
                0x0000000000068e7a       0xe2 /tmp/Shell.dll.2u1FF2.ltrans6.ltrans.o
 .rodata.MainCommandSearch.str2.2
                0x0000000000068f5c       0x86 /tmp/Shell.dll.2u1FF2.ltrans6.ltrans.o
 .rodata.MainCommandExit.str2.2
                0x0000000000068fe2       0x4e /tmp/Shell.dll.2u1FF2.ltrans6.ltrans.o
 .rodata.MainCommandSearchReplace.str2.2
                0x0000000000069030       0x5a /tmp/Shell.dll.2u1FF2.ltrans6.ltrans.o
 .rodata.MainCommandSearchReplace.str1.1
                0x000000000006908a       0x18 /tmp/Shell.dll.2u1FF2.ltrans6.ltrans.o
 .rodata.MainCommandGotoLine.str2.2
                0x00000000000690a2       0x34 /tmp/Shell.dll.2u1FF2.ltrans6.ltrans.o
 .rodata.MainCommandDisplayHelp.str2.2
                0x00000000000690d6        0xe /tmp/Shell.dll.2u1FF2.ltrans6.ltrans.o
 .rodata.HMainCommandGoToOffset.str2.2
                0x00000000000690e4       0x3c /tmp/Shell.dll.2u1FF2.ltrans6.ltrans.o
 .rodata.HMainCommandExit.str2.2
                0x0000000000069120       0x52 /tmp/Shell.dll.2u1FF2.ltrans6.ltrans.o
 .rodata.HMainCommandOpenDisk.str2.2
                0x0000000000069172       0x78 /tmp/Shell.dll.2u1FF2.ltrans6.ltrans.o
 .rodata.HMainCommandOpenMemory.str2.2
                0x00000000000691ea       0x8a /tmp/Shell.dll.2u1FF2.ltrans6.ltrans.o
 .rodata.HMainCommandCut.str2.2
                0x0000000000069274       0x2a /tmp/Shell.dll.2u1FF2.ltrans6.ltrans.o
 .rodata.HMainCommandPaste.str2.2
                0x000000000006929e       0x22 /tmp/Shell.dll.2u1FF2.ltrans6.ltrans.o
 .rodata.HMainCommandPaste.str1.1
                0x00000000000692c0       0x63 /tmp/Shell.dll.2u1FF2.ltrans6.ltrans.o
 .rodata.ShellCommandRunSetSize.str1.1
                0x0000000000069323       0x57 /tmp/Shell.dll.2u1FF2.ltrans6.ltrans.o
 .rodata.ShellCommandRunSetSize.str2.2
                0x000000000006937a       0x10 /tmp/Shell.dll.2u1FF2.ltrans6.ltrans.o
 .rodata.MainCommandOpenFile.str2.2
                0x000000000006937a       0x4c /tmp/Shell.dll.2u1FF2.ltrans6.ltrans.o
 .rodata.MainCommandSaveFile.str2.2
                0x00000000000693c6       0xc6 /tmp/Shell.dll.2u1FF2.ltrans6.ltrans.o
 .rodata.ShellCommandRunHexEdit.str2.2
                0x000000000006948c       0xc8 /tmp/Shell.dll.2u1FF2.ltrans6.ltrans.o
                                         0xf0 (size before relaxing)
 .rodata.ShellCommandRunHexEdit.str1.1
                0x0000000000069554       0xc4 /tmp/Shell.dll.2u1FF2.ltrans6.ltrans.o
 .rodata.HMainCommandSaveBuffer.str2.2
                0x0000000000069618       0xb0 /tmp/Shell.dll.2u1FF2.ltrans6.ltrans.o
 .rodata.ShellCommandRunEdit.str1.1
                0x00000000000696c8       0xd6 /tmp/Shell.dll.2u1FF2.ltrans6.ltrans.o
 .rodata.ShellCommandRunEdit.str2.2
                0x000000000006979e       0x1c /tmp/Shell.dll.2u1FF2.ltrans6.ltrans.o
                                         0x38 (size before relaxing)
 *fill*         0x00000000000697ba        0x2 
 .rodata.ShellCommandRunEdit
                0x00000000000697bc       0x30 /tmp/Shell.dll.2u1FF2.ltrans6.ltrans.o
 .rodata.HLineAdvance.str1.1
                0x00000000000697ec       0x5c /tmp/Shell.dll.2u1FF2.ltrans6.ltrans.o
 .rodata.PrintDifferentPoint.str2.2
                0x0000000000069848       0x2c /tmp/Shell.dll.2u1FF2.ltrans6.ltrans.o
                                         0x4a (size before relaxing)
 .rodata        0x0000000000069874        0x4 /tmp/Shell.dll.2u1FF2.ltrans6.ltrans.o
 .rodata.HexEditorMenuItems
                0x0000000000069878       0xb0 /tmp/Shell.dll.2u1FF2.ltrans6.ltrans.o
 .rodata.HexMainMenuHelpInfo
                0x0000000000069928       0x30 /tmp/Shell.dll.2u1FF2.ltrans6.ltrans.o
 .rodata.MainMenuHelpInfo
                0x0000000000069958       0x30 /tmp/Shell.dll.2u1FF2.ltrans6.ltrans.o
 .rodata.ParamList
                0x0000000000069988       0x40 /tmp/Shell.dll.2u1FF2.ltrans6.ltrans.o
 .rodata.ParamListHii
                0x00000000000699c8       0x60 /tmp/Shell.dll.2u1FF2.ltrans6.ltrans.o
 .rodata.ParamListPreHii
                0x0000000000069a28       0x60 /tmp/Shell.dll.2u1FF2.ltrans6.ltrans.o
 .rodata.mFileName
                0x0000000000069a88       0x1e /tmp/Shell.dll.2u1FF2.ltrans6.ltrans.o
 .rodata.PciGetClassStrings.str2.2
                0x0000000000069aa6       0x14 /tmp/Shell.dll.2u1FF2.ltrans7.ltrans.o
 .rodata.ShellCommandRunComp.str1.1
                0x0000000000069aba       0x54 /tmp/Shell.dll.2u1FF2.ltrans7.ltrans.o
                                         0xb5 (size before relaxing)
 .rodata.ShellCommandRunComp.str2.2
                0x0000000000069b0e       0x18 /tmp/Shell.dll.2u1FF2.ltrans7.ltrans.o
                                         0x36 (size before relaxing)
 .rodata.ShellCommandRunMode.str1.1
                0x0000000000069b26       0x54 /tmp/Shell.dll.2u1FF2.ltrans7.ltrans.o
 .rodata.ShellCommandRunMode.str2.2
                0x0000000000069b7a        0xa /tmp/Shell.dll.2u1FF2.ltrans7.ltrans.o
 .rodata.ShellCommandRunMemMap.str1.1
                0x0000000000069b7a       0x63 /tmp/Shell.dll.2u1FF2.ltrans7.ltrans.o
 .rodata.ShellCommandRunMemMap.str2.2
                0x0000000000069bdd       0x18 /tmp/Shell.dll.2u1FF2.ltrans7.ltrans.o
 *fill*         0x0000000000069bdd        0x3 
 .rodata.ShellCommandRunMemMap
                0x0000000000069be0       0x1e /tmp/Shell.dll.2u1FF2.ltrans7.ltrans.o
 .rodata.ShellCommandRunEfiCompress.str1.1
                0x0000000000069bfe       0x5b /tmp/Shell.dll.2u1FF2.ltrans7.ltrans.o
 .rodata.ShellCommandRunEfiCompress.str2.2
                0x0000000000069c59       0x18 /tmp/Shell.dll.2u1FF2.ltrans7.ltrans.o
 .rodata.ShellCommandRunEfiDecompress.str1.1
                0x0000000000069c59       0x77 /tmp/Shell.dll.2u1FF2.ltrans7.ltrans.o
 .rodata.ShellCommandRunEfiDecompress.str2.2
                0x0000000000069cd0       0x1c /tmp/Shell.dll.2u1FF2.ltrans7.ltrans.o
 .rodata.ShellCommandRunDmem.str1.1
                0x0000000000069cd0       0x54 /tmp/Shell.dll.2u1FF2.ltrans7.ltrans.o
 .rodata.ShellCommandRunDmem.str2.2
                0x0000000000069d24        0xc /tmp/Shell.dll.2u1FF2.ltrans7.ltrans.o
                                         0x16 (size before relaxing)
 .rodata.LoadEfiDriversFromRomImage.str2.2
                0x0000000000069d30        0xe /tmp/Shell.dll.2u1FF2.ltrans7.ltrans.o
                                         0x24 (size before relaxing)
 .rodata.LoadEfiDriversFromRomImage.str1.1
                0x0000000000069d3e       0x5a /tmp/Shell.dll.2u1FF2.ltrans7.ltrans.o
 .rodata.ShellCommandRunLoadPciRom.str2.2
                0x0000000000069d98        0x8 /tmp/Shell.dll.2u1FF2.ltrans7.ltrans.o
 .rodata.ShellCommandRunLoadPciRom.str1.1
                0x0000000000069d98        0xb /tmp/Shell.dll.2u1FF2.ltrans7.ltrans.o
 .rodata.ShellMmAccess.str1.1
                0x0000000000069da3       0x72 /tmp/Shell.dll.2u1FF2.ltrans7.ltrans.o
 *fill*         0x0000000000069e15        0x3 
 .rodata.ShellMmAccess
                0x0000000000069e18       0x10 /tmp/Shell.dll.2u1FF2.ltrans7.ltrans.o
 .rodata.ExplainPcieCapReg.str2.2
                0x0000000000069e28      0x192 /tmp/Shell.dll.2u1FF2.ltrans7.ltrans.o
 .rodata.ExplainPcieDeviceCap.str2.2
                0x0000000000069fba      0x476 /tmp/Shell.dll.2u1FF2.ltrans7.ltrans.o
 .rodata.ExplainPcieDeviceControl.str2.2
                0x000000000006a430      0x4d4 /tmp/Shell.dll.2u1FF2.ltrans7.ltrans.o
 .rodata.ExplainPcieDeviceStatus.str2.2
                0x000000000006a904      0x27c /tmp/Shell.dll.2u1FF2.ltrans7.ltrans.o
 .rodata.ExplainPcieLinkCap.str2.2
                0x000000000006ab80      0x50a /tmp/Shell.dll.2u1FF2.ltrans7.ltrans.o
                                        0x51c (size before relaxing)
 .rodata.ExplainPcieLinkControl.str2.2
                0x000000000006b08a      0x478 /tmp/Shell.dll.2u1FF2.ltrans7.ltrans.o
 .rodata.ExplainPcieLinkStatus.str2.2
                0x000000000006b502      0x374 /tmp/Shell.dll.2u1FF2.ltrans7.ltrans.o
 .rodata.ExplainPcieSlotCap.str2.2
                0x000000000006b876      0x5f0 /tmp/Shell.dll.2u1FF2.ltrans7.ltrans.o
 .rodata.ExplainPcieSlotControl.str2.2
                0x000000000006be66      0x588 /tmp/Shell.dll.2u1FF2.ltrans7.ltrans.o
 .rodata.ExplainPcieSlotStatus.str2.2
                0x000000000006c3ee      0x45a /tmp/Shell.dll.2u1FF2.ltrans7.ltrans.o
 .rodata.ExplainPcieRootControl.str2.2
                0x000000000006c848      0x23a /tmp/Shell.dll.2u1FF2.ltrans7.ltrans.o
 .rodata.ExplainPcieRootCap.str2.2
                0x000000000006ca82       0x72 /tmp/Shell.dll.2u1FF2.ltrans7.ltrans.o
 .rodata.ExplainPcieRootStatus.str2.2
                0x000000000006caf4      0x15e /tmp/Shell.dll.2u1FF2.ltrans7.ltrans.o
 .rodata.ShellCommandRunMm.str2.2
                0x000000000006cc52       0x28 /tmp/Shell.dll.2u1FF2.ltrans7.ltrans.o
                                         0x42 (size before relaxing)
 .rodata.ParseParameterData.str2.2
                0x000000000006cc7a        0x6 /tmp/Shell.dll.2u1FF2.ltrans7.ltrans.o
                                         0x14 (size before relaxing)
 .rodata.ParseParameterData.str1.1
                0x000000000006cc80       0x3c /tmp/Shell.dll.2u1FF2.ltrans7.ltrans.o
                                         0xae (size before relaxing)
 .rodata.ShellCommandRunSetVar.str1.1
                0x000000000006ccbc       0x8c /tmp/Shell.dll.2u1FF2.ltrans7.ltrans.o
                                         0xf7 (size before relaxing)
 .rodata.ShellCommandRunSetVar.str2.2
                0x000000000006cd48       0x30 /tmp/Shell.dll.2u1FF2.ltrans7.ltrans.o
 .rodata.DisplaySettings.str2.2
                0x000000000006cd78       0x20 /tmp/Shell.dll.2u1FF2.ltrans7.ltrans.o
 .rodata.ShellCommandRunSerMode.str1.1
                0x000000000006cd78       0x57 /tmp/Shell.dll.2u1FF2.ltrans7.ltrans.o
 *fill*         0x000000000006cdcf        0x1 
 .rodata.ShellCommandRunSerMode
                0x000000000006cdd0       0x10 /tmp/Shell.dll.2u1FF2.ltrans7.ltrans.o
 .rodata.ShellCommandRunPci.str1.1
                0x000000000006cde0       0x53 /tmp/Shell.dll.2u1FF2.ltrans7.ltrans.o
 *fill*         0x000000000006ce33        0x1 
 .rodata.ShellCommandRunPci.str2.2
                0x000000000006ce34      0x1ae /tmp/Shell.dll.2u1FF2.ltrans7.ltrans.o
                                        0x1cc (size before relaxing)
 *fill*         0x000000000006cfe2        0x2 
 .rodata.ShellCommandRunPci
                0x000000000006cfe4       0x32 /tmp/Shell.dll.2u1FF2.ltrans7.ltrans.o
 .rodata.str2.2
                0x000000000006d016     0x2948 /tmp/Shell.dll.2u1FF2.ltrans7.ltrans.o
                                       0x2e3e (size before relaxing)
 *fill*         0x000000000006f95e        0x2 
 .rodata.ASPMCtrlStrTable
                0x000000000006f960       0x20 /tmp/Shell.dll.2u1FF2.ltrans7.ltrans.o
 .rodata.CSWTCH.360
                0x000000000006f980       0x28 /tmp/Shell.dll.2u1FF2.ltrans7.ltrans.o
 .rodata.CSWTCH.361
                0x000000000006f9a8       0x20 /tmp/Shell.dll.2u1FF2.ltrans7.ltrans.o
 .rodata.CSWTCH.68
                0x000000000006f9c8        0x6 /tmp/Shell.dll.2u1FF2.ltrans7.ltrans.o
 *fill*         0x000000000006f9ce        0x2 
 .rodata.CSWTCH.69
                0x000000000006f9d0       0x20 /tmp/Shell.dll.2u1FF2.ltrans7.ltrans.o
 .rodata.DevicePortTypeTable
                0x000000000006f9f0       0x58 /tmp/Shell.dll.2u1FF2.ltrans7.ltrans.o
 .rodata.IndicatorTable
                0x000000000006fa48       0x20 /tmp/Shell.dll.2u1FF2.ltrans7.ltrans.o
 .rodata.L0sLatencyStrTable
                0x000000000006fa68       0x40 /tmp/Shell.dll.2u1FF2.ltrans7.ltrans.o
 .rodata.L1LatencyStrTable
                0x000000000006faa8       0x40 /tmp/Shell.dll.2u1FF2.ltrans7.ltrans.o
 .rodata.NameEfiACPIMemoryNVS
                0x000000000006fae8       0x1c /tmp/Shell.dll.2u1FF2.ltrans7.ltrans.o
 .rodata.NameEfiACPIMemoryNVSShort
                0x000000000006fb04       0x12 /tmp/Shell.dll.2u1FF2.ltrans7.ltrans.o
 .rodata.NameEfiACPIReclaimMemory
                0x000000000006fb16       0x24 /tmp/Shell.dll.2u1FF2.ltrans7.ltrans.o
 .rodata.NameEfiACPIReclaimMemoryShort
                0x000000000006fb3a       0x14 /tmp/Shell.dll.2u1FF2.ltrans7.ltrans.o
 .rodata.NameEfiBootServicesCode
                0x000000000006fb4e       0x20 /tmp/Shell.dll.2u1FF2.ltrans7.ltrans.o
 .rodata.NameEfiBootServicesCodeShort
                0x000000000006fb6e       0x10 /tmp/Shell.dll.2u1FF2.ltrans7.ltrans.o
 .rodata.NameEfiBootServicesData
                0x000000000006fb7e       0x20 /tmp/Shell.dll.2u1FF2.ltrans7.ltrans.o
 .rodata.NameEfiBootServicesDataShort
                0x000000000006fb9e       0x10 /tmp/Shell.dll.2u1FF2.ltrans7.ltrans.o
 .rodata.NameEfiConventionalMemory
                0x000000000006fbae       0x14 /tmp/Shell.dll.2u1FF2.ltrans7.ltrans.o
 .rodata.NameEfiLoaderCode
                0x000000000006fbc2       0x16 /tmp/Shell.dll.2u1FF2.ltrans7.ltrans.o
 .rodata.NameEfiLoaderData
                0x000000000006fbd8       0x16 /tmp/Shell.dll.2u1FF2.ltrans7.ltrans.o
 .rodata.NameEfiMemoryMappedIO
                0x000000000006fbee       0x1e /tmp/Shell.dll.2u1FF2.ltrans7.ltrans.o
 .rodata.NameEfiMemoryMappedIOPortSpace
                0x000000000006fc0c       0x30 /tmp/Shell.dll.2u1FF2.ltrans7.ltrans.o
 .rodata.NameEfiMemoryMappedIOPortSpaceShort
                0x000000000006fc3c       0x14 /tmp/Shell.dll.2u1FF2.ltrans7.ltrans.o
 .rodata.NameEfiMemoryMappedIOShort
                0x000000000006fc50        0xa /tmp/Shell.dll.2u1FF2.ltrans7.ltrans.o
 .rodata.NameEfiPalCode
                0x000000000006fc5a       0x10 /tmp/Shell.dll.2u1FF2.ltrans7.ltrans.o
 .rodata.NameEfiPersistentMemory
                0x000000000006fc6a       0x16 /tmp/Shell.dll.2u1FF2.ltrans7.ltrans.o
 .rodata.NameEfiReservedMemoryType
                0x000000000006fc80       0x12 /tmp/Shell.dll.2u1FF2.ltrans7.ltrans.o
 .rodata.NameEfiRuntimeServicesCode
                0x000000000006fc92       0x18 /tmp/Shell.dll.2u1FF2.ltrans7.ltrans.o
 .rodata.NameEfiRuntimeServicesCodeShort
                0x000000000006fcaa       0x10 /tmp/Shell.dll.2u1FF2.ltrans7.ltrans.o
 .rodata.NameEfiRuntimeServicesData
                0x000000000006fcba       0x18 /tmp/Shell.dll.2u1FF2.ltrans7.ltrans.o
 .rodata.NameEfiRuntimeServicesDataShort
                0x000000000006fcd2       0x10 /tmp/Shell.dll.2u1FF2.ltrans7.ltrans.o
 .rodata.NameEfiUnusableMemory
                0x000000000006fce2       0x1e /tmp/Shell.dll.2u1FF2.ltrans7.ltrans.o
 .rodata.NameEfiUnusableMemoryShort
                0x000000000006fd00       0x12 /tmp/Shell.dll.2u1FF2.ltrans7.ltrans.o
 *fill*         0x000000000006fd12        0x6 
 .rodata.ParamList.lto_priv.22
                0x000000000006fd18       0x30 /tmp/Shell.dll.2u1FF2.ltrans7.ltrans.o
 .rodata.ParamList.lto_priv.23
                0x000000000006fd48       0x20 /tmp/Shell.dll.2u1FF2.ltrans7.ltrans.o
 .rodata.ParamList.lto_priv.24
                0x000000000006fd68       0x20 /tmp/Shell.dll.2u1FF2.ltrans7.ltrans.o
 .rodata.ParamList.lto_priv.25
                0x000000000006fd88       0x80 /tmp/Shell.dll.2u1FF2.ltrans7.ltrans.o
 .rodata.ParamList.lto_priv.26
                0x000000000006fe08       0x50 /tmp/Shell.dll.2u1FF2.ltrans7.ltrans.o
 .rodata.ParamList.lto_priv.27
                0x000000000006fe58       0x40 /tmp/Shell.dll.2u1FF2.ltrans7.ltrans.o
 .rodata.PcieExplainList
                0x000000000006fe98      0x280 /tmp/Shell.dll.2u1FF2.ltrans7.ltrans.o
 .rodata.SlotPwrLmtScaleTable
                0x0000000000070118       0x20 /tmp/Shell.dll.2u1FF2.ltrans7.ltrans.o
 .rodata.mShellMmAccessTypeStr
                0x0000000000070138        0xa /tmp/Shell.dll.2u1FF2.ltrans7.ltrans.o
 *fill*         0x0000000000070142        0x6 
 .rodata.mShellMmMaxNumber
                0x0000000000070148       0x48 /tmp/Shell.dll.2u1FF2.ltrans7.ltrans.o
 .rodata.mShellMmRootBridgeIoWidth
                0x0000000000070190       0x24 /tmp/Shell.dll.2u1FF2.ltrans7.ltrans.o
 *fill*         0x00000000000701b4        0x4 
 .rodata.mUefiDevicePathLibDevPathFromTextTable
                0x00000000000701b8      0x570 /tmp/Shell.dll.2u1FF2.ltrans7.ltrans.o
 .rodata.GetAttrType.str2.2
                0x0000000000070728       0x3e /tmp/Shell.dll.2u1FF2.ltrans8.ltrans.o
                                         0x46 (size before relaxing)
 .rodata.CascadeProcessVariables.str2.2
                0x0000000000070766        0xa /tmp/Shell.dll.2u1FF2.ltrans8.ltrans.o
 .rodata.RedBlackTreeRecursiveCheck.str1.1
                0x0000000000070766      0x118 /tmp/Shell.dll.2u1FF2.ltrans8.ltrans.o
 .rodata.HBufferImageCreateLine.str1.1
                0x000000000007087e       0x78 /tmp/Shell.dll.2u1FF2.ltrans8.ltrans.o
 .rodata.ShellCommandRunDmpStore.str2.2
                0x000000000007087e       0x1c /tmp/Shell.dll.2u1FF2.ltrans8.ltrans.o
                                         0x56 (size before relaxing)
 .rodata.ShellCommandRunDmpStore.str1.1
                0x000000000007089a       0x58 /tmp/Shell.dll.2u1FF2.ltrans8.ltrans.o
                                         0x6a (size before relaxing)
 .rodata.ShellCommandRunDblk.str1.1
                0x00000000000708f2       0x54 /tmp/Shell.dll.2u1FF2.ltrans8.ltrans.o
                                         0x89 (size before relaxing)
 .rodata.ShellCommandRunDblk.str2.2
                0x0000000000070946       0x64 /tmp/Shell.dll.2u1FF2.ltrans8.ltrans.o
                                         0x6e (size before relaxing)
 .rodata.InputBarPrintInput.str2.2
                0x00000000000709aa        0xa /tmp/Shell.dll.2u1FF2.ltrans8.ltrans.o
 .rodata.SendBlock.str1.1
                0x00000000000709aa       0x8e /tmp/Shell.dll.2u1FF2.ltrans8.ltrans.o
 .rodata.CatVSPrint.str1.1
                0x0000000000070a38       0x6d /tmp/Shell.dll.2u1FF2.ltrans8.ltrans.o
 *fill*         0x0000000000070aa5        0x1 
 .rodata.InputBarRefresh.str2.2
                0x0000000000070aa6        0xe /tmp/Shell.dll.2u1FF2.ltrans8.ltrans.o
 .rodata.HBufferImageFreeLines.str1.1
                0x0000000000070ab4       0x5c /tmp/Shell.dll.2u1FF2.ltrans8.ltrans.o
 .rodata.CompareMem.str1.1
                0x0000000000070ab4       0x97 /tmp/Shell.dll.2u1FF2.ltrans8.ltrans.o
                                        0x118 (size before relaxing)
 .rodata.DivU64x32Remainder.str1.1
                0x0000000000070b4b       0x5a /tmp/Shell.dll.2u1FF2.ltrans8.ltrans.o
 .rodata.ReadUnaligned16.str1.1
                0x0000000000070ba5       0x48 /tmp/Shell.dll.2u1FF2.ltrans8.ltrans.o
                                         0x5f (size before relaxing)
 .rodata.MmioRead16.str1.1
                0x0000000000070bed       0x62 /tmp/Shell.dll.2u1FF2.ltrans8.ltrans.o
 .rodata.MmioRead32.str1.1
                0x0000000000070c4f       0x13 /tmp/Shell.dll.2u1FF2.ltrans8.ltrans.o
 .rodata.MmioRead64.str1.1
                0x0000000000070c62       0x13 /tmp/Shell.dll.2u1FF2.ltrans8.ltrans.o
 .rodata.Print.str1.1
                0x0000000000070c75       0x52 /tmp/Shell.dll.2u1FF2.ltrans8.ltrans.o
 .rodata.SmbiosPrintEPSInfo.str2.2
                0x0000000000070cc7        0x4 /tmp/Shell.dll.2u1FF2.ltrans8.ltrans.o
 *fill*         0x0000000000070cc7        0x1 
 .rodata.ShellCommandRunSmbiosView.str2.2
                0x0000000000070cc8      0x11a /tmp/Shell.dll.2u1FF2.ltrans8.ltrans.o
                                        0x234 (size before relaxing)
 .rodata.ShellCommandRunSmbiosView.str1.1
                0x0000000000070de2       0x70 /tmp/Shell.dll.2u1FF2.ltrans8.ltrans.o
 .rodata.DisplayMmMemorySize.str2.2
                0x0000000000070e52      0x11a /tmp/Shell.dll.2u1FF2.ltrans8.ltrans.o
                                          0xc (size before relaxing)
 .rodata.PrintBitsInfo.str2.2
                0x0000000000070e52        0x8 /tmp/Shell.dll.2u1FF2.ltrans8.ltrans.o
 .rodata.ShellCommandRunI2cDemo.str2.2
                0x0000000000070e5a      0x95c /tmp/Shell.dll.2u1FF2.ltrans8.ltrans.o
                                        0x970 (size before relaxing)
 .rodata.ShellCommandRunSpiFlash.str2.2
                0x00000000000717b6      0xe76 /tmp/Shell.dll.2u1FF2.ltrans8.ltrans.o
 .rodata.ShellCommandRunSpiFlash.str1.1
                0x000000000007262c       0x5f /tmp/Shell.dll.2u1FF2.ltrans8.ltrans.o
 *fill*         0x000000000007268b        0x1 
 .rodata.InputBarSetPrompt.str2.2
                0x000000000007268c        0x8 /tmp/Shell.dll.2u1FF2.ltrans8.ltrans.o
 .rodata.HBufferImageHandleInput.str2.2
                0x0000000000072694       0x20 /tmp/Shell.dll.2u1FF2.ltrans8.ltrans.o
 .rodata.HBufferImageHandleInput
                0x0000000000072694       0x26 /tmp/Shell.dll.2u1FF2.ltrans8.ltrans.o
 .rodata.HDiskImageRead.str2.2
                0x00000000000726ba       0x74 /tmp/Shell.dll.2u1FF2.ltrans8.ltrans.o
                                         0x90 (size before relaxing)
 .rodata.HDiskImageRead.str1.1
                0x000000000007272e       0x61 /tmp/Shell.dll.2u1FF2.ltrans8.ltrans.o
 *fill*         0x000000000007278f        0x1 
 .rodata.HFileImageRead.str2.2
                0x0000000000072790       0x5c /tmp/Shell.dll.2u1FF2.ltrans8.ltrans.o
 .rodata.HFileImageRead.str1.1
                0x00000000000727ec       0x61 /tmp/Shell.dll.2u1FF2.ltrans8.ltrans.o
 *fill*         0x000000000007284d        0x1 
 .rodata.HMemImageRead.str2.2
                0x000000000007284e       0x66 /tmp/Shell.dll.2u1FF2.ltrans8.ltrans.o
 .rodata.HMemImageRead.str1.1
                0x00000000000728b4       0x60 /tmp/Shell.dll.2u1FF2.ltrans8.ltrans.o
 .rodata.EfiGetNameGuidFromFwVolDevicePathNode.str1.1
                0x0000000000072914       0x68 /tmp/Shell.dll.2u1FF2.ltrans8.ltrans.o
 .rodata.PeCoffLoaderGetPdbPointer.str1.1
                0x000000000007297c       0x7a /tmp/Shell.dll.2u1FF2.ltrans8.ltrans.o
 .rodata.OrderedCollectionUninit.str1.1
                0x00000000000729f6       0x20 /tmp/Shell.dll.2u1FF2.ltrans8.ltrans.o
 .rodata.OrderedCollectionDelete.str1.1
                0x0000000000072a16       0xbe /tmp/Shell.dll.2u1FF2.ltrans8.ltrans.o
 .rodata.str2.2
                0x0000000000072ad4     0x19b2 /tmp/Shell.dll.2u1FF2.ltrans8.ltrans.o
                                       0x1aba (size before relaxing)
 *fill*         0x0000000000074486        0x2 
 .rodata.CSWTCH.173
                0x0000000000074488       0x28 /tmp/Shell.dll.2u1FF2.ltrans8.ltrans.o
 .rodata.ParamList.lto_priv.28
                0x00000000000744b0       0x70 /tmp/Shell.dll.2u1FF2.ltrans8.ltrans.o
 .rodata.ParamList.lto_priv.29
                0x0000000000074520       0x50 /tmp/Shell.dll.2u1FF2.ltrans8.ltrans.o
 .rodata.ParamList.lto_priv.30
                0x0000000000074570       0x50 /tmp/Shell.dll.2u1FF2.ltrans8.ltrans.o
 .rodata.ParamList.lto_priv.31
                0x00000000000745c0       0x90 /tmp/Shell.dll.2u1FF2.ltrans8.ltrans.o
 .rodata.ShellI2cDemoFileName
                0x0000000000074650       0x30 /tmp/Shell.dll.2u1FF2.ltrans8.ltrans.o
 .rodata.gShellSpiFlashFileName
                0x0000000000074680       0x1a /tmp/Shell.dll.2u1FF2.ltrans8.ltrans.o
 .rodata.BcfgMod.str2.2
                0x000000000007469a       0xda /tmp/Shell.dll.2u1FF2.ltrans9.ltrans.o
                                         0xec (size before relaxing)
 .rodata.BcfgMod.str1.1
                0x0000000000074774       0x71 /tmp/Shell.dll.2u1FF2.ltrans9.ltrans.o
                                         0xc9 (size before relaxing)
 .rodata.QuickSortWorker.constprop.0.str1.1
                0x00000000000747e5       0x1d /tmp/Shell.dll.2u1FF2.ltrans9.ltrans.o
                                         0x84 (size before relaxing)
 .rodata.InternalCommandLineParse.part.0.constprop.0.str1.1
                0x0000000000074802       0x63 /tmp/Shell.dll.2u1FF2.ltrans9.ltrans.o
 .rodata.InternalCommandLineParse.part.0.constprop.0.str2.2
                0x0000000000074802        0x6 /tmp/Shell.dll.2u1FF2.ltrans9.ltrans.o
                                         0x10 (size before relaxing)
 .rodata.InternalCommandLineParse.part.0.constprop.0
                0x0000000000074808        0x6 /tmp/Shell.dll.2u1FF2.ltrans9.ltrans.o
 .rodata.ManFileFindTitleSection.constprop.0.str2.2
                0x000000000007480e       0x14 /tmp/Shell.dll.2u1FF2.ltrans9.ltrans.o
 .rodata.IoRead8.constprop.0.str1.1
                0x0000000000074822       0x61 /tmp/Shell.dll.2u1FF2.ltrans9.ltrans.o
 .rodata.HBufferImageSave.constprop.0.str2.2
                0x0000000000074822       0xe2 /tmp/Shell.dll.2u1FF2.ltrans9.ltrans.o
 .rodata.HBufferImageSave.constprop.0.str1.1
                0x0000000000074822       0x76 /tmp/Shell.dll.2u1FF2.ltrans9.ltrans.o
 .rodata.SearchList.constprop.0.str1.1
                0x0000000000074822       0x19 /tmp/Shell.dll.2u1FF2.ltrans9.ltrans.o
                                         0x6c (size before relaxing)
 .rodata.SearchList.constprop.0.str2.2
                0x000000000007483b        0x4 /tmp/Shell.dll.2u1FF2.ltrans9.ltrans.o
 .rodata.CatSDumpHex.constprop.0.str1.1
                0x000000000007483b        0x1 /tmp/Shell.dll.2u1FF2.ltrans9.ltrans.o
 .rodata.CatSDumpHex.constprop.0.str2.2
                0x000000000007483b       0x2c /tmp/Shell.dll.2u1FF2.ltrans9.ltrans.o
 .rodata.ShellCommandLineParseEx.constprop.0.str1.1
                0x000000000007483b       0x23 /tmp/Shell.dll.2u1FF2.ltrans9.ltrans.o
 .rodata.ShellCommandRunBcfg.str2.2
                0x000000000007485e      0x132 /tmp/Shell.dll.2u1FF2.ltrans9.ltrans.o
                                        0x154 (size before relaxing)
 .rodata.ShellCommandRunBcfg.str1.1
                0x0000000000074990      0x183 /tmp/Shell.dll.2u1FF2.ltrans9.ltrans.o
 *fill*         0x0000000000074b13        0x1 
 .rodata.ShellCommandRunBcfg
                0x0000000000074b14       0x14 /tmp/Shell.dll.2u1FF2.ltrans9.ltrans.o
 .rodata.StrnCatGrowLeft.constprop.0.str1.1
                0x0000000000074b28       0x7b /tmp/Shell.dll.2u1FF2.ltrans9.ltrans.o
 .rodata.FileHandleFindFirstFile.constprop.0.str1.1
                0x0000000000074b28       0x39 /tmp/Shell.dll.2u1FF2.ltrans9.ltrans.o
 .rodata.CreateAndPopulateShellFileInfo.constprop.0.str1.1
                0x0000000000074b28       0xb1 /tmp/Shell.dll.2u1FF2.ltrans9.ltrans.o
 .rodata.OrderedCollectionInsert.constprop.0.str1.1
                0x0000000000074b28       0x1e /tmp/Shell.dll.2u1FF2.ltrans9.ltrans.o
                                         0x9a (size before relaxing)
 .rodata.GetBestLanguageForDriver.constprop.0.str2.2
                0x0000000000074b46       0x1a /tmp/Shell.dll.2u1FF2.ltrans9.ltrans.o
 .rodata.ProcessManFile.constprop.0.str1.1
                0x0000000000074b46       0x1e /tmp/Shell.dll.2u1FF2.ltrans9.ltrans.o
                                         0x83 (size before relaxing)
 .rodata.ProcessManFile.constprop.0.str2.2
                0x0000000000074b46       0x14 /tmp/Shell.dll.2u1FF2.ltrans9.ltrans.o
 .rodata.ShellLibConstructorWorker.constprop.0.str1.1
                0x0000000000074b5a       0x11 /tmp/Shell.dll.2u1FF2.ltrans9.ltrans.o
 *fill*         0x0000000000074b6b        0x1 
 .rodata.ShellCommandAddMapItemAndUpdatePath.constprop.0.str2.2
                0x0000000000074b6c       0x32 /tmp/Shell.dll.2u1FF2.ltrans9.ltrans.o
                                         0x40 (size before relaxing)
 .rodata.ShellCommandAddMapItemAndUpdatePath.constprop.0.str1.1
                0x0000000000074b9e       0x4b /tmp/Shell.dll.2u1FF2.ltrans9.ltrans.o
 .rodata.ShellFindFilePathEx.constprop.0.str1.1
                0x0000000000074be9       0x19 /tmp/Shell.dll.2u1FF2.ltrans9.ltrans.o
 .rodata.RunScriptFile.constprop.0.str1.1
                0x0000000000074be9       0x74 /tmp/Shell.dll.2u1FF2.ltrans9.ltrans.o
                                        0x12e (size before relaxing)
 *fill*         0x0000000000074c5d        0x1 
 .rodata.RunScriptFile.constprop.0.str2.2
                0x0000000000074c5e       0x96 /tmp/Shell.dll.2u1FF2.ltrans9.ltrans.o
                                         0xbc (size before relaxing)
 .rodata.RunScriptFile.constprop.0
                0x0000000000074cf4       0x14 /tmp/Shell.dll.2u1FF2.ltrans9.ltrans.o
 .rodata.BasePrintLibSPrintMarker.constprop.0.str1.1
                0x0000000000074d08      0x274 /tmp/Shell.dll.2u1FF2.ltrans9.ltrans.o
                                        0x290 (size before relaxing)
 .rodata.BasePrintLibSPrintMarker.constprop.0
                0x0000000000074f7c       0x5e /tmp/Shell.dll.2u1FF2.ltrans9.ltrans.o
 .rodata.ConsoleLoggerDisplayHistory.constprop.0.isra.0.str1.1
                0x0000000000074fda       0x68 /tmp/Shell.dll.2u1FF2.ltrans9.ltrans.o
 .rodata.StrHexToUint64S.constprop.0.isra.0.str1.1
                0x0000000000074fda       0xc6 /tmp/Shell.dll.2u1FF2.ltrans9.ltrans.o
 .rodata.StrToIpv6Address.constprop.0.isra.0.str1.1
                0x0000000000074fda       0x4a /tmp/Shell.dll.2u1FF2.ltrans9.ltrans.o
 .rodata.UnicodeStrToAsciiStrS.constprop.0.isra.0.str1.1
                0x0000000000075024       0x8c /tmp/Shell.dll.2u1FF2.ltrans9.ltrans.o
                                         0xc0 (size before relaxing)
 .rodata.str2.2
                0x00000000000750b0      0x474 /tmp/Shell.dll.2u1FF2.ltrans9.ltrans.o
 *fill*         0x0000000000075524        0x4 
 .rodata.ParamList
                0x0000000000075528       0x30 /tmp/Shell.dll.2u1FF2.ltrans9.ltrans.o
 .rodata.__FUNCTION__.18
                0x0000000000075558       0x11 /tmp/Shell.dll.2u1FF2.ltrans9.ltrans.o
 .rodata.__FUNCTION__.19
                0x0000000000075569       0x11 /tmp/Shell.dll.2u1FF2.ltrans9.ltrans.o
 .rodata.__FUNCTION__.20
                0x000000000007557a       0x10 /tmp/Shell.dll.2u1FF2.ltrans9.ltrans.o
 .rodata.__FUNCTION__.7
                0x000000000007558a       0x16 /tmp/Shell.dll.2u1FF2.ltrans9.ltrans.o
 .rodata.mBmLoadOptionName
                0x00000000000755a0       0x20 /tmp/Shell.dll.2u1FF2.ltrans9.ltrans.o
 .rodata.mErrorString
                0x00000000000755c0      0x2b5 /tmp/Shell.dll.2u1FF2.ltrans9.ltrans.o
 *fill*         0x0000000000075875        0x1 
 .rodata.mFileName
                0x0000000000075876       0x1c /tmp/Shell.dll.2u1FF2.ltrans9.ltrans.o
 .rodata.mWarningString
                0x0000000000075892       0x96 /tmp/Shell.dll.2u1FF2.ltrans9.ltrans.o
 .rodata.UnicodeValueToStringS.constprop.0.isra.0.str1.1
                0x0000000000075928       0x28 /tmp/Shell.dll.2u1FF2.ltrans10.ltrans.o
                                         0x78 (size before relaxing)
 .rodata.StatusBarRefresh.constprop.0.isra.0.str2.2
                0x0000000000075950       0x58 /tmp/Shell.dll.2u1FF2.ltrans10.ltrans.o
                                         0x62 (size before relaxing)
 .rodata.IoWrite64.constprop.0.isra.0.str1.1
                0x00000000000759a8       0x61 /tmp/Shell.dll.2u1FF2.ltrans10.ltrans.o
 .rodata.QueryTable.constprop.0.isra.0.str2.2
                0x00000000000759a8       0x22 /tmp/Shell.dll.2u1FF2.ltrans10.ltrans.o
                                         0x26 (size before relaxing)
 .rodata.MmioWrite64.isra.0.str1.1
                0x00000000000759ca       0x13 /tmp/Shell.dll.2u1FF2.ltrans10.ltrans.o
 .rodata.MmioWrite32.isra.0.str1.1
                0x00000000000759ca       0x13 /tmp/Shell.dll.2u1FF2.ltrans10.ltrans.o
 .rodata.MmioWrite16.isra.0.str1.1
                0x00000000000759ca       0x13 /tmp/Shell.dll.2u1FF2.ltrans10.ltrans.o
 .rodata.WriteUnaligned16.isra.0.str1.1
                0x00000000000759ca       0x5f /tmp/Shell.dll.2u1FF2.ltrans10.ltrans.o
 .rodata        0x00000000000759ca        0x4 /tmp/Shell.dll.2u1FF2.ltrans10.ltrans.o
 .rodata.SmbiosPrintStructure.part.0.isra.0.str1.1
                0x00000000000759ce      0xb54 /tmp/Shell.dll.2u1FF2.ltrans11.ltrans.o
                                        0xc0c (size before relaxing)
 .rodata.SmbiosPrintStructure.part.0.isra.0.str2.2
                0x0000000000076522     0x1436 /tmp/Shell.dll.2u1FF2.ltrans11.ltrans.o
                                       0x1484 (size before relaxing)
 .rodata.SmbiosPrintStructure.part.0.isra.0
                0x0000000000077958      0x332 /tmp/Shell.dll.2u1FF2.ltrans11.ltrans.o
 .rodata.str2.2
                0x0000000000077c8a     0x424a /tmp/Shell.dll.2u1FF2.ltrans11.ltrans.o
                                       0x4478 (size before relaxing)
 .rodata.HBufferImageRestoreMousePosition.isra.0.str2.2
                0x000000000007bed4        0xa /tmp/Shell.dll.2u1FF2.ltrans12.ltrans.o
 .rodata.HBufferImagePrintLine.isra.0.str2.2
                0x000000000007bed4       0x1c /tmp/Shell.dll.2u1FF2.ltrans12.ltrans.o
                                         0x3e (size before relaxing)
 .rodata.HBufferImageDeleteCharacterFromBuffer.isra.0.str1.1
                0x000000000007bef0       0x78 /tmp/Shell.dll.2u1FF2.ltrans12.ltrans.o
 .rodata.MenuBarDispatchFunctionKey.isra.0.str2.2
                0x000000000007bef0       0x20 /tmp/Shell.dll.2u1FF2.ltrans12.ltrans.o
 .rodata.MainTitleBarRefresh.isra.0.str2.2
                0x000000000007bef0       0x9a /tmp/Shell.dll.2u1FF2.ltrans12.ltrans.o
                                         0xcc (size before relaxing)
 .rodata.FileBufferSetFileName.isra.0.str2.2
                0x000000000007bf8a        0x6 /tmp/Shell.dll.2u1FF2.ltrans12.ltrans.o
 .rodata.ShellCmdDriverConfigurationProcessActionRequired.isra.0.str2.2
                0x000000000007bf8a       0x8c /tmp/Shell.dll.2u1FF2.ltrans12.ltrans.o
                                         0xb4 (size before relaxing)
 *fill*         0x000000000007c016        0x2 
 .rodata.ShellCmdDriverConfigurationProcessActionRequired.isra.0
                0x000000000007c018        0x4 /tmp/Shell.dll.2u1FF2.ltrans12.ltrans.o
 .rodata.InternalRemoveAliasFromList.isra.0.str1.1
                0x000000000007c01c       0xa9 /tmp/Shell.dll.2u1FF2.ltrans12.ltrans.o
 .rodata.InternalUpdateAliasOnList.isra.0.str1.1
                0x000000000007c01c       0x40 /tmp/Shell.dll.2u1FF2.ltrans12.ltrans.o
 .rodata.ShellCommandConsistMappingUnInitialize.isra.0.str1.1
                0x000000000007c05c       0x6d /tmp/Shell.dll.2u1FF2.ltrans12.ltrans.o
 .rodata.ShellCommandConsistMappingInitialize.isra.0.str1.1
                0x000000000007c05c       0x35 /tmp/Shell.dll.2u1FF2.ltrans12.ltrans.o
 .rodata.ShellCommandRegisterCommandName.isra.0.str2.2
                0x000000000007c05c        0x4 /tmp/Shell.dll.2u1FF2.ltrans12.ltrans.o
 .rodata.ShellCommandRegisterCommandName.isra.0.str1.1
                0x000000000007c05c       0x5a /tmp/Shell.dll.2u1FF2.ltrans12.ltrans.o
                                         0xb6 (size before relaxing)
 .rodata.CatIPv4Address.isra.0.str2.2
                0x000000000007c0b6       0x18 /tmp/Shell.dll.2u1FF2.ltrans12.ltrans.o
 .rodata.SetDevicePathNodeLength.isra.0.str1.1
                0x000000000007c0ce       0x47 /tmp/Shell.dll.2u1FF2.ltrans12.ltrans.o
                                         0xb4 (size before relaxing)
 .rodata.AsciiStrToUnicodeStrS.isra.0.str1.1
                0x000000000007c115       0x64 /tmp/Shell.dll.2u1FF2.ltrans12.ltrans.o
                                        0x174 (size before relaxing)
 .rodata.StrnCpyS.isra.0.str1.1
                0x000000000007c179       0x90 /tmp/Shell.dll.2u1FF2.ltrans12.ltrans.o
 .rodata.FileBufferPrintLine.isra.0.str2.2
                0x000000000007c179        0xa /tmp/Shell.dll.2u1FF2.ltrans12.ltrans.o
 .rodata.FileBufferRefresh.isra.0.str1.1
                0x000000000007c179       0x5f /tmp/Shell.dll.2u1FF2.ltrans12.ltrans.o
 .rodata.InitializeListHead.isra.0.str1.1
                0x000000000007c179       0x5e /tmp/Shell.dll.2u1FF2.ltrans12.ltrans.o
 .rodata.ShellSortFileList.part.0.isra.0.str1.1
                0x000000000007c179       0x78 /tmp/Shell.dll.2u1FF2.ltrans12.ltrans.o
 *fill*         0x000000000007c1f1        0x1 
 .rodata.PrintLsOutput.isra.0.str2.2
                0x000000000007c1f2       0x2c /tmp/Shell.dll.2u1FF2.ltrans12.ltrans.o
                                         0x64 (size before relaxing)
 .rodata.PrintLsOutput.isra.0.str1.1
                0x000000000007c21e       0x49 /tmp/Shell.dll.2u1FF2.ltrans12.ltrans.o
                                         0xce (size before relaxing)
 .rodata.InternalShellInitHandleList.isra.0.str1.1
                0x000000000007c267       0x5e /tmp/Shell.dll.2u1FF2.ltrans12.ltrans.o
 .rodata.SetMem.isra.0.str1.1
                0x000000000007c267       0x8c /tmp/Shell.dll.2u1FF2.ltrans12.ltrans.o
 .rodata.SetMem16.isra.0.str1.1
                0x000000000007c2f3       0xa9 /tmp/Shell.dll.2u1FF2.ltrans12.ltrans.o
                                         0xc0 (size before relaxing)
 .rodata.UpdateDisplayFromHistory.isra.0.str1.1
                0x000000000007c39c       0x7a /tmp/Shell.dll.2u1FF2.ltrans12.ltrans.o
 .rodata.SetEnvironmentVariables.part.0.isra.0.str2.2
                0x000000000007c39c        0x4 /tmp/Shell.dll.2u1FF2.ltrans12.ltrans.o
 .rodata.SetEnvironmentVariables.part.0.isra.0.str1.1
                0x000000000007c39c       0x2c /tmp/Shell.dll.2u1FF2.ltrans12.ltrans.o
                                         0x76 (size before relaxing)
 .rodata.SetLastError.isra.0.str2.2
                0x000000000007c3c8       0x3e /tmp/Shell.dll.2u1FF2.ltrans12.ltrans.o
 .rodata.TrimSpaces.isra.0.str1.1
                0x000000000007c3c8       0x17 /tmp/Shell.dll.2u1FF2.ltrans12.ltrans.o
                                         0x5b (size before relaxing)
 .rodata.__FUNCTION__.26
                0x000000000007c3df        0x9 /tmp/Shell.dll.2u1FF2.ltrans12.ltrans.o
 .rodata.__FUNCTION__.27
                0x000000000007c3e8        0x8 /tmp/Shell.dll.2u1FF2.ltrans12.ltrans.o
 .rodata.__FUNCTION__.5
                0x000000000007c3f0       0x16 /tmp/Shell.dll.2u1FF2.ltrans12.ltrans.o
 *(.got .got.*)
 *:AutoGen.obj(.data.g*Guid)

.iplt           0x000000000007c408        0x0
 .iplt          0x000000000007c408        0x0 /tmp/Shell.dll.2u1FF2.ltrans0.ltrans.o

.data           0x000000000007d000    0x60ac8
 *(.data .data.* .gnu.linkonce.d.*)
 .data.FileInterfaceNulFile
                0x000000000007d000       0x78 /tmp/Shell.dll.2u1FF2.ltrans0.ltrans.o
 .data.FileInterfaceStdErr
                0x000000000007d078       0x78 /tmp/Shell.dll.2u1FF2.ltrans0.ltrans.o
 .data.FileInterfaceStdIn
                0x000000000007d0f0       0x78 /tmp/Shell.dll.2u1FF2.ltrans0.ltrans.o
 .data.FileInterfaceStdOut
                0x000000000007d168       0x78 /tmp/Shell.dll.2u1FF2.ltrans0.ltrans.o
 .data.ShellInfoObject
                0x000000000007d1e0      0x140 /tmp/Shell.dll.2u1FF2.ltrans0.ltrans.o
                0x000000000007d1e0                ShellInfoObject
 .data.ShellStrings
                0x000000000007d320      0x5b7 /tmp/Shell.dll.2u1FF2.ltrans0.ltrans.o
 .data.UefiShellDebug1CommandsLibStrings
                0x000000000007d8d7    0x1d3c3 /tmp/Shell.dll.2u1FF2.ltrans0.ltrans.o
 .data.UefiShellDriver1CommandsLibStrings
                0x000000000009ac9a     0xcaf0 /tmp/Shell.dll.2u1FF2.ltrans0.ltrans.o
 .data.UefiShellI2cDemoLibStrings
                0x00000000000a778a      0x8b3 /tmp/Shell.dll.2u1FF2.ltrans0.ltrans.o
 .data.UefiShellLevel1CommandsLibStrings
                0x00000000000a803d     0x8663 /tmp/Shell.dll.2u1FF2.ltrans0.ltrans.o
 .data.UefiShellLevel2CommandsLibStrings
                0x00000000000b06a0    0x138f5 /tmp/Shell.dll.2u1FF2.ltrans0.ltrans.o
 .data.UefiShellLevel3CommandsLibStrings
                0x00000000000c3f95     0x83a9 /tmp/Shell.dll.2u1FF2.ltrans0.ltrans.o
 .data.UefiShellSpiFlashLibStrings
                0x00000000000cc33e      0xb0f /tmp/Shell.dll.2u1FF2.ltrans0.ltrans.o
 *fill*         0x00000000000cce4d        0x3 
 .data.gEfiBlockIoProtocolGuid
                0x00000000000cce50       0x10 /tmp/Shell.dll.2u1FF2.ltrans0.ltrans.o
                0x00000000000cce50                gEfiBlockIoProtocolGuid
 .data.gEfiCallerIdGuid
                0x00000000000cce60       0x10 /tmp/Shell.dll.2u1FF2.ltrans0.ltrans.o
 .data.gEfiComponentName2ProtocolGuid
                0x00000000000cce70       0x10 /tmp/Shell.dll.2u1FF2.ltrans0.ltrans.o
                0x00000000000cce70                gEfiComponentName2ProtocolGuid
 .data.gEfiComponentNameProtocolGuid
                0x00000000000cce80       0x10 /tmp/Shell.dll.2u1FF2.ltrans0.ltrans.o
                0x00000000000cce80                gEfiComponentNameProtocolGuid
 .data.gEfiDevicePathProtocolGuid
                0x00000000000cce90       0x10 /tmp/Shell.dll.2u1FF2.ltrans0.ltrans.o
                0x00000000000cce90                gEfiDevicePathProtocolGuid
 .data.gEfiDxeServicesTableGuid
                0x00000000000ccea0       0x10 /tmp/Shell.dll.2u1FF2.ltrans0.ltrans.o
 .data.gEfiHiiConfigRoutingProtocolGuid
                0x00000000000cceb0       0x10 /tmp/Shell.dll.2u1FF2.ltrans0.ltrans.o
                0x00000000000cceb0                gEfiHiiConfigRoutingProtocolGuid
 .data.gEfiHiiDatabaseProtocolGuid
                0x00000000000ccec0       0x10 /tmp/Shell.dll.2u1FF2.ltrans0.ltrans.o
                0x00000000000ccec0                gEfiHiiDatabaseProtocolGuid
 .data.gEfiHiiFontProtocolGuid
                0x00000000000cced0       0x10 /tmp/Shell.dll.2u1FF2.ltrans0.ltrans.o
                0x00000000000cced0                gEfiHiiFontProtocolGuid
 .data.gEfiHiiImageProtocolGuid
                0x00000000000ccee0       0x10 /tmp/Shell.dll.2u1FF2.ltrans0.ltrans.o
                0x00000000000ccee0                gEfiHiiImageProtocolGuid
 .data.gEfiHiiStringProtocolGuid
                0x00000000000ccef0       0x10 /tmp/Shell.dll.2u1FF2.ltrans0.ltrans.o
                0x00000000000ccef0                gEfiHiiStringProtocolGuid
 .data.gEfiHobListGuid
                0x00000000000ccf00       0x10 /tmp/Shell.dll.2u1FF2.ltrans0.ltrans.o
 .data.gEfiLoadedImageProtocolGuid
                0x00000000000ccf10       0x10 /tmp/Shell.dll.2u1FF2.ltrans0.ltrans.o
                0x00000000000ccf10                gEfiLoadedImageProtocolGuid
 .data.gEfiShellParametersProtocolGuid
                0x00000000000ccf20       0x10 /tmp/Shell.dll.2u1FF2.ltrans0.ltrans.o
                0x00000000000ccf20                gEfiShellParametersProtocolGuid
 .data.gEfiShellProtocolGuid
                0x00000000000ccf30       0x10 /tmp/Shell.dll.2u1FF2.ltrans0.ltrans.o
                0x00000000000ccf30                gEfiShellProtocolGuid
 .data.gEfiSimpleFileSystemProtocolGuid
                0x00000000000ccf40       0x10 /tmp/Shell.dll.2u1FF2.ltrans0.ltrans.o
                0x00000000000ccf40                gEfiSimpleFileSystemProtocolGuid
 .data.gEfiSimpleTextInputExProtocolGuid
                0x00000000000ccf50       0x10 /tmp/Shell.dll.2u1FF2.ltrans0.ltrans.o
                0x00000000000ccf50                gEfiSimpleTextInputExProtocolGuid
 .data.gEfiSimpleTextOutProtocolGuid
                0x00000000000ccf60       0x10 /tmp/Shell.dll.2u1FF2.ltrans0.ltrans.o
                0x00000000000ccf60                gEfiSimpleTextOutProtocolGuid
 .data.gEfiUnicodeCollation2ProtocolGuid
                0x00000000000ccf70       0x10 /tmp/Shell.dll.2u1FF2.ltrans0.ltrans.o
                0x00000000000ccf70                gEfiUnicodeCollation2ProtocolGuid
 .data.gEfiUnicodeCollationProtocolGuid
                0x00000000000ccf80       0x10 /tmp/Shell.dll.2u1FF2.ltrans0.ltrans.o
                0x00000000000ccf80                gEfiUnicodeCollationProtocolGuid
 .data.gShellDebug1HiiGuid
                0x00000000000ccf90       0x10 /tmp/Shell.dll.2u1FF2.ltrans0.ltrans.o
 .data.gShellDriver1HiiGuid
                0x00000000000ccfa0       0x10 /tmp/Shell.dll.2u1FF2.ltrans0.ltrans.o
 .data.gShellI2cDemoHiiGuid
                0x00000000000ccfb0       0x10 /tmp/Shell.dll.2u1FF2.ltrans0.ltrans.o
 .data.gShellLevel1HiiGuid
                0x00000000000ccfc0       0x10 /tmp/Shell.dll.2u1FF2.ltrans0.ltrans.o
 .data.gShellLevel2HiiGuid
                0x00000000000ccfd0       0x10 /tmp/Shell.dll.2u1FF2.ltrans0.ltrans.o
 .data.gShellLevel3HiiGuid
                0x00000000000ccfe0       0x10 /tmp/Shell.dll.2u1FF2.ltrans0.ltrans.o
 .data.gShellSfHiiGuid
                0x00000000000ccff0       0x10 /tmp/Shell.dll.2u1FF2.ltrans0.ltrans.o
 .data.gShellVariableGuid
                0x00000000000cd000       0x10 /tmp/Shell.dll.2u1FF2.ltrans0.ltrans.o
                0x00000000000cd000                gShellVariableGuid
 .data.mShellProtocol
                0x00000000000cd010      0x168 /tmp/Shell.dll.2u1FF2.ltrans0.ltrans.o
 .data.gEfiDebugPortProtocolGuid
                0x00000000000cd178       0x10 /tmp/Shell.dll.2u1FF2.ltrans1.ltrans.o
                0x00000000000cd178                gEfiDebugPortProtocolGuid
 .data.gEfiFileInfoGuid
                0x00000000000cd188       0x10 /tmp/Shell.dll.2u1FF2.ltrans1.ltrans.o
                0x00000000000cd188                gEfiFileInfoGuid
 .data.gEfiPcAnsiGuid
                0x00000000000cd198       0x10 /tmp/Shell.dll.2u1FF2.ltrans1.ltrans.o
                0x00000000000cd198                gEfiPcAnsiGuid
 .data.gEfiPersistentVirtualCdGuid
                0x00000000000cd1a8       0x10 /tmp/Shell.dll.2u1FF2.ltrans1.ltrans.o
                0x00000000000cd1a8                gEfiPersistentVirtualCdGuid
 .data.gEfiPersistentVirtualDiskGuid
                0x00000000000cd1b8       0x10 /tmp/Shell.dll.2u1FF2.ltrans1.ltrans.o
                0x00000000000cd1b8                gEfiPersistentVirtualDiskGuid
 .data.gEfiSasDevicePathGuid
                0x00000000000cd1c8       0x10 /tmp/Shell.dll.2u1FF2.ltrans1.ltrans.o
                0x00000000000cd1c8                gEfiSasDevicePathGuid
 .data.gEfiSimpleTextInProtocolGuid
                0x00000000000cd1d8       0x10 /tmp/Shell.dll.2u1FF2.ltrans1.ltrans.o
                0x00000000000cd1d8                gEfiSimpleTextInProtocolGuid
 .data.gEfiUartDevicePathGuid
                0x00000000000cd1e8       0x10 /tmp/Shell.dll.2u1FF2.ltrans1.ltrans.o
 .data.gEfiVT100Guid
                0x00000000000cd1f8       0x10 /tmp/Shell.dll.2u1FF2.ltrans1.ltrans.o
                0x00000000000cd1f8                gEfiVT100Guid
 .data.gEfiVT100PlusGuid
                0x00000000000cd208       0x10 /tmp/Shell.dll.2u1FF2.ltrans1.ltrans.o
                0x00000000000cd208                gEfiVT100PlusGuid
 .data.gEfiVTUTF8Guid
                0x00000000000cd218       0x10 /tmp/Shell.dll.2u1FF2.ltrans1.ltrans.o
                0x00000000000cd218                gEfiVTUTF8Guid
 .data.gEfiVirtualCdGuid
                0x00000000000cd228       0x10 /tmp/Shell.dll.2u1FF2.ltrans1.ltrans.o
                0x00000000000cd228                gEfiVirtualCdGuid
 .data.gEfiVirtualDiskGuid
                0x00000000000cd238       0x10 /tmp/Shell.dll.2u1FF2.ltrans1.ltrans.o
                0x00000000000cd238                gEfiVirtualDiskGuid
 .data.gShellAliasGuid
                0x00000000000cd248       0x10 /tmp/Shell.dll.2u1FF2.ltrans1.ltrans.o
 .data.UefiHandleParsingLibStrings
                0x00000000000cd258     0x4601 /tmp/Shell.dll.2u1FF2.ltrans2.ltrans.o
 *fill*         0x00000000000d1859        0x3 
 .data.gEfiAbsolutePointerProtocolGuid
                0x00000000000d185c       0x10 /tmp/Shell.dll.2u1FF2.ltrans2.ltrans.o
 .data.gEfiAcpiSdtProtocolGuid
                0x00000000000d186c       0x10 /tmp/Shell.dll.2u1FF2.ltrans2.ltrans.o
 .data.gEfiAcpiTableProtocolGuid
                0x00000000000d187c       0x10 /tmp/Shell.dll.2u1FF2.ltrans2.ltrans.o
 .data.gEfiAdapterInfoMediaStateGuid
                0x00000000000d188c       0x10 /tmp/Shell.dll.2u1FF2.ltrans2.ltrans.o
 .data.gEfiAdapterInfoNetworkBootGuid
                0x00000000000d189c       0x10 /tmp/Shell.dll.2u1FF2.ltrans2.ltrans.o
 .data.gEfiAdapterInfoSanMacAddressGuid
                0x00000000000d18ac       0x10 /tmp/Shell.dll.2u1FF2.ltrans2.ltrans.o
 .data.gEfiAdapterInfoUndiIpv6SupportGuid
                0x00000000000d18bc       0x10 /tmp/Shell.dll.2u1FF2.ltrans2.ltrans.o
 .data.gEfiAdapterInformationProtocolGuid
                0x00000000000d18cc       0x10 /tmp/Shell.dll.2u1FF2.ltrans2.ltrans.o
 .data.gEfiArpProtocolGuid
                0x00000000000d18dc       0x10 /tmp/Shell.dll.2u1FF2.ltrans2.ltrans.o
 .data.gEfiArpServiceBindingProtocolGuid
                0x00000000000d18ec       0x10 /tmp/Shell.dll.2u1FF2.ltrans2.ltrans.o
 .data.gEfiAtaPassThruProtocolGuid
                0x00000000000d18fc       0x10 /tmp/Shell.dll.2u1FF2.ltrans2.ltrans.o
 .data.gEfiAuthenticationInfoProtocolGuid
                0x00000000000d190c       0x10 /tmp/Shell.dll.2u1FF2.ltrans2.ltrans.o
 .data.gEfiBdsArchProtocolGuid
                0x00000000000d191c       0x10 /tmp/Shell.dll.2u1FF2.ltrans2.ltrans.o
 .data.gEfiBisProtocolGuid
                0x00000000000d192c       0x10 /tmp/Shell.dll.2u1FF2.ltrans2.ltrans.o
 .data.gEfiBlockIo2ProtocolGuid
                0x00000000000d193c       0x10 /tmp/Shell.dll.2u1FF2.ltrans2.ltrans.o
 .data.gEfiBlockIoCryptoProtocolGuid
                0x00000000000d194c       0x10 /tmp/Shell.dll.2u1FF2.ltrans2.ltrans.o
 .data.gEfiBluetoothAttributeProtocolGuid
                0x00000000000d195c       0x10 /tmp/Shell.dll.2u1FF2.ltrans2.ltrans.o
 .data.gEfiBluetoothAttributeServiceBindingProtocolGuid
                0x00000000000d196c       0x10 /tmp/Shell.dll.2u1FF2.ltrans2.ltrans.o
 .data.gEfiBluetoothConfigProtocolGuid
                0x00000000000d197c       0x10 /tmp/Shell.dll.2u1FF2.ltrans2.ltrans.o
 .data.gEfiBluetoothHcProtocolGuid
                0x00000000000d198c       0x10 /tmp/Shell.dll.2u1FF2.ltrans2.ltrans.o
 .data.gEfiBluetoothIoProtocolGuid
                0x00000000000d199c       0x10 /tmp/Shell.dll.2u1FF2.ltrans2.ltrans.o
 .data.gEfiBluetoothIoServiceBindingProtocolGuid
                0x00000000000d19ac       0x10 /tmp/Shell.dll.2u1FF2.ltrans2.ltrans.o
 .data.gEfiBluetoothLeConfigProtocolGuid
                0x00000000000d19bc       0x10 /tmp/Shell.dll.2u1FF2.ltrans2.ltrans.o
 .data.gEfiBootManagerPolicyProtocolGuid
                0x00000000000d19cc       0x10 /tmp/Shell.dll.2u1FF2.ltrans2.ltrans.o
 .data.gEfiBusSpecificDriverOverrideProtocolGuid
                0x00000000000d19dc       0x10 /tmp/Shell.dll.2u1FF2.ltrans2.ltrans.o
 .data.gEfiCapsuleArchProtocolGuid
                0x00000000000d19ec       0x10 /tmp/Shell.dll.2u1FF2.ltrans2.ltrans.o
 .data.gEfiConfigKeywordHandlerProtocolGuid
                0x00000000000d19fc       0x10 /tmp/Shell.dll.2u1FF2.ltrans2.ltrans.o
 .data.gEfiConsoleInDeviceGuid
                0x00000000000d1a0c       0x10 /tmp/Shell.dll.2u1FF2.ltrans2.ltrans.o
 .data.gEfiConsoleOutDeviceGuid
                0x00000000000d1a1c       0x10 /tmp/Shell.dll.2u1FF2.ltrans2.ltrans.o
 .data.gEfiCpuArchProtocolGuid
                0x00000000000d1a2c       0x10 /tmp/Shell.dll.2u1FF2.ltrans2.ltrans.o
 .data.gEfiCpuIo2ProtocolGuid
                0x00000000000d1a3c       0x10 /tmp/Shell.dll.2u1FF2.ltrans2.ltrans.o
                0x00000000000d1a3c                gEfiCpuIo2ProtocolGuid
 .data.gEfiDebugSupportProtocolGuid
                0x00000000000d1a4c       0x10 /tmp/Shell.dll.2u1FF2.ltrans2.ltrans.o
 .data.gEfiDecompressProtocolGuid
                0x00000000000d1a5c       0x10 /tmp/Shell.dll.2u1FF2.ltrans2.ltrans.o
                0x00000000000d1a5c                gEfiDecompressProtocolGuid
 .data.gEfiDeferredImageLoadProtocolGuid
                0x00000000000d1a6c       0x10 /tmp/Shell.dll.2u1FF2.ltrans2.ltrans.o
 .data.gEfiDeviceIoProtocolGuid
                0x00000000000d1a7c       0x10 /tmp/Shell.dll.2u1FF2.ltrans2.ltrans.o
 .data.gEfiDevicePathFromTextProtocolGuid
                0x00000000000d1a8c       0x10 /tmp/Shell.dll.2u1FF2.ltrans2.ltrans.o
 .data.gEfiDevicePathToTextProtocolGuid
                0x00000000000d1a9c       0x10 /tmp/Shell.dll.2u1FF2.ltrans2.ltrans.o
 .data.gEfiDevicePathUtilitiesProtocolGuid
                0x00000000000d1aac       0x10 /tmp/Shell.dll.2u1FF2.ltrans2.ltrans.o
 .data.gEfiDhcp4ProtocolGuid
                0x00000000000d1abc       0x10 /tmp/Shell.dll.2u1FF2.ltrans2.ltrans.o
 .data.gEfiDhcp4ServiceBindingProtocolGuid
                0x00000000000d1acc       0x10 /tmp/Shell.dll.2u1FF2.ltrans2.ltrans.o
 .data.gEfiDhcp6ProtocolGuid
                0x00000000000d1adc       0x10 /tmp/Shell.dll.2u1FF2.ltrans2.ltrans.o
 .data.gEfiDhcp6ServiceBindingProtocolGuid
                0x00000000000d1aec       0x10 /tmp/Shell.dll.2u1FF2.ltrans2.ltrans.o
 .data.gEfiDiskInfoProtocolGuid
                0x00000000000d1afc       0x10 /tmp/Shell.dll.2u1FF2.ltrans2.ltrans.o
 .data.gEfiDiskIo2ProtocolGuid
                0x00000000000d1b0c       0x10 /tmp/Shell.dll.2u1FF2.ltrans2.ltrans.o
 .data.gEfiDiskIoProtocolGuid
                0x00000000000d1b1c       0x10 /tmp/Shell.dll.2u1FF2.ltrans2.ltrans.o
 .data.gEfiDns4ProtocolGuid
                0x00000000000d1b2c       0x10 /tmp/Shell.dll.2u1FF2.ltrans2.ltrans.o
 .data.gEfiDns4ServiceBindingProtocolGuid
                0x00000000000d1b3c       0x10 /tmp/Shell.dll.2u1FF2.ltrans2.ltrans.o
 .data.gEfiDns6ProtocolGuid
                0x00000000000d1b4c       0x10 /tmp/Shell.dll.2u1FF2.ltrans2.ltrans.o
 .data.gEfiDns6ServiceBindingProtocolGuid
                0x00000000000d1b5c       0x10 /tmp/Shell.dll.2u1FF2.ltrans2.ltrans.o
 .data.gEfiDriverBindingProtocolGuid
                0x00000000000d1b6c       0x10 /tmp/Shell.dll.2u1FF2.ltrans2.ltrans.o
                0x00000000000d1b6c                gEfiDriverBindingProtocolGuid
 .data.gEfiDriverConfiguration2ProtocolGuid
                0x00000000000d1b7c       0x10 /tmp/Shell.dll.2u1FF2.ltrans2.ltrans.o
                0x00000000000d1b7c                gEfiDriverConfiguration2ProtocolGuid
 .data.gEfiDriverConfigurationProtocolGuid
                0x00000000000d1b8c       0x10 /tmp/Shell.dll.2u1FF2.ltrans2.ltrans.o
                0x00000000000d1b8c                gEfiDriverConfigurationProtocolGuid
 .data.gEfiDriverDiagnostics2ProtocolGuid
                0x00000000000d1b9c       0x10 /tmp/Shell.dll.2u1FF2.ltrans2.ltrans.o
                0x00000000000d1b9c                gEfiDriverDiagnostics2ProtocolGuid
 .data.gEfiDriverDiagnosticsProtocolGuid
                0x00000000000d1bac       0x10 /tmp/Shell.dll.2u1FF2.ltrans2.ltrans.o
                0x00000000000d1bac                gEfiDriverDiagnosticsProtocolGuid
 .data.gEfiDriverFamilyOverrideProtocolGuid
                0x00000000000d1bbc       0x10 /tmp/Shell.dll.2u1FF2.ltrans2.ltrans.o
 .data.gEfiDriverHealthProtocolGuid
                0x00000000000d1bcc       0x10 /tmp/Shell.dll.2u1FF2.ltrans2.ltrans.o
 .data.gEfiDriverSupportedEfiVersionProtocolGuid
                0x00000000000d1bdc       0x10 /tmp/Shell.dll.2u1FF2.ltrans2.ltrans.o
 .data.gEfiDxeMmReadyToLockProtocolGuid
                0x00000000000d1bec       0x10 /tmp/Shell.dll.2u1FF2.ltrans2.ltrans.o
 .data.gEfiDxeSmmReadyToLockProtocolGuid
                0x00000000000d1bfc       0x10 /tmp/Shell.dll.2u1FF2.ltrans2.ltrans.o
 .data.gEfiEapConfigurationProtocolGuid
                0x00000000000d1c0c       0x10 /tmp/Shell.dll.2u1FF2.ltrans2.ltrans.o
 .data.gEfiEapManagement2ProtocolGuid
                0x00000000000d1c1c       0x10 /tmp/Shell.dll.2u1FF2.ltrans2.ltrans.o
 .data.gEfiEapManagementProtocolGuid
                0x00000000000d1c2c       0x10 /tmp/Shell.dll.2u1FF2.ltrans2.ltrans.o
 .data.gEfiEapProtocolGuid
                0x00000000000d1c3c       0x10 /tmp/Shell.dll.2u1FF2.ltrans2.ltrans.o
 .data.gEfiEbcProtocolGuid
                0x00000000000d1c4c       0x10 /tmp/Shell.dll.2u1FF2.ltrans2.ltrans.o
 .data.gEfiEdidActiveProtocolGuid
                0x00000000000d1c5c       0x10 /tmp/Shell.dll.2u1FF2.ltrans2.ltrans.o
 .data.gEfiEdidDiscoveredProtocolGuid
                0x00000000000d1c6c       0x10 /tmp/Shell.dll.2u1FF2.ltrans2.ltrans.o
 .data.gEfiEdidOverrideProtocolGuid
                0x00000000000d1c7c       0x10 /tmp/Shell.dll.2u1FF2.ltrans2.ltrans.o
 .data.gEfiEraseBlockProtocolGuid
                0x00000000000d1c8c       0x10 /tmp/Shell.dll.2u1FF2.ltrans2.ltrans.o
 .data.gEfiExtScsiPassThruProtocolGuid
                0x00000000000d1c9c       0x10 /tmp/Shell.dll.2u1FF2.ltrans2.ltrans.o
 .data.gEfiFileSystemInfoGuid
                0x00000000000d1cac       0x10 /tmp/Shell.dll.2u1FF2.ltrans2.ltrans.o
                0x00000000000d1cac                gEfiFileSystemInfoGuid
 .data.gEfiFirmwareManagementProtocolGuid
                0x00000000000d1cbc       0x10 /tmp/Shell.dll.2u1FF2.ltrans2.ltrans.o
 .data.gEfiFirmwareVolume2ProtocolGuid
                0x00000000000d1ccc       0x10 /tmp/Shell.dll.2u1FF2.ltrans2.ltrans.o
                0x00000000000d1ccc                gEfiFirmwareVolume2ProtocolGuid
 .data.gEfiFirmwareVolumeBlock2ProtocolGuid
                0x00000000000d1cdc       0x10 /tmp/Shell.dll.2u1FF2.ltrans2.ltrans.o
 .data.gEfiFirmwareVolumeBlockProtocolGuid
                0x00000000000d1cec       0x10 /tmp/Shell.dll.2u1FF2.ltrans2.ltrans.o
 .data.gEfiFormBrowser2ProtocolGuid
                0x00000000000d1cfc       0x10 /tmp/Shell.dll.2u1FF2.ltrans2.ltrans.o
 .data.gEfiFtp4ProtocolGuid
                0x00000000000d1d0c       0x10 /tmp/Shell.dll.2u1FF2.ltrans2.ltrans.o
 .data.gEfiFtp4ServiceBindingProtocolGuid
                0x00000000000d1d1c       0x10 /tmp/Shell.dll.2u1FF2.ltrans2.ltrans.o
 .data.gEfiGetPcdInfoProtocolGuid
                0x00000000000d1d2c       0x10 /tmp/Shell.dll.2u1FF2.ltrans2.ltrans.o
 .data.gEfiGlobalVariableGuid
                0x00000000000d1d3c       0x10 /tmp/Shell.dll.2u1FF2.ltrans2.ltrans.o
                0x00000000000d1d3c                gEfiGlobalVariableGuid
 .data.gEfiGraphicsOutputProtocolGuid
                0x00000000000d1d4c       0x10 /tmp/Shell.dll.2u1FF2.ltrans2.ltrans.o
 .data.gEfiHash2ProtocolGuid
                0x00000000000d1d5c       0x10 /tmp/Shell.dll.2u1FF2.ltrans2.ltrans.o
 .data.gEfiHash2ServiceBindingProtocolGuid
                0x00000000000d1d6c       0x10 /tmp/Shell.dll.2u1FF2.ltrans2.ltrans.o
 .data.gEfiHashProtocolGuid
                0x00000000000d1d7c       0x10 /tmp/Shell.dll.2u1FF2.ltrans2.ltrans.o
 .data.gEfiHashServiceBindingProtocolGuid
                0x00000000000d1d8c       0x10 /tmp/Shell.dll.2u1FF2.ltrans2.ltrans.o
 .data.gEfiHiiConfigAccessProtocolGuid
                0x00000000000d1d9c       0x10 /tmp/Shell.dll.2u1FF2.ltrans2.ltrans.o
                0x00000000000d1d9c                gEfiHiiConfigAccessProtocolGuid
 .data.gEfiHiiImageDecoderProtocolGuid
                0x00000000000d1dac       0x10 /tmp/Shell.dll.2u1FF2.ltrans2.ltrans.o
 .data.gEfiHiiImageExProtocolGuid
                0x00000000000d1dbc       0x10 /tmp/Shell.dll.2u1FF2.ltrans2.ltrans.o
 .data.gEfiHiiPackageListProtocolGuid
                0x00000000000d1dcc       0x10 /tmp/Shell.dll.2u1FF2.ltrans2.ltrans.o
                0x00000000000d1dcc                gEfiHiiPackageListProtocolGuid
 .data.gEfiHiiPopupProtocolGuid
                0x00000000000d1ddc       0x10 /tmp/Shell.dll.2u1FF2.ltrans2.ltrans.o
 .data.gEfiHttpBootCallbackProtocolGuid
                0x00000000000d1dec       0x10 /tmp/Shell.dll.2u1FF2.ltrans2.ltrans.o
 .data.gEfiHttpProtocolGuid
                0x00000000000d1dfc       0x10 /tmp/Shell.dll.2u1FF2.ltrans2.ltrans.o
 .data.gEfiHttpServiceBindingProtocolGuid
                0x00000000000d1e0c       0x10 /tmp/Shell.dll.2u1FF2.ltrans2.ltrans.o
 .data.gEfiHttpUtilitiesProtocolGuid
                0x00000000000d1e1c       0x10 /tmp/Shell.dll.2u1FF2.ltrans2.ltrans.o
 .data.gEfiI2cBusConfigurationManagementProtocolGuid
                0x00000000000d1e2c       0x10 /tmp/Shell.dll.2u1FF2.ltrans2.ltrans.o
 .data.gEfiI2cEnumerateProtocolGuid
                0x00000000000d1e3c       0x10 /tmp/Shell.dll.2u1FF2.ltrans2.ltrans.o
 .data.gEfiI2cHostProtocolGuid
                0x00000000000d1e4c       0x10 /tmp/Shell.dll.2u1FF2.ltrans2.ltrans.o
 .data.gEfiI2cIoProtocolGuid
                0x00000000000d1e5c       0x10 /tmp/Shell.dll.2u1FF2.ltrans2.ltrans.o
 .data.gEfiI2cMasterProtocolGuid
                0x00000000000d1e6c       0x10 /tmp/Shell.dll.2u1FF2.ltrans2.ltrans.o
                0x00000000000d1e6c                gEfiI2cMasterProtocolGuid
 .data.gEfiIScsiInitiatorNameProtocolGuid
                0x00000000000d1e7c       0x10 /tmp/Shell.dll.2u1FF2.ltrans2.ltrans.o
 .data.gEfiIdeControllerInitProtocolGuid
                0x00000000000d1e8c       0x10 /tmp/Shell.dll.2u1FF2.ltrans2.ltrans.o
 .data.gEfiIncompatiblePciDeviceSupportProtocolGuid
                0x00000000000d1e9c       0x10 /tmp/Shell.dll.2u1FF2.ltrans2.ltrans.o
 .data.gEfiIp4Config2ProtocolGuid
                0x00000000000d1eac       0x10 /tmp/Shell.dll.2u1FF2.ltrans2.ltrans.o
 .data.gEfiIp4ConfigProtocolGuid
                0x00000000000d1ebc       0x10 /tmp/Shell.dll.2u1FF2.ltrans2.ltrans.o
 .data.gEfiIp4ProtocolGuid
                0x00000000000d1ecc       0x10 /tmp/Shell.dll.2u1FF2.ltrans2.ltrans.o
 .data.gEfiIp4ServiceBindingProtocolGuid
                0x00000000000d1edc       0x10 /tmp/Shell.dll.2u1FF2.ltrans2.ltrans.o
 .data.gEfiIp6ConfigProtocolGuid
                0x00000000000d1eec       0x10 /tmp/Shell.dll.2u1FF2.ltrans2.ltrans.o
 .data.gEfiIp6ProtocolGuid
                0x00000000000d1efc       0x10 /tmp/Shell.dll.2u1FF2.ltrans2.ltrans.o
 .data.gEfiIp6ServiceBindingProtocolGuid
                0x00000000000d1f0c       0x10 /tmp/Shell.dll.2u1FF2.ltrans2.ltrans.o
 .data.gEfiIpSec2ProtocolGuid
                0x00000000000d1f1c       0x10 /tmp/Shell.dll.2u1FF2.ltrans2.ltrans.o
 .data.gEfiIpSecConfigProtocolGuid
                0x00000000000d1f2c       0x10 /tmp/Shell.dll.2u1FF2.ltrans2.ltrans.o
 .data.gEfiIpSecProtocolGuid
                0x00000000000d1f3c       0x10 /tmp/Shell.dll.2u1FF2.ltrans2.ltrans.o
 .data.gEfiIsaHcProtocolGuid
                0x00000000000d1f4c       0x10 /tmp/Shell.dll.2u1FF2.ltrans2.ltrans.o
 .data.gEfiIsaHcServiceBindingProtocolGuid
                0x00000000000d1f5c       0x10 /tmp/Shell.dll.2u1FF2.ltrans2.ltrans.o
 .data.gEfiKmsProtocolGuid
                0x00000000000d1f6c       0x10 /tmp/Shell.dll.2u1FF2.ltrans2.ltrans.o
 .data.gEfiLegacyRegion2ProtocolGuid
                0x00000000000d1f7c       0x10 /tmp/Shell.dll.2u1FF2.ltrans2.ltrans.o
 .data.gEfiLoadFile2ProtocolGuid
                0x00000000000d1f8c       0x10 /tmp/Shell.dll.2u1FF2.ltrans2.ltrans.o
 .data.gEfiLoadFileProtocolGuid
                0x00000000000d1f9c       0x10 /tmp/Shell.dll.2u1FF2.ltrans2.ltrans.o
 .data.gEfiLoadedImageDevicePathProtocolGuid
                0x00000000000d1fac       0x10 /tmp/Shell.dll.2u1FF2.ltrans2.ltrans.o
 .data.gEfiManagedNetworkProtocolGuid
                0x00000000000d1fbc       0x10 /tmp/Shell.dll.2u1FF2.ltrans2.ltrans.o
 .data.gEfiManagedNetworkServiceBindingProtocolGuid
                0x00000000000d1fcc       0x10 /tmp/Shell.dll.2u1FF2.ltrans2.ltrans.o
 .data.gEfiMetronomeArchProtocolGuid
                0x00000000000d1fdc       0x10 /tmp/Shell.dll.2u1FF2.ltrans2.ltrans.o
 .data.gEfiMmAccessProtocolGuid
                0x00000000000d1fec       0x10 /tmp/Shell.dll.2u1FF2.ltrans2.ltrans.o
 .data.gEfiMmBaseProtocolGuid
                0x00000000000d1ffc       0x10 /tmp/Shell.dll.2u1FF2.ltrans2.ltrans.o
 .data.gEfiMmCommunicationProtocolGuid
                0x00000000000d200c       0x10 /tmp/Shell.dll.2u1FF2.ltrans2.ltrans.o
 .data.gEfiMmConfigurationProtocolGuid
                0x00000000000d201c       0x10 /tmp/Shell.dll.2u1FF2.ltrans2.ltrans.o
 .data.gEfiMmControlProtocolGuid
                0x00000000000d202c       0x10 /tmp/Shell.dll.2u1FF2.ltrans2.ltrans.o
 .data.gEfiMmCpuIoProtocolGuid
                0x00000000000d203c       0x10 /tmp/Shell.dll.2u1FF2.ltrans2.ltrans.o
 .data.gEfiMmCpuProtocolGuid
                0x00000000000d204c       0x10 /tmp/Shell.dll.2u1FF2.ltrans2.ltrans.o
 .data.gEfiMmEndOfDxeProtocolGuid
                0x00000000000d205c       0x10 /tmp/Shell.dll.2u1FF2.ltrans2.ltrans.o
 .data.gEfiMmGpiDispatchProtocolGuid
                0x00000000000d206c       0x10 /tmp/Shell.dll.2u1FF2.ltrans2.ltrans.o
 .data.gEfiMmIoTrapDispatchProtocolGuid
                0x00000000000d207c       0x10 /tmp/Shell.dll.2u1FF2.ltrans2.ltrans.o
 .data.gEfiMmPciRootBridgeIoProtocolGuid
                0x00000000000d208c       0x10 /tmp/Shell.dll.2u1FF2.ltrans2.ltrans.o
 .data.gEfiMmPeriodicTimerDispatchProtocolGuid
                0x00000000000d209c       0x10 /tmp/Shell.dll.2u1FF2.ltrans2.ltrans.o
 .data.gEfiMmPowerButtonDispatchProtocolGuid
                0x00000000000d20ac       0x10 /tmp/Shell.dll.2u1FF2.ltrans2.ltrans.o
 .data.gEfiMmReadyToLockProtocolGuid
                0x00000000000d20bc       0x10 /tmp/Shell.dll.2u1FF2.ltrans2.ltrans.o
 .data.gEfiMmRscHandlerProtocolGuid
                0x00000000000d20cc       0x10 /tmp/Shell.dll.2u1FF2.ltrans2.ltrans.o
 .data.gEfiMmStandbyButtonDispatchProtocolGuid
                0x00000000000d20dc       0x10 /tmp/Shell.dll.2u1FF2.ltrans2.ltrans.o
 .data.gEfiMmStatusCodeProtocolGuid
                0x00000000000d20ec       0x10 /tmp/Shell.dll.2u1FF2.ltrans2.ltrans.o
 .data.gEfiMmSwDispatchProtocolGuid
                0x00000000000d20fc       0x10 /tmp/Shell.dll.2u1FF2.ltrans2.ltrans.o
 .data.gEfiMmSxDispatchProtocolGuid
                0x00000000000d210c       0x10 /tmp/Shell.dll.2u1FF2.ltrans2.ltrans.o
 .data.gEfiMmUsbDispatchProtocolGuid
                0x00000000000d211c       0x10 /tmp/Shell.dll.2u1FF2.ltrans2.ltrans.o
 .data.gEfiMonotonicCounterArchProtocolGuid
                0x00000000000d212c       0x10 /tmp/Shell.dll.2u1FF2.ltrans2.ltrans.o
 .data.gEfiMpServiceProtocolGuid
                0x00000000000d213c       0x10 /tmp/Shell.dll.2u1FF2.ltrans2.ltrans.o
 .data.gEfiMtftp4ProtocolGuid
                0x00000000000d214c       0x10 /tmp/Shell.dll.2u1FF2.ltrans2.ltrans.o
 .data.gEfiMtftp4ServiceBindingProtocolGuid
                0x00000000000d215c       0x10 /tmp/Shell.dll.2u1FF2.ltrans2.ltrans.o
 .data.gEfiMtftp6ProtocolGuid
                0x00000000000d216c       0x10 /tmp/Shell.dll.2u1FF2.ltrans2.ltrans.o
 .data.gEfiMtftp6ServiceBindingProtocolGuid
                0x00000000000d217c       0x10 /tmp/Shell.dll.2u1FF2.ltrans2.ltrans.o
 .data.gEfiNetworkInterfaceIdentifierProtocolGuid
                0x00000000000d218c       0x10 /tmp/Shell.dll.2u1FF2.ltrans2.ltrans.o
 .data.gEfiNetworkInterfaceIdentifierProtocolGuid_31
                0x00000000000d219c       0x10 /tmp/Shell.dll.2u1FF2.ltrans2.ltrans.o
 .data.gEfiNvmExpressPassThruProtocolGuid
                0x00000000000d21ac       0x10 /tmp/Shell.dll.2u1FF2.ltrans2.ltrans.o
 .data.gEfiPartTypeLegacyMbrGuid
                0x00000000000d21bc       0x10 /tmp/Shell.dll.2u1FF2.ltrans2.ltrans.o
 .data.gEfiPartTypeSystemPartGuid
                0x00000000000d21cc       0x10 /tmp/Shell.dll.2u1FF2.ltrans2.ltrans.o
 .data.gEfiPartitionInfoProtocolGuid
                0x00000000000d21dc       0x10 /tmp/Shell.dll.2u1FF2.ltrans2.ltrans.o
 .data.gEfiPcdProtocolGuid
                0x00000000000d21ec       0x10 /tmp/Shell.dll.2u1FF2.ltrans2.ltrans.o
 .data.gEfiPciEnumerationCompleteProtocolGuid
                0x00000000000d21fc       0x10 /tmp/Shell.dll.2u1FF2.ltrans2.ltrans.o
 .data.gEfiPciHostBridgeResourceAllocationProtocolGuid
                0x00000000000d220c       0x10 /tmp/Shell.dll.2u1FF2.ltrans2.ltrans.o
 .data.gEfiPciHotPlugInitProtocolGuid
                0x00000000000d221c       0x10 /tmp/Shell.dll.2u1FF2.ltrans2.ltrans.o
 .data.gEfiPciHotPlugRequestProtocolGuid
                0x00000000000d222c       0x10 /tmp/Shell.dll.2u1FF2.ltrans2.ltrans.o
 .data.gEfiPciIoProtocolGuid
                0x00000000000d223c       0x10 /tmp/Shell.dll.2u1FF2.ltrans2.ltrans.o
                0x00000000000d223c                gEfiPciIoProtocolGuid
 .data.gEfiPciOverrideProtocolGuid
                0x00000000000d224c       0x10 /tmp/Shell.dll.2u1FF2.ltrans2.ltrans.o
 .data.gEfiPciPlatformProtocolGuid
                0x00000000000d225c       0x10 /tmp/Shell.dll.2u1FF2.ltrans2.ltrans.o
 .data.gEfiPciRootBridgeIoProtocolGuid
                0x00000000000d226c       0x10 /tmp/Shell.dll.2u1FF2.ltrans2.ltrans.o
                0x00000000000d226c                gEfiPciRootBridgeIoProtocolGuid
 .data.gEfiPkcs7VerifyProtocolGuid
                0x00000000000d227c       0x10 /tmp/Shell.dll.2u1FF2.ltrans2.ltrans.o
 .data.gEfiPlatformDriverOverrideProtocolGuid
                0x00000000000d228c       0x10 /tmp/Shell.dll.2u1FF2.ltrans2.ltrans.o
 .data.gEfiPlatformToDriverConfigurationProtocolGuid
                0x00000000000d229c       0x10 /tmp/Shell.dll.2u1FF2.ltrans2.ltrans.o
 .data.gEfiPxeBaseCodeCallbackProtocolGuid
                0x00000000000d22ac       0x10 /tmp/Shell.dll.2u1FF2.ltrans2.ltrans.o
 .data.gEfiPxeBaseCodeProtocolGuid
                0x00000000000d22bc       0x10 /tmp/Shell.dll.2u1FF2.ltrans2.ltrans.o
 .data.gEfiRamDiskProtocolGuid
                0x00000000000d22cc       0x10 /tmp/Shell.dll.2u1FF2.ltrans2.ltrans.o
 .data.gEfiRealTimeClockArchProtocolGuid
                0x00000000000d22dc       0x10 /tmp/Shell.dll.2u1FF2.ltrans2.ltrans.o
 .data.gEfiRedfishDiscoverProtocolGuid
                0x00000000000d22ec       0x10 /tmp/Shell.dll.2u1FF2.ltrans2.ltrans.o
 .data.gEfiRegularExpressionProtocolGuid
                0x00000000000d22fc       0x10 /tmp/Shell.dll.2u1FF2.ltrans2.ltrans.o
 .data.gEfiResetArchProtocolGuid
                0x00000000000d230c       0x10 /tmp/Shell.dll.2u1FF2.ltrans2.ltrans.o
 .data.gEfiResetNotificationProtocolGuid
                0x00000000000d231c       0x10 /tmp/Shell.dll.2u1FF2.ltrans2.ltrans.o
 .data.gEfiRestExProtocolGuid
                0x00000000000d232c       0x10 /tmp/Shell.dll.2u1FF2.ltrans2.ltrans.o
 .data.gEfiRestProtocolGuid
                0x00000000000d233c       0x10 /tmp/Shell.dll.2u1FF2.ltrans2.ltrans.o
 .data.gEfiRngProtocolGuid
                0x00000000000d234c       0x10 /tmp/Shell.dll.2u1FF2.ltrans2.ltrans.o
 .data.gEfiRscHandlerProtocolGuid
                0x00000000000d235c       0x10 /tmp/Shell.dll.2u1FF2.ltrans2.ltrans.o
 .data.gEfiRuntimeArchProtocolGuid
                0x00000000000d236c       0x10 /tmp/Shell.dll.2u1FF2.ltrans2.ltrans.o
 .data.gEfiS3SaveStateProtocolGuid
                0x00000000000d237c       0x10 /tmp/Shell.dll.2u1FF2.ltrans2.ltrans.o
 .data.gEfiS3SmmSaveStateProtocolGuid
                0x00000000000d238c       0x10 /tmp/Shell.dll.2u1FF2.ltrans2.ltrans.o
 .data.gEfiScsiIoProtocolGuid
                0x00000000000d239c       0x10 /tmp/Shell.dll.2u1FF2.ltrans2.ltrans.o
 .data.gEfiScsiPassThruProtocolGuid
                0x00000000000d23ac       0x10 /tmp/Shell.dll.2u1FF2.ltrans2.ltrans.o
 .data.gEfiSdMmcPassThruProtocolGuid
                0x00000000000d23bc       0x10 /tmp/Shell.dll.2u1FF2.ltrans2.ltrans.o
 .data.gEfiSecurity2ArchProtocolGuid
                0x00000000000d23cc       0x10 /tmp/Shell.dll.2u1FF2.ltrans2.ltrans.o
 .data.gEfiSecurityArchProtocolGuid
                0x00000000000d23dc       0x10 /tmp/Shell.dll.2u1FF2.ltrans2.ltrans.o
 .data.gEfiSecurityPolicyProtocolGuid
                0x00000000000d23ec       0x10 /tmp/Shell.dll.2u1FF2.ltrans2.ltrans.o
 .data.gEfiSerialIoProtocolGuid
                0x00000000000d23fc       0x10 /tmp/Shell.dll.2u1FF2.ltrans2.ltrans.o
                0x00000000000d23fc                gEfiSerialIoProtocolGuid
 .data.gEfiShellDynamicCommandProtocolGuid
                0x00000000000d240c       0x10 /tmp/Shell.dll.2u1FF2.ltrans2.ltrans.o
                0x00000000000d240c                gEfiShellDynamicCommandProtocolGuid
 .data.gEfiShellEnvironment2Guid
                0x00000000000d241c       0x10 /tmp/Shell.dll.2u1FF2.ltrans2.ltrans.o
                0x00000000000d241c                gEfiShellEnvironment2Guid
 .data.gEfiShellInterfaceGuid
                0x00000000000d242c       0x10 /tmp/Shell.dll.2u1FF2.ltrans2.ltrans.o
                0x00000000000d242c                gEfiShellInterfaceGuid
 .data.gEfiSimpleNetworkProtocolGuid
                0x00000000000d243c       0x10 /tmp/Shell.dll.2u1FF2.ltrans2.ltrans.o
 .data.gEfiSimplePointerProtocolGuid
                0x00000000000d244c       0x10 /tmp/Shell.dll.2u1FF2.ltrans2.ltrans.o
                0x00000000000d244c                gEfiSimplePointerProtocolGuid
 .data.gEfiSioControlProtocolGuid
                0x00000000000d245c       0x10 /tmp/Shell.dll.2u1FF2.ltrans2.ltrans.o
 .data.gEfiSioProtocolGuid
                0x00000000000d246c       0x10 /tmp/Shell.dll.2u1FF2.ltrans2.ltrans.o
 .data.gEfiSmartCardEdgeProtocolGuid
                0x00000000000d247c       0x10 /tmp/Shell.dll.2u1FF2.ltrans2.ltrans.o
 .data.gEfiSmartCardReaderProtocolGuid
                0x00000000000d248c       0x10 /tmp/Shell.dll.2u1FF2.ltrans2.ltrans.o
 .data.gEfiSmbiosProtocolGuid
                0x00000000000d249c       0x10 /tmp/Shell.dll.2u1FF2.ltrans2.ltrans.o
 .data.gEfiSmbusHcProtocolGuid
                0x00000000000d24ac       0x10 /tmp/Shell.dll.2u1FF2.ltrans2.ltrans.o
 .data.gEfiSmmAccess2ProtocolGuid
                0x00000000000d24bc       0x10 /tmp/Shell.dll.2u1FF2.ltrans2.ltrans.o
 .data.gEfiSmmBase2ProtocolGuid
                0x00000000000d24cc       0x10 /tmp/Shell.dll.2u1FF2.ltrans2.ltrans.o
 .data.gEfiSmmCommunicationProtocolGuid
                0x00000000000d24dc       0x10 /tmp/Shell.dll.2u1FF2.ltrans2.ltrans.o
 .data.gEfiSmmConfigurationProtocolGuid
                0x00000000000d24ec       0x10 /tmp/Shell.dll.2u1FF2.ltrans2.ltrans.o
 .data.gEfiSmmControl2ProtocolGuid
                0x00000000000d24fc       0x10 /tmp/Shell.dll.2u1FF2.ltrans2.ltrans.o
 .data.gEfiSmmCpuIo2ProtocolGuid
                0x00000000000d250c       0x10 /tmp/Shell.dll.2u1FF2.ltrans2.ltrans.o
 .data.gEfiSmmCpuProtocolGuid
                0x00000000000d251c       0x10 /tmp/Shell.dll.2u1FF2.ltrans2.ltrans.o
 .data.gEfiSmmEndOfDxeProtocolGuid
                0x00000000000d252c       0x10 /tmp/Shell.dll.2u1FF2.ltrans2.ltrans.o
 .data.gEfiSmmGpiDispatch2ProtocolGuid
                0x00000000000d253c       0x10 /tmp/Shell.dll.2u1FF2.ltrans2.ltrans.o
 .data.gEfiSmmIoTrapDispatch2ProtocolGuid
                0x00000000000d254c       0x10 /tmp/Shell.dll.2u1FF2.ltrans2.ltrans.o
 .data.gEfiSmmPciRootBridgeIoProtocolGuid
                0x00000000000d255c       0x10 /tmp/Shell.dll.2u1FF2.ltrans2.ltrans.o
 .data.gEfiSmmPeriodicTimerDispatch2ProtocolGuid
                0x00000000000d256c       0x10 /tmp/Shell.dll.2u1FF2.ltrans2.ltrans.o
 .data.gEfiSmmPowerButtonDispatch2ProtocolGuid
                0x00000000000d257c       0x10 /tmp/Shell.dll.2u1FF2.ltrans2.ltrans.o
 .data.gEfiSmmReadyToLockProtocolGuid
                0x00000000000d258c       0x10 /tmp/Shell.dll.2u1FF2.ltrans2.ltrans.o
 .data.gEfiSmmRscHandlerProtocolGuid
                0x00000000000d259c       0x10 /tmp/Shell.dll.2u1FF2.ltrans2.ltrans.o
 .data.gEfiSmmStandbyButtonDispatch2ProtocolGuid
                0x00000000000d25ac       0x10 /tmp/Shell.dll.2u1FF2.ltrans2.ltrans.o
 .data.gEfiSmmStatusCodeProtocolGuid
                0x00000000000d25bc       0x10 /tmp/Shell.dll.2u1FF2.ltrans2.ltrans.o
 .data.gEfiSmmSwDispatch2ProtocolGuid
                0x00000000000d25cc       0x10 /tmp/Shell.dll.2u1FF2.ltrans2.ltrans.o
 .data.gEfiSmmSxDispatch2ProtocolGuid
                0x00000000000d25dc       0x10 /tmp/Shell.dll.2u1FF2.ltrans2.ltrans.o
 .data.gEfiSmmUsbDispatch2ProtocolGuid
                0x00000000000d25ec       0x10 /tmp/Shell.dll.2u1FF2.ltrans2.ltrans.o
 .data.gEfiStandardErrorDeviceGuid
                0x00000000000d25fc       0x10 /tmp/Shell.dll.2u1FF2.ltrans2.ltrans.o
 .data.gEfiStatusCodeRuntimeProtocolGuid
                0x00000000000d260c       0x10 /tmp/Shell.dll.2u1FF2.ltrans2.ltrans.o
 .data.gEfiStorageSecurityCommandProtocolGuid
                0x00000000000d261c       0x10 /tmp/Shell.dll.2u1FF2.ltrans2.ltrans.o
 .data.gEfiSupplicantProtocolGuid
                0x00000000000d262c       0x10 /tmp/Shell.dll.2u1FF2.ltrans2.ltrans.o
 .data.gEfiSupplicantServiceBindingProtocolGuid
                0x00000000000d263c       0x10 /tmp/Shell.dll.2u1FF2.ltrans2.ltrans.o
 .data.gEfiTapeIoProtocolGuid
                0x00000000000d264c       0x10 /tmp/Shell.dll.2u1FF2.ltrans2.ltrans.o
 .data.gEfiTcg2ProtocolGuid
                0x00000000000d265c       0x10 /tmp/Shell.dll.2u1FF2.ltrans2.ltrans.o
 .data.gEfiTcgProtocolGuid
                0x00000000000d266c       0x10 /tmp/Shell.dll.2u1FF2.ltrans2.ltrans.o
 .data.gEfiTcp4ProtocolGuid
                0x00000000000d267c       0x10 /tmp/Shell.dll.2u1FF2.ltrans2.ltrans.o
 .data.gEfiTcp4ServiceBindingProtocolGuid
                0x00000000000d268c       0x10 /tmp/Shell.dll.2u1FF2.ltrans2.ltrans.o
 .data.gEfiTcp6ProtocolGuid
                0x00000000000d269c       0x10 /tmp/Shell.dll.2u1FF2.ltrans2.ltrans.o
 .data.gEfiTcp6ServiceBindingProtocolGuid
                0x00000000000d26ac       0x10 /tmp/Shell.dll.2u1FF2.ltrans2.ltrans.o
 .data.gEfiTimerArchProtocolGuid
                0x00000000000d26bc       0x10 /tmp/Shell.dll.2u1FF2.ltrans2.ltrans.o
 .data.gEfiTimestampProtocolGuid
                0x00000000000d26cc       0x10 /tmp/Shell.dll.2u1FF2.ltrans2.ltrans.o
 .data.gEfiTlsConfigurationProtocolGuid
                0x00000000000d26dc       0x10 /tmp/Shell.dll.2u1FF2.ltrans2.ltrans.o
 .data.gEfiTlsProtocolGuid
                0x00000000000d26ec       0x10 /tmp/Shell.dll.2u1FF2.ltrans2.ltrans.o
 .data.gEfiTlsServiceBindingProtocolGuid
                0x00000000000d26fc       0x10 /tmp/Shell.dll.2u1FF2.ltrans2.ltrans.o
 .data.gEfiUdp4ProtocolGuid
                0x00000000000d270c       0x10 /tmp/Shell.dll.2u1FF2.ltrans2.ltrans.o
 .data.gEfiUdp4ServiceBindingProtocolGuid
                0x00000000000d271c       0x10 /tmp/Shell.dll.2u1FF2.ltrans2.ltrans.o
 .data.gEfiUdp6ProtocolGuid
                0x00000000000d272c       0x10 /tmp/Shell.dll.2u1FF2.ltrans2.ltrans.o
 .data.gEfiUdp6ServiceBindingProtocolGuid
                0x00000000000d273c       0x10 /tmp/Shell.dll.2u1FF2.ltrans2.ltrans.o
 .data.gEfiUfsDeviceConfigProtocolGuid
                0x00000000000d274c       0x10 /tmp/Shell.dll.2u1FF2.ltrans2.ltrans.o
 .data.gEfiUgaDrawProtocolGuid
                0x00000000000d275c       0x10 /tmp/Shell.dll.2u1FF2.ltrans2.ltrans.o
 .data.gEfiUgaIoProtocolGuid
                0x00000000000d276c       0x10 /tmp/Shell.dll.2u1FF2.ltrans2.ltrans.o
 .data.gEfiUsb2HcProtocolGuid
                0x00000000000d277c       0x10 /tmp/Shell.dll.2u1FF2.ltrans2.ltrans.o
 .data.gEfiUsbFunctionIoProtocolGuid
                0x00000000000d278c       0x10 /tmp/Shell.dll.2u1FF2.ltrans2.ltrans.o
 .data.gEfiUsbHcProtocolGuid
                0x00000000000d279c       0x10 /tmp/Shell.dll.2u1FF2.ltrans2.ltrans.o
 .data.gEfiUsbIoProtocolGuid
                0x00000000000d27ac       0x10 /tmp/Shell.dll.2u1FF2.ltrans2.ltrans.o
                0x00000000000d27ac                gEfiUsbIoProtocolGuid
 .data.gEfiUserCredential2ProtocolGuid
                0x00000000000d27bc       0x10 /tmp/Shell.dll.2u1FF2.ltrans2.ltrans.o
 .data.gEfiUserCredentialProtocolGuid
                0x00000000000d27cc       0x10 /tmp/Shell.dll.2u1FF2.ltrans2.ltrans.o
 .data.gEfiUserManagerProtocolGuid
                0x00000000000d27dc       0x10 /tmp/Shell.dll.2u1FF2.ltrans2.ltrans.o
 .data.gEfiVariableArchProtocolGuid
                0x00000000000d27ec       0x10 /tmp/Shell.dll.2u1FF2.ltrans2.ltrans.o
 .data.gEfiVariableWriteArchProtocolGuid
                0x00000000000d27fc       0x10 /tmp/Shell.dll.2u1FF2.ltrans2.ltrans.o
 .data.gEfiVlanConfigProtocolGuid
                0x00000000000d280c       0x10 /tmp/Shell.dll.2u1FF2.ltrans2.ltrans.o
 .data.gEfiWatchdogTimerArchProtocolGuid
                0x00000000000d281c       0x10 /tmp/Shell.dll.2u1FF2.ltrans2.ltrans.o
 .data.gEfiWiFi2ProtocolGuid
                0x00000000000d282c       0x10 /tmp/Shell.dll.2u1FF2.ltrans2.ltrans.o
 .data.gEfiWiFiProtocolGuid
                0x00000000000d283c       0x10 /tmp/Shell.dll.2u1FF2.ltrans2.ltrans.o
 .data.gGetPcdInfoProtocolGuid
                0x00000000000d284c       0x10 /tmp/Shell.dll.2u1FF2.ltrans2.ltrans.o
 .data.gHandleParsingHiiGuid
                0x00000000000d285c       0x10 /tmp/Shell.dll.2u1FF2.ltrans2.ltrans.o
 .data.gPcdProtocolGuid
                0x00000000000d286c       0x10 /tmp/Shell.dll.2u1FF2.ltrans2.ltrans.o
 *fill*         0x00000000000d287c        0x4 
 .data.EmptyParamList
                0x00000000000d2880       0x10 /tmp/Shell.dll.2u1FF2.ltrans3.ltrans.o
                0x00000000000d2880                EmptyParamList
 .data.SfoParamList
                0x00000000000d2890       0x20 /tmp/Shell.dll.2u1FF2.ltrans3.ltrans.o
                0x00000000000d2890                SfoParamList
 .data.mDayOfMonth
                0x00000000000d28b0       0x60 /tmp/Shell.dll.2u1FF2.ltrans3.ltrans.o
 .data.DiagGuidList
                0x00000000000d2910       0x18 /tmp/Shell.dll.2u1FF2.ltrans5.ltrans.o
 .data.CfgGuidList
                0x00000000000d2928       0x18 /tmp/Shell.dll.2u1FF2.ltrans6.ltrans.o
 .data.FileBufferConst
                0x00000000000d2940       0x78 /tmp/Shell.dll.2u1FF2.ltrans6.ltrans.o
 .data.HBufferImageConst
                0x00000000000d29b8       0x78 /tmp/Shell.dll.2u1FF2.ltrans6.ltrans.o
 .data.HMainEditorConst
                0x00000000000d2a30       0x50 /tmp/Shell.dll.2u1FF2.ltrans6.ltrans.o
 .data.HexMainControlBasedMenuFunctions
                0x00000000000d2a80       0xd8 /tmp/Shell.dll.2u1FF2.ltrans6.ltrans.o
 .data.MainControlBasedMenuFunctions
                0x00000000000d2b58       0xd8 /tmp/Shell.dll.2u1FF2.ltrans6.ltrans.o
 .data.MainEditorConst
                0x00000000000d2c30       0x48 /tmp/Shell.dll.2u1FF2.ltrans6.ltrans.o
 .data.MainMenuItems
                0x00000000000d2c78       0xb0 /tmp/Shell.dll.2u1FF2.ltrans6.ltrans.o
 .data.PCIBlankEntry
                0x00000000000d2d28       0x30 /tmp/Shell.dll.2u1FF2.ltrans7.ltrans.o
 .data.PCIPIFClass_0100
                0x00000000000d2d58       0x90 /tmp/Shell.dll.2u1FF2.ltrans7.ltrans.o
 .data.PCIPIFClass_0101
                0x00000000000d2de8      0x318 /tmp/Shell.dll.2u1FF2.ltrans7.ltrans.o
 .data.PCIPIFClass_0105
                0x00000000000d3100       0x48 /tmp/Shell.dll.2u1FF2.ltrans7.ltrans.o
 .data.PCIPIFClass_0106
                0x00000000000d3148       0x60 /tmp/Shell.dll.2u1FF2.ltrans7.ltrans.o
 .data.PCIPIFClass_0107
                0x00000000000d31a8       0x48 /tmp/Shell.dll.2u1FF2.ltrans7.ltrans.o
 .data.PCIPIFClass_0108
                0x00000000000d31f0       0x60 /tmp/Shell.dll.2u1FF2.ltrans7.ltrans.o
 .data.PCIPIFClass_0109
                0x00000000000d3250       0x48 /tmp/Shell.dll.2u1FF2.ltrans7.ltrans.o
 .data.PCIPIFClass_0300
                0x00000000000d3298       0x48 /tmp/Shell.dll.2u1FF2.ltrans7.ltrans.o
 .data.PCIPIFClass_0604
                0x00000000000d32e0       0x48 /tmp/Shell.dll.2u1FF2.ltrans7.ltrans.o
 .data.PCIPIFClass_0609
                0x00000000000d3328       0x48 /tmp/Shell.dll.2u1FF2.ltrans7.ltrans.o
 .data.PCIPIFClass_060b
                0x00000000000d3370       0x48 /tmp/Shell.dll.2u1FF2.ltrans7.ltrans.o
 .data.PCIPIFClass_0700
                0x00000000000d33b8       0xc0 /tmp/Shell.dll.2u1FF2.ltrans7.ltrans.o
 .data.PCIPIFClass_0701
                0x00000000000d3478       0x90 /tmp/Shell.dll.2u1FF2.ltrans7.ltrans.o
 .data.PCIPIFClass_0703
                0x00000000000d3508       0x90 /tmp/Shell.dll.2u1FF2.ltrans7.ltrans.o
 .data.PCIPIFClass_0800
                0x00000000000d3598       0x90 /tmp/Shell.dll.2u1FF2.ltrans7.ltrans.o
 .data.PCIPIFClass_0801
                0x00000000000d3628       0x60 /tmp/Shell.dll.2u1FF2.ltrans7.ltrans.o
 .data.PCIPIFClass_0802
                0x00000000000d3688       0x60 /tmp/Shell.dll.2u1FF2.ltrans7.ltrans.o
 .data.PCIPIFClass_0803
                0x00000000000d36e8       0x60 /tmp/Shell.dll.2u1FF2.ltrans7.ltrans.o
 .data.PCIPIFClass_0904
                0x00000000000d3748       0x48 /tmp/Shell.dll.2u1FF2.ltrans7.ltrans.o
 .data.PCIPIFClass_0c00
                0x00000000000d3790       0x48 /tmp/Shell.dll.2u1FF2.ltrans7.ltrans.o
 .data.PCIPIFClass_0c03
                0x00000000000d37d8       0xa8 /tmp/Shell.dll.2u1FF2.ltrans7.ltrans.o
 .data.PCIPIFClass_0c07
                0x00000000000d3880       0x60 /tmp/Shell.dll.2u1FF2.ltrans7.ltrans.o
 .data.PCIPIFClass_0d01
                0x00000000000d38e0       0x48 /tmp/Shell.dll.2u1FF2.ltrans7.ltrans.o
 .data.PCIPIFClass_0e00
                0x00000000000d3928       0x48 /tmp/Shell.dll.2u1FF2.ltrans7.ltrans.o
 .data.PCISubClass_00
                0x00000000000d3970       0x48 /tmp/Shell.dll.2u1FF2.ltrans7.ltrans.o
 .data.PCISubClass_01
                0x00000000000d39b8      0x120 /tmp/Shell.dll.2u1FF2.ltrans7.ltrans.o
 .data.PCISubClass_02
                0x00000000000d3ad8       0xf0 /tmp/Shell.dll.2u1FF2.ltrans7.ltrans.o
 .data.PCISubClass_03
                0x00000000000d3bc8       0x78 /tmp/Shell.dll.2u1FF2.ltrans7.ltrans.o
 .data.PCISubClass_04
                0x00000000000d3c40       0x90 /tmp/Shell.dll.2u1FF2.ltrans7.ltrans.o
 .data.PCISubClass_05
                0x00000000000d3cd0       0x60 /tmp/Shell.dll.2u1FF2.ltrans7.ltrans.o
 .data.PCISubClass_06
                0x00000000000d3d30      0x150 /tmp/Shell.dll.2u1FF2.ltrans7.ltrans.o
 .data.PCISubClass_07
                0x00000000000d3e80       0xc0 /tmp/Shell.dll.2u1FF2.ltrans7.ltrans.o
 .data.PCISubClass_08
                0x00000000000d3f40       0xf0 /tmp/Shell.dll.2u1FF2.ltrans7.ltrans.o
 .data.PCISubClass_09
                0x00000000000d4030       0xa8 /tmp/Shell.dll.2u1FF2.ltrans7.ltrans.o
 .data.PCISubClass_0a
                0x00000000000d40d8       0x48 /tmp/Shell.dll.2u1FF2.ltrans7.ltrans.o
 .data.PCISubClass_0b
                0x00000000000d4120       0xd8 /tmp/Shell.dll.2u1FF2.ltrans7.ltrans.o
 .data.PCISubClass_0c
                0x00000000000d41f8      0x120 /tmp/Shell.dll.2u1FF2.ltrans7.ltrans.o
 .data.PCISubClass_0d
                0x00000000000d4318       0xd8 /tmp/Shell.dll.2u1FF2.ltrans7.ltrans.o
 .data.PCISubClass_0e
                0x00000000000d43f0       0x30 /tmp/Shell.dll.2u1FF2.ltrans7.ltrans.o
 .data.PCISubClass_0f
                0x00000000000d4420       0x90 /tmp/Shell.dll.2u1FF2.ltrans7.ltrans.o
 .data.PCISubClass_10
                0x00000000000d44b0       0x60 /tmp/Shell.dll.2u1FF2.ltrans7.ltrans.o
 .data.PCISubClass_11
                0x00000000000d4510       0x90 /tmp/Shell.dll.2u1FF2.ltrans7.ltrans.o
 .data.PCISubClass_12
                0x00000000000d45a0       0x30 /tmp/Shell.dll.2u1FF2.ltrans7.ltrans.o
 .data.PCISubClass_13
                0x00000000000d45d0       0x30 /tmp/Shell.dll.2u1FF2.ltrans7.ltrans.o
 .data.gClassStringList
                0x00000000000d4600      0x210 /tmp/Shell.dll.2u1FF2.ltrans7.ltrans.o
 .data.gEfiAcpi10TableGuid
                0x00000000000d4810       0x10 /tmp/Shell.dll.2u1FF2.ltrans7.ltrans.o
 .data.gEfiAcpi20TableGuid
                0x00000000000d4820       0x10 /tmp/Shell.dll.2u1FF2.ltrans7.ltrans.o
 .data.gEfiMpsTableGuid
                0x00000000000d4830       0x10 /tmp/Shell.dll.2u1FF2.ltrans7.ltrans.o
 .data.gEfiSmbios3TableGuid
                0x00000000000d4840       0x10 /tmp/Shell.dll.2u1FF2.ltrans7.ltrans.o
                0x00000000000d4840                gEfiSmbios3TableGuid
 .data.gEfiSmbiosTableGuid
                0x00000000000d4850       0x10 /tmp/Shell.dll.2u1FF2.ltrans7.ltrans.o
                0x00000000000d4850                gEfiSmbiosTableGuid
 .data.McErrorCorrectCapabilityTable
                0x00000000000d4860       0x60 /tmp/Shell.dll.2u1FF2.ltrans8.ltrans.o
 .data.McInterleaveSupportTable
                0x00000000000d48c0       0x70 /tmp/Shell.dll.2u1FF2.ltrans8.ltrans.o
 .data.MemoryErrorGranularityTable
                0x00000000000d4930       0x40 /tmp/Shell.dll.2u1FF2.ltrans8.ltrans.o
 .data.MemoryErrorOperationTable
                0x00000000000d4970       0x50 /tmp/Shell.dll.2u1FF2.ltrans8.ltrans.o
 .data.MemoryErrorTypeTable
                0x00000000000d49c0       0xe0 /tmp/Shell.dll.2u1FF2.ltrans8.ltrans.o
 .data.MmMemoryTypeTable
                0x00000000000d4aa0       0xb0 /tmp/Shell.dll.2u1FF2.ltrans8.ltrans.o
 .data.OnboardDeviceTypesTable
                0x00000000000d4b50       0xa0 /tmp/Shell.dll.2u1FF2.ltrans8.ltrans.o
 .data.PortConnectorTypeTable
                0x00000000000d4bf0      0x2a0 /tmp/Shell.dll.2u1FF2.ltrans8.ltrans.o
 .data.SELTypesTable
                0x00000000000d4e90      0x1b0 /tmp/Shell.dll.2u1FF2.ltrans8.ltrans.o
 .data.SELVarDataFormatTypeTable
                0x00000000000d5040       0x90 /tmp/Shell.dll.2u1FF2.ltrans8.ltrans.o
 .data.SystemEnclosureStatusTable
                0x00000000000d50d0       0x60 /tmp/Shell.dll.2u1FF2.ltrans8.ltrans.o
 .data.SystemSlotTypeTable
                0x00000000000d5130      0x410 /tmp/Shell.dll.2u1FF2.ltrans8.ltrans.o
 .data.gRockchipI2cDemoProtocolGuid
                0x00000000000d5540       0x10 /tmp/Shell.dll.2u1FF2.ltrans8.ltrans.o
 .data.gShowType
                0x00000000000d5550        0x1 /tmp/Shell.dll.2u1FF2.ltrans8.ltrans.o
 *fill*         0x00000000000d5551        0x3 
 .data.gUniNorFlashProtocolGuid
                0x00000000000d5554       0x10 /tmp/Shell.dll.2u1FF2.ltrans8.ltrans.o
 *fill*         0x00000000000d5564        0x4 
 .data.SELSysManagementTypesTable
                0x00000000000d5568      0x100 /tmp/Shell.dll.2u1FF2.ltrans9.ltrans.o
 .data.UefiShellBcfgCommandLibStrings
                0x00000000000d5668     0x3034 /tmp/Shell.dll.2u1FF2.ltrans9.ltrans.o
 .data.gEdkiiVariableLockProtocolGuid
                0x00000000000d869c       0x10 /tmp/Shell.dll.2u1FF2.ltrans9.ltrans.o
 .data.gEfiShellEnvironment2ExtGuid
                0x00000000000d86ac       0x10 /tmp/Shell.dll.2u1FF2.ltrans9.ltrans.o
 .data.gShellBcfgHiiGuid
                0x00000000000d86bc       0x10 /tmp/Shell.dll.2u1FF2.ltrans9.ltrans.o
 .data.mShellManHiiDevicePath
                0x00000000000d86cc       0x18 /tmp/Shell.dll.2u1FF2.ltrans9.ltrans.o
 *fill*         0x00000000000d86e4        0x4 
 .data.BaseBoardBoardTypeTable
                0x00000000000d86e8       0xd0 /tmp/Shell.dll.2u1FF2.ltrans11.ltrans.o
 .data.BaseBoardFeatureFlagsTable
                0x00000000000d87b8       0x50 /tmp/Shell.dll.2u1FF2.ltrans11.ltrans.o
 .data.CacheAssociativityTable
                0x00000000000d8808       0xe0 /tmp/Shell.dll.2u1FF2.ltrans11.ltrans.o
 .data.CacheErrCorrectingTypeTable
                0x00000000000d88e8       0x60 /tmp/Shell.dll.2u1FF2.ltrans11.ltrans.o
 .data.CacheSRAMTypeTable
                0x00000000000d8948       0x70 /tmp/Shell.dll.2u1FF2.ltrans11.ltrans.o
 .data.CacheSystemCacheTypeTable
                0x00000000000d89b8       0x50 /tmp/Shell.dll.2u1FF2.ltrans11.ltrans.o
 .data.CoolingDeviceStatusTable
                0x00000000000d8a08       0x60 /tmp/Shell.dll.2u1FF2.ltrans11.ltrans.o
 .data.CoolingDeviceTypeTable
                0x00000000000d8a68       0xb0 /tmp/Shell.dll.2u1FF2.ltrans11.ltrans.o
 .data.ECPLocTable
                0x00000000000d8b18       0xb0 /tmp/Shell.dll.2u1FF2.ltrans11.ltrans.o
 .data.ECPStatusTable
                0x00000000000d8bc8       0x60 /tmp/Shell.dll.2u1FF2.ltrans11.ltrans.o
 .data.IPMIDIBMCInterfaceTypeTable
                0x00000000000d8c28       0x60 /tmp/Shell.dll.2u1FF2.ltrans11.ltrans.o
 .data.MCHostInterfaceTypeTable
                0x00000000000d8c88       0x30 /tmp/Shell.dll.2u1FF2.ltrans11.ltrans.o
 .data.MDAddressTypeTable
                0x00000000000d8cb8       0x50 /tmp/Shell.dll.2u1FF2.ltrans11.ltrans.o
 .data.MDTypeTable
                0x00000000000d8d08       0xd0 /tmp/Shell.dll.2u1FF2.ltrans11.ltrans.o
 .data.McErrorDetectMethodTable
                0x00000000000d8dd8       0x80 /tmp/Shell.dll.2u1FF2.ltrans11.ltrans.o
 .data.McMemorySpeedsTable
                0x00000000000d8e58       0x50 /tmp/Shell.dll.2u1FF2.ltrans11.ltrans.o
 .data.MemoryChannelTypeTable
                0x00000000000d8ea8       0x40 /tmp/Shell.dll.2u1FF2.ltrans11.ltrans.o
 .data.MemoryDeviceFormFactorTable
                0x00000000000d8ee8      0x100 /tmp/Shell.dll.2u1FF2.ltrans11.ltrans.o
 .data.MemoryDeviceMemoryOperatingModeCapabilityTable
                0x00000000000d8fe8       0x50 /tmp/Shell.dll.2u1FF2.ltrans11.ltrans.o
 .data.MemoryDeviceMemoryTechnologyTable
                0x00000000000d9038       0x70 /tmp/Shell.dll.2u1FF2.ltrans11.ltrans.o
 .data.MemoryDeviceTypeDetailTable
                0x00000000000d90a8       0xe0 /tmp/Shell.dll.2u1FF2.ltrans11.ltrans.o
 .data.MemoryDeviceTypeTable
                0x00000000000d9188      0x200 /tmp/Shell.dll.2u1FF2.ltrans11.ltrans.o
 .data.MemoryModuleVoltageTable
                0x00000000000d9388       0x30 /tmp/Shell.dll.2u1FF2.ltrans11.ltrans.o
 .data.MmErrorStatusTable
                0x00000000000d93b8       0x30 /tmp/Shell.dll.2u1FF2.ltrans11.ltrans.o
 .data.PBDeviceChemistryTable
                0x00000000000d93e8       0x80 /tmp/Shell.dll.2u1FF2.ltrans11.ltrans.o
 .data.PMAErrorCorrectionTypesTable
                0x00000000000d9468       0x70 /tmp/Shell.dll.2u1FF2.ltrans11.ltrans.o
 .data.PMALocationTable
                0x00000000000d94d8       0xf0 /tmp/Shell.dll.2u1FF2.ltrans11.ltrans.o
 .data.PMAUseTable
                0x00000000000d95c8       0x70 /tmp/Shell.dll.2u1FF2.ltrans11.ltrans.o
 .data.PointingDeviceInterfaceTable
                0x00000000000d9638       0xb0 /tmp/Shell.dll.2u1FF2.ltrans11.ltrans.o
 .data.PointingDeviceTypeTable
                0x00000000000d96e8       0x70 /tmp/Shell.dll.2u1FF2.ltrans11.ltrans.o
 .data.PortTypeTable
                0x00000000000d9758      0x270 /tmp/Shell.dll.2u1FF2.ltrans11.ltrans.o
 .data.PostResultsBitmapDw1Table
                0x00000000000d99c8      0x200 /tmp/Shell.dll.2u1FF2.ltrans11.ltrans.o
 .data.PostResultsBitmapDw2Table
                0x00000000000d9bc8      0x200 /tmp/Shell.dll.2u1FF2.ltrans11.ltrans.o
 .data.ProcessorArchitectureTypesTable
                0x00000000000d9dc8       0x90 /tmp/Shell.dll.2u1FF2.ltrans11.ltrans.o
 .data.ProcessorCharacteristicsTable
                0x00000000000d9e58       0x90 /tmp/Shell.dll.2u1FF2.ltrans11.ltrans.o
 .data.ProcessorTypeTable
                0x00000000000d9ee8       0x60 /tmp/Shell.dll.2u1FF2.ltrans11.ltrans.o
 .data.ProcessorUpgradeTable
                0x00000000000d9f48      0x3c0 /tmp/Shell.dll.2u1FF2.ltrans11.ltrans.o
 .data.SESecurityStatusTable
                0x00000000000da308       0x50 /tmp/Shell.dll.2u1FF2.ltrans11.ltrans.o
 .data.SlotCharacteristics1Table
                0x00000000000da358       0x80 /tmp/Shell.dll.2u1FF2.ltrans11.ltrans.o
 .data.SlotCharacteristics2Table
                0x00000000000da3d8       0x40 /tmp/Shell.dll.2u1FF2.ltrans11.ltrans.o
 .data.StructureTypeInfoTable
                0x00000000000da418      0x2f0 /tmp/Shell.dll.2u1FF2.ltrans11.ltrans.o
 .data.SystemEnclosureTypeTable
                0x00000000000da708      0x240 /tmp/Shell.dll.2u1FF2.ltrans11.ltrans.o
 .data.SystemSlotCurrentUsageTable
                0x00000000000da948       0x50 /tmp/Shell.dll.2u1FF2.ltrans11.ltrans.o
 .data.SystemSlotDataBusWidthTable
                0x00000000000da998       0xe0 /tmp/Shell.dll.2u1FF2.ltrans11.ltrans.o
 .data.SystemSlotLengthTable
                0x00000000000daa78       0x40 /tmp/Shell.dll.2u1FF2.ltrans11.ltrans.o
 .data.SystemWakeupTypeTable
                0x00000000000daab8       0x80 /tmp/Shell.dll.2u1FF2.ltrans11.ltrans.o
 .data.TemperatureProbeLocTable
                0x00000000000dab38       0xb0 /tmp/Shell.dll.2u1FF2.ltrans11.ltrans.o
 .data.TemperatureProbeStatusTable
                0x00000000000dabe8       0x60 /tmp/Shell.dll.2u1FF2.ltrans11.ltrans.o
 .data.VPLocationTable
                0x00000000000dac48       0x60 /tmp/Shell.dll.2u1FF2.ltrans11.ltrans.o
 .data.VPStatusTable
                0x00000000000daca8       0xb0 /tmp/Shell.dll.2u1FF2.ltrans11.ltrans.o
 *(.bss .bss.*)
 .bss.AsciiRedirection
                0x00000000000dad58        0x1 /tmp/Shell.dll.2u1FF2.ltrans0.ltrans.o
                0x00000000000dad58                AsciiRedirection
 *fill*         0x00000000000dad59        0x7 
 .bss.ShellI2cDemoHiiHandle
                0x00000000000dad60        0x8 /tmp/Shell.dll.2u1FF2.ltrans0.ltrans.o
 .bss.gBS       0x00000000000dad68        0x8 /tmp/Shell.dll.2u1FF2.ltrans0.ltrans.o
                0x00000000000dad68                gBS
 .bss.gDS       0x00000000000dad70        0x8 /tmp/Shell.dll.2u1FF2.ltrans0.ltrans.o
 .bss.gEfiShellParametersProtocol
                0x00000000000dad78        0x8 /tmp/Shell.dll.2u1FF2.ltrans0.ltrans.o
                0x00000000000dad78                gEfiShellParametersProtocol
 .bss.gEfiShellProtocol
                0x00000000000dad80        0x8 /tmp/Shell.dll.2u1FF2.ltrans0.ltrans.o
                0x00000000000dad80                gEfiShellProtocol
 .bss.gHiiConfigRouting
                0x00000000000dad88        0x8 /tmp/Shell.dll.2u1FF2.ltrans0.ltrans.o
 .bss.gHiiDatabase
                0x00000000000dad90        0x8 /tmp/Shell.dll.2u1FF2.ltrans0.ltrans.o
                0x00000000000dad90                gHiiDatabase
 .bss.gHiiFont  0x00000000000dad98        0x8 /tmp/Shell.dll.2u1FF2.ltrans0.ltrans.o
 .bss.gHiiImage
                0x00000000000dada0        0x8 /tmp/Shell.dll.2u1FF2.ltrans0.ltrans.o
 .bss.gHiiString
                0x00000000000dada8        0x8 /tmp/Shell.dll.2u1FF2.ltrans0.ltrans.o
                0x00000000000dada8                gHiiString
 .bss.gImageHandle
                0x00000000000dadb0        0x8 /tmp/Shell.dll.2u1FF2.ltrans0.ltrans.o
                0x00000000000dadb0                gImageHandle
 .bss.gRT       0x00000000000dadb8        0x8 /tmp/Shell.dll.2u1FF2.ltrans0.ltrans.o
                0x00000000000dadb8                gRT
 .bss.gST       0x00000000000dadc0        0x8 /tmp/Shell.dll.2u1FF2.ltrans0.ltrans.o
                0x00000000000dadc0                gST
 .bss.gShellBcfgHiiHandle.lto_priv.0
                0x00000000000dadc8        0x8 /tmp/Shell.dll.2u1FF2.ltrans0.ltrans.o
                0x00000000000dadc8                gShellBcfgHiiHandle.lto_priv.0
 .bss.gShellCurMapping
                0x00000000000dadd0        0x8 /tmp/Shell.dll.2u1FF2.ltrans0.ltrans.o
                0x00000000000dadd0                gShellCurMapping
 .bss.gShellDebug1HiiHandle
                0x00000000000dadd8        0x8 /tmp/Shell.dll.2u1FF2.ltrans0.ltrans.o
                0x00000000000dadd8                gShellDebug1HiiHandle
 .bss.gShellDriver1HiiHandle
                0x00000000000dade0        0x8 /tmp/Shell.dll.2u1FF2.ltrans0.ltrans.o
                0x00000000000dade0                gShellDriver1HiiHandle
 .bss.gShellEnvVarList
                0x00000000000dade8       0x28 /tmp/Shell.dll.2u1FF2.ltrans0.ltrans.o
                0x00000000000dade8                gShellEnvVarList
 .bss.gShellLevel1HiiHandle
                0x00000000000dae10        0x8 /tmp/Shell.dll.2u1FF2.ltrans0.ltrans.o
                0x00000000000dae10                gShellLevel1HiiHandle
 .bss.gShellLevel2HiiHandle
                0x00000000000dae18        0x8 /tmp/Shell.dll.2u1FF2.ltrans0.ltrans.o
                0x00000000000dae18                gShellLevel2HiiHandle
 .bss.gShellLevel3HiiHandle
                0x00000000000dae20        0x8 /tmp/Shell.dll.2u1FF2.ltrans0.ltrans.o
                0x00000000000dae20                gShellLevel3HiiHandle
 .bss.gShellMapList
                0x00000000000dae28       0x30 /tmp/Shell.dll.2u1FF2.ltrans0.ltrans.o
                0x00000000000dae28                gShellMapList
 .bss.gShellSfHiiHandle
                0x00000000000dae58        0x8 /tmp/Shell.dll.2u1FF2.ltrans0.ltrans.o
 .bss.gUnicodeCollation
                0x00000000000dae60        0x8 /tmp/Shell.dll.2u1FF2.ltrans0.ltrans.o
                0x00000000000dae60                gUnicodeCollation
 .bss.mAliasList.lto_priv.0
                0x00000000000dae68       0x20 /tmp/Shell.dll.2u1FF2.ltrans0.ltrans.o
                0x00000000000dae68                mAliasList.lto_priv.0
 .bss.mCommandList.lto_priv.0
                0x00000000000dae88       0x40 /tmp/Shell.dll.2u1FF2.ltrans0.ltrans.o
                0x00000000000dae88                mCommandList.lto_priv.0
 .bss.mEchoState.lto_priv.0
                0x00000000000daec8        0x1 /tmp/Shell.dll.2u1FF2.ltrans0.ltrans.o
                0x00000000000daec8                mEchoState.lto_priv.0
 *fill*         0x00000000000daec9        0x7 
 .bss.mEfiShellEnvironment2
                0x00000000000daed0        0x8 /tmp/Shell.dll.2u1FF2.ltrans0.ltrans.o
                0x00000000000daed0                mEfiShellEnvironment2
 .bss.mEfiShellEnvironment2Handle
                0x00000000000daed8        0x8 /tmp/Shell.dll.2u1FF2.ltrans0.ltrans.o
                0x00000000000daed8                mEfiShellEnvironment2Handle
 .bss.mEfiShellInterface
                0x00000000000daee0        0x8 /tmp/Shell.dll.2u1FF2.ltrans0.ltrans.o
                0x00000000000daee0                mEfiShellInterface
 .bss.mExitCode.lto_priv.0
                0x00000000000daee8        0x8 /tmp/Shell.dll.2u1FF2.ltrans0.ltrans.o
                0x00000000000daee8                mExitCode.lto_priv.0
 .bss.mExitRequested.lto_priv.0
                0x00000000000daef0        0x1 /tmp/Shell.dll.2u1FF2.ltrans0.ltrans.o
                0x00000000000daef0                mExitRequested.lto_priv.0
 .bss.mExitScript.lto_priv.0
                0x00000000000daef1        0x1 /tmp/Shell.dll.2u1FF2.ltrans0.ltrans.o
                0x00000000000daef1                mExitScript.lto_priv.0
 *fill*         0x00000000000daef2        0x6 
 .bss.mFileHandleList.lto_priv.0
                0x00000000000daef8       0x18 /tmp/Shell.dll.2u1FF2.ltrans0.ltrans.o
                0x00000000000daef8                mFileHandleList.lto_priv.0
 .bss.mGuidList
                0x00000000000daf10        0x8 /tmp/Shell.dll.2u1FF2.ltrans0.ltrans.o
                0x00000000000daf10                mGuidList
 .bss.mGuidListCount
                0x00000000000daf18        0x8 /tmp/Shell.dll.2u1FF2.ltrans0.ltrans.o
                0x00000000000daf18                mGuidListCount
 .bss.mHandleParsingHiiHandle
                0x00000000000daf20        0x8 /tmp/Shell.dll.2u1FF2.ltrans0.ltrans.o
                0x00000000000daf20                mHandleParsingHiiHandle
 .bss.mHobList  0x00000000000daf28        0x8 /tmp/Shell.dll.2u1FF2.ltrans0.ltrans.o
 .bss.mProfileList.lto_priv.0
                0x00000000000daf30        0x8 /tmp/Shell.dll.2u1FF2.ltrans0.ltrans.o
                0x00000000000daf30                mProfileList.lto_priv.0
 .bss.mProfileListSize.lto_priv.0
                0x00000000000daf38        0x8 /tmp/Shell.dll.2u1FF2.ltrans0.ltrans.o
                0x00000000000daf38                mProfileListSize.lto_priv.0
 .bss.mScriptList.lto_priv.0
                0x00000000000daf40       0x18 /tmp/Shell.dll.2u1FF2.ltrans0.ltrans.o
                0x00000000000daf40                mScriptList.lto_priv.0
 .bss.mUnicodeCollationProtocol
                0x00000000000daf58        0x8 /tmp/Shell.dll.2u1FF2.ltrans0.ltrans.o
                0x00000000000daf58                mUnicodeCollationProtocol
 .bss.FileFunctionMap
                0x00000000000daf60       0x50 /tmp/Shell.dll.2u1FF2.ltrans1.ltrans.o
                0x00000000000daf60                FileFunctionMap
 .bss.mBlkMaxCount.lto_priv.0
                0x00000000000dafb0        0x8 /tmp/Shell.dll.2u1FF2.ltrans2.ltrans.o
                0x00000000000dafb0                mBlkMaxCount.lto_priv.0
 .bss.mFsMaxCount.lto_priv.0
                0x00000000000dafb8        0x8 /tmp/Shell.dll.2u1FF2.ltrans2.ltrans.o
                0x00000000000dafb8                mFsMaxCount.lto_priv.0
 .bss.mHandleList
                0x00000000000dafc0       0x28 /tmp/Shell.dll.2u1FF2.ltrans2.ltrans.o
                0x00000000000dafc0                mHandleList
 .bss.mUnicodeCollation
                0x00000000000dafe8        0x8 /tmp/Shell.dll.2u1FF2.ltrans2.ltrans.o
 .bss.gInReconnect
                0x00000000000daff0        0x1 /tmp/Shell.dll.2u1FF2.ltrans5.ltrans.o
 *fill*         0x00000000000daff1        0x7 
 .bss.ControlBasedMenuFunctions
                0x00000000000daff8        0x8 /tmp/Shell.dll.2u1FF2.ltrans6.ltrans.o
                0x00000000000daff8                ControlBasedMenuFunctions
 .bss.EditorExit
                0x00000000000db000        0x1 /tmp/Shell.dll.2u1FF2.ltrans6.ltrans.o
 .bss.EditorFirst
                0x00000000000db001        0x1 /tmp/Shell.dll.2u1FF2.ltrans6.ltrans.o
                0x00000000000db001                EditorFirst
 .bss.EditorMouseAction
                0x00000000000db002        0x1 /tmp/Shell.dll.2u1FF2.ltrans6.ltrans.o
                0x00000000000db002                EditorMouseAction
 *fill*         0x00000000000db003        0x5 
 .bss.FileBuffer
                0x00000000000db008       0x78 /tmp/Shell.dll.2u1FF2.ltrans6.ltrans.o
                0x00000000000db008                FileBuffer
 .bss.FileBufferBackupVar
                0x00000000000db080       0x78 /tmp/Shell.dll.2u1FF2.ltrans6.ltrans.o
                0x00000000000db080                FileBufferBackupVar
 .bss.FileBufferMouseNeedRefresh
                0x00000000000db0f8        0x1 /tmp/Shell.dll.2u1FF2.ltrans6.ltrans.o
                0x00000000000db0f8                FileBufferMouseNeedRefresh
 .bss.FileBufferNeedRefresh
                0x00000000000db0f9        0x1 /tmp/Shell.dll.2u1FF2.ltrans6.ltrans.o
                0x00000000000db0f9                FileBufferNeedRefresh
 .bss.FileBufferOnlyLineNeedRefresh
                0x00000000000db0fa        0x1 /tmp/Shell.dll.2u1FF2.ltrans6.ltrans.o
                0x00000000000db0fa                FileBufferOnlyLineNeedRefresh
 *fill*         0x00000000000db0fb        0x5 
 .bss.HBufferImage
                0x00000000000db100       0x78 /tmp/Shell.dll.2u1FF2.ltrans6.ltrans.o
                0x00000000000db100                HBufferImage
 .bss.HBufferImageBackupVar
                0x00000000000db178       0x78 /tmp/Shell.dll.2u1FF2.ltrans6.ltrans.o
                0x00000000000db178                HBufferImageBackupVar
 .bss.HBufferImageMouseNeedRefresh
                0x00000000000db1f0        0x1 /tmp/Shell.dll.2u1FF2.ltrans6.ltrans.o
                0x00000000000db1f0                HBufferImageMouseNeedRefresh
 .bss.HBufferImageNeedRefresh
                0x00000000000db1f1        0x1 /tmp/Shell.dll.2u1FF2.ltrans6.ltrans.o
                0x00000000000db1f1                HBufferImageNeedRefresh
 .bss.HBufferImageOnlyLineNeedRefresh
                0x00000000000db1f2        0x1 /tmp/Shell.dll.2u1FF2.ltrans6.ltrans.o
                0x00000000000db1f2                HBufferImageOnlyLineNeedRefresh
 *fill*         0x00000000000db1f3        0x5 
 .bss.HClipBoard
                0x00000000000db1f8       0x10 /tmp/Shell.dll.2u1FF2.ltrans6.ltrans.o
 .bss.HClipBoardConst
                0x00000000000db208       0x10 /tmp/Shell.dll.2u1FF2.ltrans6.ltrans.o
 .bss.HDiskImage
                0x00000000000db218       0x20 /tmp/Shell.dll.2u1FF2.ltrans6.ltrans.o
                0x00000000000db218                HDiskImage
 .bss.HDiskImageBackupVar
                0x00000000000db238       0x20 /tmp/Shell.dll.2u1FF2.ltrans6.ltrans.o
 .bss.HDiskImageConst
                0x00000000000db258       0x20 /tmp/Shell.dll.2u1FF2.ltrans6.ltrans.o
 .bss.HEditorExit
                0x00000000000db278        0x1 /tmp/Shell.dll.2u1FF2.ltrans6.ltrans.o
 .bss.HEditorFirst
                0x00000000000db279        0x1 /tmp/Shell.dll.2u1FF2.ltrans6.ltrans.o
                0x00000000000db279                HEditorFirst
 .bss.HEditorMouseAction
                0x00000000000db27a        0x1 /tmp/Shell.dll.2u1FF2.ltrans6.ltrans.o
                0x00000000000db27a                HEditorMouseAction
 *fill*         0x00000000000db27b        0x5 
 .bss.HFileImage
                0x00000000000db280       0x18 /tmp/Shell.dll.2u1FF2.ltrans6.ltrans.o
                0x00000000000db280                HFileImage
 .bss.HFileImageBackupVar
                0x00000000000db298       0x18 /tmp/Shell.dll.2u1FF2.ltrans6.ltrans.o
 .bss.HFileImageConst
                0x00000000000db2b0       0x78 /tmp/Shell.dll.2u1FF2.ltrans6.ltrans.o
 .bss.HMainEditor
                0x00000000000db328       0x50 /tmp/Shell.dll.2u1FF2.ltrans6.ltrans.o
                0x00000000000db328                HMainEditor
 .bss.HMainEditorBackupVar
                0x00000000000db378       0x50 /tmp/Shell.dll.2u1FF2.ltrans6.ltrans.o
                0x00000000000db378                HMainEditorBackupVar
 .bss.HMemImage
                0x00000000000db3c8       0x18 /tmp/Shell.dll.2u1FF2.ltrans6.ltrans.o
                0x00000000000db3c8                HMemImage
 .bss.HMemImageBackupVar
                0x00000000000db3e0       0x18 /tmp/Shell.dll.2u1FF2.ltrans6.ltrans.o
 .bss.HMemImageConst
                0x00000000000db3f8       0x18 /tmp/Shell.dll.2u1FF2.ltrans6.ltrans.o
 .bss.HOriginalColors
                0x00000000000db410        0x4 /tmp/Shell.dll.2u1FF2.ltrans6.ltrans.o
 *fill*         0x00000000000db414        0x4 
 .bss.HOriginalMode
                0x00000000000db418        0x8 /tmp/Shell.dll.2u1FF2.ltrans6.ltrans.o
 .bss.MainEditor
                0x00000000000db420       0x48 /tmp/Shell.dll.2u1FF2.ltrans6.ltrans.o
                0x00000000000db420                MainEditor
 .bss.OriginalColors
                0x00000000000db468        0x4 /tmp/Shell.dll.2u1FF2.ltrans6.ltrans.o
 *fill*         0x00000000000db46c        0x4 
 .bss.OriginalMode
                0x00000000000db470        0x8 /tmp/Shell.dll.2u1FF2.ltrans6.ltrans.o
 .bss.StatusBarNeedRefresh
                0x00000000000db478        0x1 /tmp/Shell.dll.2u1FF2.ltrans6.ltrans.o
                0x00000000000db478                StatusBarNeedRefresh
 *fill*         0x00000000000db479        0x7 
 .bss.StatusString
                0x00000000000db480        0x8 /tmp/Shell.dll.2u1FF2.ltrans6.ltrans.o
                0x00000000000db480                StatusString
 .bss.StatusStringChanged
                0x00000000000db488        0x1 /tmp/Shell.dll.2u1FF2.ltrans6.ltrans.o
                0x00000000000db488                StatusStringChanged
 *fill*         0x00000000000db489        0x7 
 .bss.StringSize
                0x00000000000db490        0x8 /tmp/Shell.dll.2u1FF2.ltrans6.ltrans.o
                0x00000000000db490                StringSize
 .bss.Title     0x00000000000db498        0x8 /tmp/Shell.dll.2u1FF2.ltrans6.ltrans.o
                0x00000000000db498                Title
 .bss.mPrompt   0x00000000000db4a0        0x8 /tmp/Shell.dll.2u1FF2.ltrans6.ltrans.o
                0x00000000000db4a0                mPrompt
 .bss.mReturnString
                0x00000000000db4a8        0x8 /tmp/Shell.dll.2u1FF2.ltrans6.ltrans.o
                0x00000000000db4a8                mReturnString
 .bss.mTextInEx
                0x00000000000db4b0        0x8 /tmp/Shell.dll.2u1FF2.ltrans6.ltrans.o
                0x00000000000db4b0                mTextInEx
 .bss.mConfigSpace
                0x00000000000db4b8        0x8 /tmp/Shell.dll.2u1FF2.ltrans7.ltrans.o
 .bss.CPos.0    0x00000000000db4c0        0x4 /tmp/Shell.dll.2u1FF2.ltrans8.ltrans.o
 *fill*         0x00000000000db4c4        0x4 
 .bss.MenuItems
                0x00000000000db4c8        0x8 /tmp/Shell.dll.2u1FF2.ltrans8.ltrans.o
                0x00000000000db4c8                MenuItems
 .bss.NumItems  0x00000000000db4d0        0x8 /tmp/Shell.dll.2u1FF2.ltrans8.ltrans.o
                0x00000000000db4d0                NumItems
 .bss.SmbiosMajorVersion
                0x00000000000db4d8        0x1 /tmp/Shell.dll.2u1FF2.ltrans8.ltrans.o
                0x00000000000db4d8                SmbiosMajorVersion
 .bss.SmbiosMinorVersion
                0x00000000000db4d9        0x1 /tmp/Shell.dll.2u1FF2.ltrans8.ltrans.o
                0x00000000000db4d9                SmbiosMinorVersion
 *fill*         0x00000000000db4da        0x6 
 .bss.SpiFlashProtocol
                0x00000000000db4e0        0x8 /tmp/Shell.dll.2u1FF2.ltrans8.ltrans.o
 .bss.m64Init   0x00000000000db4e8        0x1 /tmp/Shell.dll.2u1FF2.ltrans8.ltrans.o
 *fill*         0x00000000000db4e9        0x1 
 .bss.mAvail    0x00000000000db4ea        0x2 /tmp/Shell.dll.2u1FF2.ltrans8.ltrans.o
 .bss.mBitCount
                0x00000000000db4ec        0x4 /tmp/Shell.dll.2u1FF2.ltrans8.ltrans.o
 .bss.mBuf      0x00000000000db4f0        0x8 /tmp/Shell.dll.2u1FF2.ltrans8.ltrans.o
 .bss.mBufSiz   0x00000000000db4f8        0x4 /tmp/Shell.dll.2u1FF2.ltrans8.ltrans.o
 .bss.mCCode    0x00000000000db4fc      0x3fc /tmp/Shell.dll.2u1FF2.ltrans8.ltrans.o
 .bss.mCFreq    0x00000000000db8f8      0x7f6 /tmp/Shell.dll.2u1FF2.ltrans8.ltrans.o
 .bss.mCLen     0x00000000000dc0ee      0x1fe /tmp/Shell.dll.2u1FF2.ltrans8.ltrans.o
 *fill*         0x00000000000dc2ec        0x4 
 .bss.mChildCount
                0x00000000000dc2f0        0x8 /tmp/Shell.dll.2u1FF2.ltrans8.ltrans.o
 .bss.mCompSize
                0x00000000000dc2f8        0x4 /tmp/Shell.dll.2u1FF2.ltrans8.ltrans.o
 .bss.mCrc      0x00000000000dc2fc        0x4 /tmp/Shell.dll.2u1FF2.ltrans8.ltrans.o
 .bss.mCrcTable
                0x00000000000dc300      0x200 /tmp/Shell.dll.2u1FF2.ltrans8.ltrans.o
 .bss.mDst      0x00000000000dc500        0x8 /tmp/Shell.dll.2u1FF2.ltrans8.ltrans.o
 .bss.mDstUpperLimit
                0x00000000000dc508        0x8 /tmp/Shell.dll.2u1FF2.ltrans8.ltrans.o
 .bss.mFreq     0x00000000000dc510        0x8 /tmp/Shell.dll.2u1FF2.ltrans8.ltrans.o
 .bss.mHeap     0x00000000000dc518      0x3fe /tmp/Shell.dll.2u1FF2.ltrans8.ltrans.o
 *fill*         0x00000000000dc916        0x2 
 .bss.mHeapSize
                0x00000000000dc918        0x4 /tmp/Shell.dll.2u1FF2.ltrans8.ltrans.o
 .bss.mHuffmanDepth
                0x00000000000dc91c        0x4 /tmp/Shell.dll.2u1FF2.ltrans8.ltrans.o
 .bss.mInit     0x00000000000dc920        0x1 /tmp/Shell.dll.2u1FF2.ltrans8.ltrans.o
 *fill*         0x00000000000dc921        0x1 
 .bss.mLeft     0x00000000000dc922      0x7f6 /tmp/Shell.dll.2u1FF2.ltrans8.ltrans.o
 .bss.mLen      0x00000000000dd118        0x8 /tmp/Shell.dll.2u1FF2.ltrans8.ltrans.o
 .bss.mLenCnt   0x00000000000dd120       0x22 /tmp/Shell.dll.2u1FF2.ltrans8.ltrans.o
 *fill*         0x00000000000dd142        0x6 
 .bss.mLevel    0x00000000000dd148        0x8 /tmp/Shell.dll.2u1FF2.ltrans8.ltrans.o
 .bss.mMatchLen
                0x00000000000dd150        0x4 /tmp/Shell.dll.2u1FF2.ltrans8.ltrans.o
 .bss.mMatchPos
                0x00000000000dd154        0x2 /tmp/Shell.dll.2u1FF2.ltrans8.ltrans.o
 *fill*         0x00000000000dd156        0x2 
 .bss.mNext     0x00000000000dd158        0x8 /tmp/Shell.dll.2u1FF2.ltrans8.ltrans.o
 .bss.mNumberOfSmbios64BitStructures
                0x00000000000dd160        0x8 /tmp/Shell.dll.2u1FF2.ltrans8.ltrans.o
 .bss.mOrigSize
                0x00000000000dd168        0x4 /tmp/Shell.dll.2u1FF2.ltrans8.ltrans.o
 .bss.mOutputMask
                0x00000000000dd16c        0x4 /tmp/Shell.dll.2u1FF2.ltrans8.ltrans.o
 .bss.mOutputPos
                0x00000000000dd170        0x4 /tmp/Shell.dll.2u1FF2.ltrans8.ltrans.o
 .bss.mPFreq    0x00000000000dd174       0x36 /tmp/Shell.dll.2u1FF2.ltrans8.ltrans.o
 .bss.mPTCode   0x00000000000dd1aa       0x26 /tmp/Shell.dll.2u1FF2.ltrans8.ltrans.o
 .bss.mPTLen    0x00000000000dd1d0       0x13 /tmp/Shell.dll.2u1FF2.ltrans8.ltrans.o
 *fill*         0x00000000000dd1e3        0x5 
 .bss.mParent   0x00000000000dd1e8        0x8 /tmp/Shell.dll.2u1FF2.ltrans8.ltrans.o
 .bss.mPos      0x00000000000dd1f0        0x2 /tmp/Shell.dll.2u1FF2.ltrans8.ltrans.o
 *fill*         0x00000000000dd1f2        0x6 
 .bss.mPosition
                0x00000000000dd1f8        0x8 /tmp/Shell.dll.2u1FF2.ltrans8.ltrans.o
 .bss.mPrev     0x00000000000dd200        0x8 /tmp/Shell.dll.2u1FF2.ltrans8.ltrans.o
 .bss.mRemainder
                0x00000000000dd208        0x4 /tmp/Shell.dll.2u1FF2.ltrans8.ltrans.o
 .bss.mRight    0x00000000000dd20c      0x7f6 /tmp/Shell.dll.2u1FF2.ltrans8.ltrans.o
 *fill*         0x00000000000dda02        0x6 
 .bss.mSmbios64BitStatisticsTable
                0x00000000000dda08        0x8 /tmp/Shell.dll.2u1FF2.ltrans8.ltrans.o
 .bss.mSmbios64BitTable
                0x00000000000dda10        0x8 /tmp/Shell.dll.2u1FF2.ltrans8.ltrans.o
 .bss.mSmbios64BitTableLength
                0x00000000000dda18        0x8 /tmp/Shell.dll.2u1FF2.ltrans8.ltrans.o
 .bss.mSmbiosTable
                0x00000000000dda20        0x8 /tmp/Shell.dll.2u1FF2.ltrans8.ltrans.o
 .bss.mSortPtr  0x00000000000dda28        0x8 /tmp/Shell.dll.2u1FF2.ltrans8.ltrans.o
 .bss.mSrc      0x00000000000dda30        0x8 /tmp/Shell.dll.2u1FF2.ltrans8.ltrans.o
 .bss.mSrcUpperLimit
                0x00000000000dda38        0x8 /tmp/Shell.dll.2u1FF2.ltrans8.ltrans.o
 .bss.mStatisticsTable
                0x00000000000dda40        0x8 /tmp/Shell.dll.2u1FF2.ltrans8.ltrans.o
 .bss.mSubBitBuf
                0x00000000000dda48        0x4 /tmp/Shell.dll.2u1FF2.ltrans8.ltrans.o
 .bss.mTFreq    0x00000000000dda4c       0x4a /tmp/Shell.dll.2u1FF2.ltrans8.ltrans.o
 *fill*         0x00000000000dda96        0x2 
 .bss.mTempInt32
                0x00000000000dda98        0x4 /tmp/Shell.dll.2u1FF2.ltrans8.ltrans.o
 *fill*         0x00000000000dda9c        0x4 
 .bss.mText     0x00000000000ddaa0        0x8 /tmp/Shell.dll.2u1FF2.ltrans8.ltrans.o
 .bss.m_Smbios64BitStruct
                0x00000000000ddaa8        0x8 /tmp/Shell.dll.2u1FF2.ltrans8.ltrans.o
 .bss.m_SmbiosStruct
                0x00000000000ddab0        0x8 /tmp/Shell.dll.2u1FF2.ltrans8.ltrans.o
 .bss.mShellManDriverHandle
                0x00000000000ddab8        0x8 /tmp/Shell.dll.2u1FF2.ltrans9.ltrans.o
 .bss.mShellManHiiHandle
                0x00000000000ddac0        0x8 /tmp/Shell.dll.2u1FF2.ltrans9.ltrans.o

.igot.plt       0x00000000000ddac8        0x0
 .igot.plt      0x00000000000ddac8        0x0 /tmp/Shell.dll.2u1FF2.ltrans0.ltrans.o

.eh_frame
 *(.eh_frame)

.rela           0x00000000000ddac8        0x0
 *(.rela .rela.*)
 .rela.iplt     0x00000000000ddac8        0x0 /tmp/Shell.dll.2u1FF2.ltrans0.ltrans.o

.hii
 *(.hii)

.build-id
 *(.note.gnu.build-id)

/DISCARD/
 *(.note.GNU-stack)
 *(.gnu_debuglink)
 *(.interp)
 *(.dynsym)
 *(.dynstr)
 *(.dynamic)
 *(.hash .gnu.hash)
 *(.comment)
                0x0000000000000228                PECOFF_HEADER_SIZE = 0x228
OUTPUT(/home/daijh/sdk/rk3588/uefi/Build/RK3588/DEBUG_GCC5/AARCH64/ShellPkg/Application/Shell/Shell/DEBUG/Shell.dll elf64-littleaarch64)
LOAD linker stubs

.debug_info     0x0000000000000000   0x188f7e
 .debug_info    0x0000000000000000     0xd90a /tmp/Shell.dll.2u1FF2.ltrans0.ltrans.o
 .debug_info    0x000000000000d90a    0x10f94 /tmp/Shell.dll.2u1FF2.ltrans1.ltrans.o
 .debug_info    0x000000000001e89e     0xaedd /tmp/Shell.dll.2u1FF2.ltrans2.ltrans.o
 .debug_info    0x000000000002977b     0x9dfb /tmp/Shell.dll.2u1FF2.ltrans3.ltrans.o
 .debug_info    0x0000000000033576     0x9064 /tmp/Shell.dll.2u1FF2.ltrans4.ltrans.o
 .debug_info    0x000000000003c5da     0xa28f /tmp/Shell.dll.2u1FF2.ltrans5.ltrans.o
 .debug_info    0x0000000000046869     0x8c60 /tmp/Shell.dll.2u1FF2.ltrans6.ltrans.o
 .debug_info    0x000000000004f4c9     0xa57c /tmp/Shell.dll.2u1FF2.ltrans7.ltrans.o
 .debug_info    0x0000000000059a45     0xa776 /tmp/Shell.dll.2u1FF2.ltrans8.ltrans.o
 .debug_info    0x00000000000641bb     0x9f31 /tmp/Shell.dll.2u1FF2.ltrans9.ltrans.o
 .debug_info    0x000000000006e0ec      0xb34 /tmp/Shell.dll.2u1FF2.ltrans10.ltrans.o
 .debug_info    0x000000000006ec20     0xdbef /tmp/Shell.dll.2u1FF2.ltrans11.ltrans.o
 .debug_info    0x000000000007c80f     0x4717 /tmp/Shell.dll.2u1FF2.ltrans12.ltrans.o
 .debug_info    0x0000000000080f26       0xb0 /tmp/cckeOcZW.debug.temp.o
                0x0000000000080f26                BaseStackCheckGcc.c.4b3a57a0
 .debug_info    0x0000000000080fd6      0x100 /tmp/ccyE8yb5.debug.temp.o
                0x0000000000080fd6                memcpy.c.124218b3
 .debug_info    0x00000000000810d6       0xb1 /tmp/ccwIDzdM.debug.temp.o
                0x00000000000810d6                memset.c.fe78e419
 .debug_info    0x0000000000081187     0x1815 /tmp/ccxfCgUK.debug.temp.o
                0x0000000000081187                ApplicationEntryPoint.c.bec7860d
 .debug_info    0x000000000008299c     0x374c /tmp/ccJtHqNq.debug.temp.o
                0x000000000008299c                AutoGen.c.079326d7
 .debug_info    0x00000000000860e8     0x4123 /tmp/ccNs3PSG.debug.temp.o
                0x00000000000860e8                Shell.c.05884688
 .debug_info    0x000000000008a20b     0x32cd /tmp/ccXSirDj.debug.temp.o
                0x000000000008a20b                ShellParametersProtocol.c.266f7aee
 .debug_info    0x000000000008d4d8     0x43d3 /tmp/ccZbDIhM.debug.temp.o
                0x000000000008d4d8                ShellProtocol.c.54b5f8d1
 .debug_info    0x00000000000918ab     0x3968 /tmp/ccayEk2f.debug.temp.o
                0x00000000000918ab                FileHandleWrappers.c.b12857a2
 .debug_info    0x0000000000095213      0xb48 /tmp/ccnXKA7J.debug.temp.o
                0x0000000000095213                ShellEnvVar.c.11feac17
 .debug_info    0x0000000000095d5b     0x28a3 /tmp/cc1u43m7.debug.temp.o
                0x0000000000095d5b                ShellManParser.c.ccf4adef
 .debug_info    0x00000000000985fe     0x2f03 /tmp/ccNYchgj.debug.temp.o
                0x00000000000985fe                ConsoleLogger.c.5e9376d4
 .debug_info    0x000000000009b501     0x2547 /tmp/ccRhbWpE.debug.temp.o
                0x000000000009b501                ConsoleWrappers.c.e0a2068d
 .debug_info    0x000000000009da48      0x1d0 /tmp/ccMF8bbA.debug.temp.o
                0x000000000009da48                MemLibGuid.c.0abd8b36
 .debug_info    0x000000000009dc18       0xaf /tmp/cceWWQaF.debug.temp.o
                0x000000000009dc18                ZeroMemWrapper.c.0fd9aaec
 .debug_info    0x000000000009dcc7       0xc7 /tmp/ccW7MAbQ.debug.temp.o
                0x000000000009dcc7                SetMem16Wrapper.c.57d1986f
 .debug_info    0x000000000009dd8e      0x108 /tmp/ccUNwzbi.debug.temp.o
                0x000000000009dd8e                SetMemWrapper.c.78af0a5b
 .debug_info    0x000000000009de96       0xc6 /tmp/ccr8YQHk.debug.temp.o
                0x000000000009de96                CopyMemWrapper.c.5220106c
 .debug_info    0x000000000009df5c      0x328 /tmp/cctFtvAD.debug.temp.o
                0x000000000009df5c                LinkedList.c.b8b68687
 .debug_info    0x000000000009e284      0xf83 /tmp/cc3yElty.debug.temp.o
                0x000000000009e284                SafeString.c.1b674302
 .debug_info    0x000000000009f207      0x711 /tmp/cc35w3fR.debug.temp.o
                0x000000000009f207                String.c.8e83c025
 .debug_info    0x000000000009f918       0xdc /tmp/cciVDaRT.debug.temp.o
                0x000000000009f918                FilePaths.c.a8c73d2a
 .debug_info    0x000000000009f9f4       0xad /tmp/ccwaEZCF.debug.temp.o
                0x000000000009f9f4                SwapBytes32.c.82c5a0d5
 .debug_info    0x000000000009faa1       0xad /tmp/cccAhlov.debug.temp.o
                0x000000000009faa1                RShiftU64.c.13f7cf48
 .debug_info    0x000000000009fb4e       0xad /tmp/ccJiTQsc.debug.temp.o
                0x000000000009fb4e                MultU64x32.c.35a86048
 .debug_info    0x000000000009fbfb       0xad /tmp/cc3Cgdjs.debug.temp.o
                0x000000000009fbfb                LShiftU64.c.d5f1ff37
 .debug_info    0x000000000009fca8       0xad /tmp/cce9amdU.debug.temp.o
                0x000000000009fca8                DivU64x32.c.e876f75d
 .debug_info    0x000000000009fd55      0x30e /tmp/ccFEK5hd.debug.temp.o
                0x000000000009fd55                Math64.c.df2e98ae
 .debug_info    0x00000000000a0063      0x5ad /tmp/ccdXF3pj.debug.temp.o
                0x00000000000a0063                PrintLib.c.b75a7535
 .debug_info    0x00000000000a0610      0x753 /tmp/ccRcOvi6.debug.temp.o
                0x00000000000a0610                PrintLibInternal.c.b254bcc3
 .debug_info    0x00000000000a0d63      0x32b /tmp/ccwPzxuK.debug.temp.o
                0x00000000000a0d63                DebugLib.c.b228dbcd
 .debug_info    0x00000000000a108e     0x17cd /tmp/ccEmAJML.debug.temp.o
                0x00000000000a108e                UefiBootServicesTableLib.c.40f3e47d
 .debug_info    0x00000000000a285b     0x13a8 /tmp/ccQgPe7V.debug.temp.o
                0x00000000000a285b                MemoryAllocationLib.c.3e4a7161
 .debug_info    0x00000000000a3c03      0x5bc /tmp/ccVFYhXy.debug.temp.o
                0x00000000000a3c03                DevicePathUtilities.c.b90c247c
 .debug_info    0x00000000000a41bf      0xec3 /tmp/cc93GIwh.debug.temp.o
                0x00000000000a41bf                DevicePathUtilitiesDxeSmm.c.1206e153
 .debug_info    0x00000000000a5082      0x305 /tmp/ccGSsxCD.debug.temp.o
                0x00000000000a5082                UefiDevicePathLib.c.bbabffea
 .debug_info    0x00000000000a5387     0x2675 /tmp/cc4wwVkf.debug.temp.o
                0x00000000000a5387                DevicePathToText.c.84f533a7
 .debug_info    0x00000000000a79fc     0x2ef9 /tmp/ccWUmbbn.debug.temp.o
                0x00000000000a79fc                DevicePathFromText.c.132ad44d
 .debug_info    0x00000000000aa8f5     0x179e /tmp/cctem4R6.debug.temp.o
                0x00000000000aa8f5                UefiRuntimeServicesTableLib.c.90bd0d28
 .debug_info    0x00000000000ac093     0x2832 /tmp/ccUOrdH6.debug.temp.o
                0x00000000000ac093                UefiHiiServicesLib.c.60c1a6cc
 .debug_info    0x00000000000ae8c5     0x2543 /tmp/ccFmn6tW.debug.temp.o
                0x00000000000ae8c5                UefiLib.c.33a327e5
 .debug_info    0x00000000000b0e08     0x11bd /tmp/cchSJcUw.debug.temp.o
                0x00000000000b0e08                UefiSortLib.c.48607936
 .debug_info    0x00000000000b1fc5     0x3bd7 /tmp/ccxPOkKb.debug.temp.o
                0x00000000000b1fc5                HiiLib.c.b28fbabb
 .debug_info    0x00000000000b5b9c      0x562 /tmp/ccrcc787.debug.temp.o
                0x00000000000b5b9c                HiiString.c.bee056df
 .debug_info    0x00000000000b60fe      0x390 /tmp/ccJsyO4J.debug.temp.o
                0x00000000000b60fe                HiiLanguage.c.4036365e
 .debug_info    0x00000000000b648e      0xcab /tmp/ccO0IlVZ.debug.temp.o
                0x00000000000b648e                UefiFileHandleLib.c.7a2c5e4c
 .debug_info    0x00000000000b7139     0x1d1f /tmp/cc1dPjAl.debug.temp.o
                0x00000000000b7139                DxeServicesTableLib.c.e0fa1909
 .debug_info    0x00000000000b8e58     0x216f /tmp/ccd3AH3g.debug.temp.o
                0x00000000000b8e58                HobLib.c.0efe7e83
 .debug_info    0x00000000000bafc7     0x480d /tmp/ccyP5noS.debug.temp.o
                0x00000000000bafc7                UefiShellLib.c.b2622eaa
 .debug_info    0x00000000000bf7d4     0x768a /tmp/ccTtqDlJ.debug.temp.o
                0x00000000000bf7d4                UefiHandleParsingLib.c.fb4f20e3
 .debug_info    0x00000000000c6e5e       0x99 /tmp/ccmxUVkQ.debug.temp.o
                0x00000000000c6e5e                AutoGen.c.1f977cf6
 .debug_info    0x00000000000c6ef7     0x389d /tmp/ccl5PHsX.debug.temp.o
                0x00000000000c6ef7                UefiShellCommandLib.c.76fd8101
 .debug_info    0x00000000000ca794     0x3c74 /tmp/cc9wEKB4.debug.temp.o
                0x00000000000ca794                ConsistMapping.c.1976b6da
 .debug_info    0x00000000000ce408     0x2527 /tmp/ccp0dghG.debug.temp.o
                0x00000000000ce408                UefiShellLevel2CommandsLib.c.c8f31bc1
 .debug_info    0x00000000000d092f     0x1ee0 /tmp/ccm8cuFo.debug.temp.o
                0x00000000000d092f                TimeDate.c.e41de1a8
 .debug_info    0x00000000000d280f     0x24d6 /tmp/ccX2rXnQ.debug.temp.o
                0x00000000000d280f                Load.c.7c0f4f80
 .debug_info    0x00000000000d4ce5     0x2c0e /tmp/ccXOsAAV.debug.temp.o
                0x00000000000d4ce5                Ls.c.9996e42c
 .debug_info    0x00000000000d78f3     0x2d40 /tmp/cchw8UyS.debug.temp.o
                0x00000000000d78f3                Map.c.8d7cdcdc
 .debug_info    0x00000000000da633     0x19e4 /tmp/ccNxBZMv.debug.temp.o
                0x00000000000da633                Reset.c.18ee1851
 .debug_info    0x00000000000dc017     0x236b /tmp/cc2t4z1w.debug.temp.o
                0x00000000000dc017                Set.c.c00fa754
 .debug_info    0x00000000000de382     0x2364 /tmp/ccg1iUXG.debug.temp.o
                0x00000000000de382                MkDir.c.3753f8a4
 .debug_info    0x00000000000e06e6     0x2457 /tmp/ccDMhf0l.debug.temp.o
                0x00000000000e06e6                Cd.c.025cffa1
 .debug_info    0x00000000000e2b3d     0x2a27 /tmp/cclhLAgF.debug.temp.o
                0x00000000000e2b3d                Cp.c.d961ce03
 .debug_info    0x00000000000e5564     0x24e2 /tmp/ccr3XiuJ.debug.temp.o
                0x00000000000e5564                Parse.c.5dfce973
 .debug_info    0x00000000000e7a46     0x26af /tmp/ccM2LQnN.debug.temp.o
                0x00000000000e7a46                Rm.c.1d3b4131
 .debug_info    0x00000000000ea0f5     0x2067 /tmp/ccUJxCjJ.debug.temp.o
                0x00000000000ea0f5                Mv.c.eb829367
 .debug_info    0x00000000000ec15c     0x239f /tmp/ccLZNGdW.debug.temp.o
                0x00000000000ec15c                Attrib.c.093d9469
 .debug_info    0x00000000000ee4fb     0x27be /tmp/ccPP3Clc.debug.temp.o
                0x00000000000ee4fb                Vol.c.6768a459
 .debug_info    0x00000000000f0cb9       0x9a /tmp/ccIf4u1Y.debug.temp.o
                0x00000000000f0cb9                AutoGen.c.37963058
 .debug_info    0x00000000000f0d53     0x1c8e /tmp/ccqjGy5G.debug.temp.o
                0x00000000000f0d53                UefiShellLevel1CommandsLib.c.e2dc4570
 .debug_info    0x00000000000f29e1     0x2342 /tmp/cczL9nUl.debug.temp.o
                0x00000000000f29e1                Exit.c.f84cf9d3
 .debug_info    0x00000000000f4d23     0x2419 /tmp/ccMjqYcA.debug.temp.o
                0x00000000000f4d23                Goto.c.d4cb6add
 .debug_info    0x00000000000f713c     0x2944 /tmp/ccDSEB36.debug.temp.o
                0x00000000000f713c                If.c.7d8be8e4
 .debug_info    0x00000000000f9a80     0x27e1 /tmp/ccjNq4jj.debug.temp.o
                0x00000000000f9a80                For.c.39e80aeb
 .debug_info    0x00000000000fc261     0x2350 /tmp/ccJDJS64.debug.temp.o
                0x00000000000fc261                Shift.c.8164456d
 .debug_info    0x00000000000fe5b1     0x1985 /tmp/ccl8ek57.debug.temp.o
                0x00000000000fe5b1                Stall.c.b668721f
 .debug_info    0x00000000000fff36       0x98 /tmp/ccNxjsbq.debug.temp.o
                0x00000000000fff36                AutoGen.c.fe9a4b20
 .debug_info    0x00000000000fffce     0x1857 /tmp/ccnXo894.debug.temp.o
                0x00000000000fffce                UefiShellLevel3CommandsLib.c.f274c39c
 .debug_info    0x0000000000101825     0x19c2 /tmp/ccv92q1v.debug.temp.o
                0x0000000000101825                Cls.c.1f1f2cbc
 .debug_info    0x00000000001031e7     0x2441 /tmp/ccy9Eo2l.debug.temp.o
                0x00000000001031e7                Alias.c.6661d32b
 .debug_info    0x0000000000105628     0x199f /tmp/cc5B5wbg.debug.temp.o
                0x0000000000105628                Echo.c.c4611669
 .debug_info    0x0000000000106fc7     0x23c7 /tmp/cc7dQci2.debug.temp.o
                0x0000000000106fc7                Pause.c.ae8fdf3d
 .debug_info    0x000000000010938e     0x1985 /tmp/ccVZVBwK.debug.temp.o
                0x000000000010938e                GetMtc.c.5298d3cf
 .debug_info    0x000000000010ad13     0x27d8 /tmp/cc4jXU7d.debug.temp.o
                0x000000000010ad13                Help.c.bb4e2e57
 .debug_info    0x000000000010d4eb       0x98 /tmp/ccNxpQr5.debug.temp.o
                0x000000000010d4eb                AutoGen.c.3ea7bc3b
 .debug_info    0x000000000010d583     0x1b9b /tmp/ccosi93o.debug.temp.o
                0x000000000010d583                Type.c.fa96836f
 .debug_info    0x000000000010f11e     0x240b /tmp/ccDqCtJy.debug.temp.o
                0x000000000010f11e                Touch.c.4969fa1e
 .debug_info    0x0000000000111529     0x238b /tmp/ccxQZgXW.debug.temp.o
                0x0000000000111529                Ver.c.96e88ab7
 .debug_info    0x00000000001138b4     0x186b /tmp/ccVZR4YS.debug.temp.o
                0x00000000001138b4                UefiShellDriver1CommandsLib.c.9d6d21c4
 .debug_info    0x000000000011511f       0x98 /tmp/cc21Kipz.debug.temp.o
                0x000000000011511f                AutoGen.c.1db59d40
 .debug_info    0x00000000001151b7     0x2170 /tmp/ccuNcGM3.debug.temp.o
                0x00000000001151b7                Connect.c.c6d9399f
 .debug_info    0x0000000000117327     0x24a6 /tmp/ccQts16C.debug.temp.o
                0x0000000000117327                Devices.c.82746ea7
 .debug_info    0x00000000001197cd     0x1acf /tmp/ccDUsDVJ.debug.temp.o
                0x00000000001197cd                OpenInfo.c.e907bbc5
 .debug_info    0x000000000011b29c     0x1a57 /tmp/ccvmA2U8.debug.temp.o
                0x000000000011b29c                Disconnect.c.ca6644f1
 .debug_info    0x000000000011ccf3     0x1993 /tmp/ccuUQXDN.debug.temp.o
                0x000000000011ccf3                Reconnect.c.8c5f50a0
 .debug_info    0x000000000011e686     0x1a84 /tmp/cc1fnr3d.debug.temp.o
                0x000000000011e686                Unload.c.b25aecbf
 .debug_info    0x000000000012010a     0x1d4f /tmp/ccK4RAoA.debug.temp.o
                0x000000000012010a                DrvDiag.c.3373fdbc
 .debug_info    0x0000000000121e59     0x2e94 /tmp/ccDgc1rI.debug.temp.o
                0x0000000000121e59                Dh.c.3e91973a
 .debug_info    0x0000000000124ced     0x2abc /tmp/ccrt2Odg.debug.temp.o
                0x0000000000124ced                Drivers.c.07d9227e
 .debug_info    0x00000000001277a9     0x2486 /tmp/cc3IBqEu.debug.temp.o
                0x00000000001277a9                DevTree.c.316706c6
 .debug_info    0x0000000000129c2f     0x253f /tmp/ccoLVqQT.debug.temp.o
                0x0000000000129c2f                DrvCfg.c.86b44cb7
 .debug_info    0x000000000012c16e     0x1ad5 /tmp/ccsIViIC.debug.temp.o
                0x000000000012c16e                UefiShellDebug1CommandsLib.c.a5f76c2a
 .debug_info    0x000000000012dc43     0x2976 /tmp/ccgjecB1.debug.temp.o
                0x000000000012dc43                Edit.c.cd5f196c
 .debug_info    0x00000000001305b9     0x2cb9 /tmp/ccR6xuav.debug.temp.o
                0x00000000001305b9                FileBuffer.c.2b6f4fae
 .debug_info    0x0000000000133272     0x242a /tmp/ccZUlp7d.debug.temp.o
                0x0000000000133272                MainTextEditor.c.f7b6bbd5
 .debug_info    0x000000000013569c      0x1c2 /tmp/ccUOmVvX.debug.temp.o
                0x000000000013569c                Misc.c.713d3c05
 .debug_info    0x000000000013585e     0x23bd /tmp/ccbHKq7Y.debug.temp.o
                0x000000000013585e                HexEdit.c.f5aa21a0
 .debug_info    0x0000000000137c1b     0x26db /tmp/cc5puZL7.debug.temp.o
                0x0000000000137c1b                MainHexEditor.c.462b5884
 .debug_info    0x000000000013a2f6      0xac4 /tmp/cc0ZBMtB.debug.temp.o
                0x000000000013a2f6                Misc.c.395407af
 .debug_info    0x000000000013adba       0x9b /tmp/cctaeyEl.debug.temp.o
                0x000000000013adba                AutoGen.c.2d9b618f
 .debug_info    0x000000000013ae55     0x19b4 /tmp/ccTX97Lt.debug.temp.o
                0x000000000013ae55                SetSize.c.3964ac38
 .debug_info    0x000000000013c809     0x2731 /tmp/ccvHkmAt.debug.temp.o
                0x000000000013c809                Comp.c.b368c03c
 .debug_info    0x000000000013ef3a     0x19d8 /tmp/ccOPy7Am.debug.temp.o
                0x000000000013ef3a                Mode.c.ca730816
 .debug_info    0x0000000000140912     0x1e2d /tmp/ccRDiCfQ.debug.temp.o
                0x0000000000140912                MemMap.c.df064ab3
 .debug_info    0x000000000014273f     0x23a0 /tmp/ccmURXSA.debug.temp.o
                0x000000000014273f                EfiCompress.c.074abffe
 .debug_info    0x0000000000144adf     0x248a /tmp/ccUC1iP3.debug.temp.o
                0x0000000000144adf                EfiDecompress.c.302a2688
 .debug_info    0x0000000000146f69     0x1ec1 /tmp/ccLZibxj.debug.temp.o
                0x0000000000146f69                Dmem.c.abea6291
 .debug_info    0x0000000000148e2a     0x2744 /tmp/cctqi5BG.debug.temp.o
                0x0000000000148e2a                LoadPciRom.c.15200a99
 .debug_info    0x000000000014b56e     0x2c92 /tmp/cc7gZXBF.debug.temp.o
                0x000000000014b56e                Mm.c.cbc7bcdb
 .debug_info    0x000000000014e200     0x1bc8 /tmp/ccyfYjKF.debug.temp.o
                0x000000000014e200                SetVar.c.ad719f98
 .debug_info    0x000000000014fdc8     0x1d27 /tmp/cccv01My.debug.temp.o
                0x000000000014fdc8                SerMode.c.4a997b28
 .debug_info    0x0000000000151aef     0x514c /tmp/ccVPpByB.debug.temp.o
                0x0000000000151aef                Pci.c.a41b7420
 .debug_info    0x0000000000156c3b     0x2cbf /tmp/cc5Z8osv.debug.temp.o
                0x0000000000156c3b                DmpStore.c.e16bae1e
 .debug_info    0x00000000001598fa     0x25db /tmp/ccTdKUGt.debug.temp.o
                0x00000000001598fa                Dblk.c.c315be20
 .debug_info    0x000000000015bed5     0x4dc0 /tmp/ccPjMNaY.debug.temp.o
                0x000000000015bed5                SmbiosView.c.65f71246
 .debug_info    0x0000000000160c95     0x336e /tmp/ccXLOhYy.debug.temp.o
                0x0000000000160c95                LibSmbiosView.c.599daffe
 .debug_info    0x0000000000164003     0x191c /tmp/ccCo2DLi.debug.temp.o
                0x0000000000164003                EditTitleBar.c.999de668
 .debug_info    0x000000000016591f     0x1b8e /tmp/ccJHJfM2.debug.temp.o
                0x000000000016591f                EditInputBar.c.79a6020e
 .debug_info    0x00000000001674ad     0x18ce /tmp/ccWFG3mc.debug.temp.o
                0x00000000001674ad                EditStatusBar.c.7aa1576f
 .debug_info    0x0000000000168d7b      0x368 /tmp/ccwEY2Uz.debug.temp.o
                0x0000000000168d7b                EditMenuBar.c.618f7378
 .debug_info    0x00000000001690e3     0x2b94 /tmp/ccnnyznw.debug.temp.o
                0x00000000001690e3                BufferImage.c.68c127d3
 .debug_info    0x000000000016bc77      0x15f /tmp/ccw0qt3u.debug.temp.o
                0x000000000016bc77                Clipboard.c.b6c82b71
 .debug_info    0x000000000016bdd6     0x24fd /tmp/ccsy1v3u.debug.temp.o
                0x000000000016bdd6                DiskImage.c.9175af2d
 .debug_info    0x000000000016e2d3      0xaf1 /tmp/cclMPEBV.debug.temp.o
                0x000000000016e2d3                FileImage.c.c652b8c2
 .debug_info    0x000000000016edc4     0x181e /tmp/ccEPirrB.debug.temp.o
                0x000000000016edc4                MemImage.c.372c0aa7
 .debug_info    0x00000000001705e2      0x9fe /tmp/cctUqyp0.debug.temp.o
                0x00000000001705e2                Compress.c.13104429
 .debug_info    0x0000000000170fe0     0x3bc5 /tmp/cceW9kmV.debug.temp.o
                0x0000000000170fe0                PrintInfo.c.be8b55d9
 .debug_info    0x0000000000174ba5     0x1a68 /tmp/cc9v9I1V.debug.temp.o
                0x0000000000174ba5                QueryTable.c.a089eb75
 .debug_info    0x000000000017660d      0x396 /tmp/ccmQczTa.debug.temp.o
                0x000000000017660d                EventLogInfo.c.94bf21f7
 .debug_info    0x00000000001769a3     0x17cc /tmp/ccl0Q6Sl.debug.temp.o
                0x00000000001769a3                UefiShellInstall1CommandsLib.c.b21b2293
 .debug_info    0x000000000017816f     0x1c66 /tmp/ccuVRx86.debug.temp.o
                0x000000000017816f                I2cDemoTest.c.efb208c9
 .debug_info    0x0000000000179dd5       0x98 /tmp/ccXwClf2.debug.temp.o
                0x0000000000179dd5                AutoGen.c.6c91a03b
 .debug_info    0x0000000000179e6d     0x1cc1 /tmp/ccp6m6Sd.debug.temp.o
                0x0000000000179e6d                SpiFlashCmd.c.c86f8526
 .debug_info    0x000000000017bb2e       0x98 /tmp/ccfatnaC.debug.temp.o
                0x000000000017bb2e                AutoGen.c.29efd710
 .debug_info    0x000000000017bbc6       0xdc /tmp/ccAtDMIS.debug.temp.o
                0x000000000017bbc6                CompareMemWrapper.c.32802e29
 .debug_info    0x000000000017bca2       0x89 /tmp/ccVNoey6.debug.temp.o
                0x000000000017bca2                SwapBytes64.c.dde2b40b
 .debug_info    0x000000000017bd2b       0xa1 /tmp/ccURFV6K.debug.temp.o
                0x000000000017bd2b                MultU64x64.c.e790b77c
 .debug_info    0x000000000017bdcc       0xad /tmp/cccdd55R.debug.temp.o
                0x000000000017bdcc                ModU64x32.c.0b294b5a
 .debug_info    0x000000000017be79       0xc3 /tmp/ccnHZRvv.debug.temp.o
                0x000000000017be79                DivU64x32Remainder.c.99a75392
 .debug_info    0x000000000017bf3c      0x238 /tmp/ccqWdb1W.debug.temp.o
                0x000000000017bf3c                Unaligned.c.a40271e9
 .debug_info    0x000000000017c174      0x4eb /tmp/cc71aMtw.debug.temp.o
                0x000000000017c174                IoLibNoIo.c.373e17b9
 .debug_info    0x000000000017c65f      0x277 /tmp/cc9z0B30.debug.temp.o
                0x000000000017c65f                SerialPortLib.c.bf19079b
 .debug_info    0x000000000017c8d6     0x2509 /tmp/ccLNPifb.debug.temp.o
                0x000000000017c8d6                UefiLibPrint.c.728e56a7
 .debug_info    0x000000000017eddf     0x1973 /tmp/cco7ushN.debug.temp.o
                0x000000000017eddf                UefiNotTiano.c.c7615668
 .debug_info    0x0000000000180752      0xa00 /tmp/ccB61hEj.debug.temp.o
                0x0000000000180752                PeCoffGetEntryPoint.c.e16aa00a
 .debug_info    0x0000000000181152      0x694 /tmp/ccbDiLWw.debug.temp.o
                0x0000000000181152                BaseOrderedCollectionRedBlackTreeLib.c.485c702b
 .debug_info    0x00000000001817e6     0x316e /tmp/ccAgvmth.debug.temp.o
                0x00000000001817e6                UefiShellBcfgCommandLib.c.b3389db4
 .debug_info    0x0000000000184954       0x98 /tmp/ccms9RGy.debug.temp.o
                0x0000000000184954                AutoGen.c.77982f2c
 .debug_info    0x00000000001849ec      0x2d3 /tmp/cc1A1R4v.debug.temp.o
                0x00000000001849ec                UartLib.c.db43ab4c
 .debug_info    0x0000000000184cbf     0x2a8d /tmp/cc23Zg35.debug.temp.o
                0x0000000000184cbf                BmLoadOption.c.eae0a1d9
 .debug_info    0x000000000018774c     0x1832 /tmp/ccTTFipc.debug.temp.o
                0x000000000018774c                BmMisc.c.0713daab

.debug_abbrev   0x0000000000000000    0x12adf
 .debug_abbrev  0x0000000000000000      0x24c /tmp/Shell.dll.2u1FF2.ltrans0.ltrans.o
 .debug_abbrev  0x000000000000024c      0x2a5 /tmp/Shell.dll.2u1FF2.ltrans1.ltrans.o
 .debug_abbrev  0x00000000000004f1      0x221 /tmp/Shell.dll.2u1FF2.ltrans2.ltrans.o
 .debug_abbrev  0x0000000000000712      0x211 /tmp/Shell.dll.2u1FF2.ltrans3.ltrans.o
 .debug_abbrev  0x0000000000000923      0x1b1 /tmp/Shell.dll.2u1FF2.ltrans4.ltrans.o
 .debug_abbrev  0x0000000000000ad4      0x1e7 /tmp/Shell.dll.2u1FF2.ltrans5.ltrans.o
 .debug_abbrev  0x0000000000000cbb      0x276 /tmp/Shell.dll.2u1FF2.ltrans6.ltrans.o
 .debug_abbrev  0x0000000000000f31      0x1d3 /tmp/Shell.dll.2u1FF2.ltrans7.ltrans.o
 .debug_abbrev  0x0000000000001104      0x282 /tmp/Shell.dll.2u1FF2.ltrans8.ltrans.o
 .debug_abbrev  0x0000000000001386      0x2b5 /tmp/Shell.dll.2u1FF2.ltrans9.ltrans.o
 .debug_abbrev  0x000000000000163b      0x11c /tmp/Shell.dll.2u1FF2.ltrans10.ltrans.o
 .debug_abbrev  0x0000000000001757      0x159 /tmp/Shell.dll.2u1FF2.ltrans11.ltrans.o
 .debug_abbrev  0x00000000000018b0      0x22d /tmp/Shell.dll.2u1FF2.ltrans12.ltrans.o
 .debug_abbrev  0x0000000000001add       0x87 /tmp/cckeOcZW.debug.temp.o
 .debug_abbrev  0x0000000000001b64       0xa4 /tmp/ccyE8yb5.debug.temp.o
 .debug_abbrev  0x0000000000001c08       0x76 /tmp/ccwIDzdM.debug.temp.o
 .debug_abbrev  0x0000000000001c7e      0x1e4 /tmp/ccxfCgUK.debug.temp.o
 .debug_abbrev  0x0000000000001e62      0x23d /tmp/ccJtHqNq.debug.temp.o
 .debug_abbrev  0x000000000000209f      0x2e9 /tmp/ccNs3PSG.debug.temp.o
 .debug_abbrev  0x0000000000002388      0x2d5 /tmp/ccXSirDj.debug.temp.o
 .debug_abbrev  0x000000000000265d      0x332 /tmp/ccZbDIhM.debug.temp.o
 .debug_abbrev  0x000000000000298f      0x2ae /tmp/ccayEk2f.debug.temp.o
 .debug_abbrev  0x0000000000002c3d      0x1f6 /tmp/ccnXKA7J.debug.temp.o
 .debug_abbrev  0x0000000000002e33      0x2ab /tmp/cc1u43m7.debug.temp.o
 .debug_abbrev  0x00000000000030de      0x2a4 /tmp/ccNYchgj.debug.temp.o
 .debug_abbrev  0x0000000000003382      0x2a9 /tmp/ccRhbWpE.debug.temp.o
 .debug_abbrev  0x000000000000362b       0xb6 /tmp/ccMF8bbA.debug.temp.o
 .debug_abbrev  0x00000000000036e1       0x5e /tmp/cceWWQaF.debug.temp.o
 .debug_abbrev  0x000000000000373f       0x5e /tmp/ccW7MAbQ.debug.temp.o
 .debug_abbrev  0x000000000000379d       0x73 /tmp/ccUNwzbi.debug.temp.o
 .debug_abbrev  0x0000000000003810       0x6e /tmp/ccr8YQHk.debug.temp.o
 .debug_abbrev  0x000000000000387e      0x102 /tmp/cctFtvAD.debug.temp.o
 .debug_abbrev  0x0000000000003980      0x133 /tmp/cc3yElty.debug.temp.o
 .debug_abbrev  0x0000000000003ab3      0x101 /tmp/cc35w3fR.debug.temp.o
 .debug_abbrev  0x0000000000003bb4       0x84 /tmp/cciVDaRT.debug.temp.o
 .debug_abbrev  0x0000000000003c38       0x66 /tmp/ccwaEZCF.debug.temp.o
 .debug_abbrev  0x0000000000003c9e       0x57 /tmp/cccAhlov.debug.temp.o
 .debug_abbrev  0x0000000000003cf5       0x66 /tmp/ccJiTQsc.debug.temp.o
 .debug_abbrev  0x0000000000003d5b       0x57 /tmp/cc3Cgdjs.debug.temp.o
 .debug_abbrev  0x0000000000003db2       0x57 /tmp/cce9amdU.debug.temp.o
 .debug_abbrev  0x0000000000003e09       0xa8 /tmp/ccFEK5hd.debug.temp.o
 .debug_abbrev  0x0000000000003eb1      0x106 /tmp/ccdXF3pj.debug.temp.o
 .debug_abbrev  0x0000000000003fb7      0x15c /tmp/ccRcOvi6.debug.temp.o
 .debug_abbrev  0x0000000000004113      0x12d /tmp/ccwPzxuK.debug.temp.o
 .debug_abbrev  0x0000000000004240      0x1c5 /tmp/ccEmAJML.debug.temp.o
 .debug_abbrev  0x0000000000004405      0x1e4 /tmp/ccQgPe7V.debug.temp.o
 .debug_abbrev  0x00000000000045e9      0x162 /tmp/ccVFYhXy.debug.temp.o
 .debug_abbrev  0x000000000000474b      0x189 /tmp/cc93GIwh.debug.temp.o
 .debug_abbrev  0x00000000000048d4       0xd2 /tmp/ccGSsxCD.debug.temp.o
 .debug_abbrev  0x00000000000049a6      0x231 /tmp/cc4wwVkf.debug.temp.o
 .debug_abbrev  0x0000000000004bd7      0x20d /tmp/ccWUmbbn.debug.temp.o
 .debug_abbrev  0x0000000000004de4      0x198 /tmp/cctem4R6.debug.temp.o
 .debug_abbrev  0x0000000000004f7c      0x1fe /tmp/ccUOrdH6.debug.temp.o
 .debug_abbrev  0x000000000000517a      0x24f /tmp/ccFmn6tW.debug.temp.o
 .debug_abbrev  0x00000000000053c9      0x1f3 /tmp/cchSJcUw.debug.temp.o
 .debug_abbrev  0x00000000000055bc      0x2e1 /tmp/ccxPOkKb.debug.temp.o
 .debug_abbrev  0x000000000000589d      0x134 /tmp/ccrcc787.debug.temp.o
 .debug_abbrev  0x00000000000059d1       0xf4 /tmp/ccJsyO4J.debug.temp.o
 .debug_abbrev  0x0000000000005ac5      0x1aa /tmp/ccO0IlVZ.debug.temp.o
 .debug_abbrev  0x0000000000005c6f      0x1d2 /tmp/cc1dPjAl.debug.temp.o
 .debug_abbrev  0x0000000000005e41      0x242 /tmp/ccd3AH3g.debug.temp.o
 .debug_abbrev  0x0000000000006083      0x2ca /tmp/ccyP5noS.debug.temp.o
 .debug_abbrev  0x000000000000634d      0x319 /tmp/ccTtqDlJ.debug.temp.o
 .debug_abbrev  0x0000000000006666       0x5f /tmp/ccmxUVkQ.debug.temp.o
 .debug_abbrev  0x00000000000066c5      0x2e5 /tmp/ccl5PHsX.debug.temp.o
 .debug_abbrev  0x00000000000069aa      0x2e3 /tmp/cc9wEKB4.debug.temp.o
 .debug_abbrev  0x0000000000006c8d      0x238 /tmp/ccp0dghG.debug.temp.o
 .debug_abbrev  0x0000000000006ec5      0x249 /tmp/ccm8cuFo.debug.temp.o
 .debug_abbrev  0x000000000000710e      0x1f2 /tmp/ccX2rXnQ.debug.temp.o
 .debug_abbrev  0x0000000000007300      0x267 /tmp/ccXOsAAV.debug.temp.o
 .debug_abbrev  0x0000000000007567      0x28b /tmp/cchw8UyS.debug.temp.o
 .debug_abbrev  0x00000000000077f2      0x1ce /tmp/ccNxBZMv.debug.temp.o
 .debug_abbrev  0x00000000000079c0      0x1df /tmp/cc2t4z1w.debug.temp.o
 .debug_abbrev  0x0000000000007b9f      0x1e2 /tmp/ccg1iUXG.debug.temp.o
 .debug_abbrev  0x0000000000007d81      0x215 /tmp/ccDMhf0l.debug.temp.o
 .debug_abbrev  0x0000000000007f96      0x20e /tmp/cclhLAgF.debug.temp.o
 .debug_abbrev  0x00000000000081a4      0x1df /tmp/ccr3XiuJ.debug.temp.o
 .debug_abbrev  0x0000000000008383      0x212 /tmp/ccM2LQnN.debug.temp.o
 .debug_abbrev  0x0000000000008595      0x236 /tmp/ccUJxCjJ.debug.temp.o
 .debug_abbrev  0x00000000000087cb      0x1ca /tmp/ccLZNGdW.debug.temp.o
 .debug_abbrev  0x0000000000008995      0x1df /tmp/ccPP3Clc.debug.temp.o
 .debug_abbrev  0x0000000000008b74       0x5f /tmp/ccIf4u1Y.debug.temp.o
 .debug_abbrev  0x0000000000008bd3      0x1d0 /tmp/ccqjGy5G.debug.temp.o
 .debug_abbrev  0x0000000000008da3      0x1ca /tmp/cczL9nUl.debug.temp.o
 .debug_abbrev  0x0000000000008f6d      0x1e4 /tmp/ccMjqYcA.debug.temp.o
 .debug_abbrev  0x0000000000009151      0x212 /tmp/ccDSEB36.debug.temp.o
 .debug_abbrev  0x0000000000009363      0x212 /tmp/ccjNq4jj.debug.temp.o
 .debug_abbrev  0x0000000000009575      0x1cc /tmp/ccJDJS64.debug.temp.o
 .debug_abbrev  0x0000000000009741      0x1d4 /tmp/ccl8ek57.debug.temp.o
 .debug_abbrev  0x0000000000009915       0x5f /tmp/ccNxjsbq.debug.temp.o
 .debug_abbrev  0x0000000000009974      0x1d2 /tmp/ccnXo894.debug.temp.o
 .debug_abbrev  0x0000000000009b46      0x1bc /tmp/ccv92q1v.debug.temp.o
 .debug_abbrev  0x0000000000009d02      0x1df /tmp/ccy9Eo2l.debug.temp.o
 .debug_abbrev  0x0000000000009ee1      0x1a9 /tmp/cc5B5wbg.debug.temp.o
 .debug_abbrev  0x000000000000a08a      0x1cc /tmp/cc7dQci2.debug.temp.o
 .debug_abbrev  0x000000000000a256      0x1e3 /tmp/ccVZVBwK.debug.temp.o
 .debug_abbrev  0x000000000000a439      0x238 /tmp/cc4jXU7d.debug.temp.o
 .debug_abbrev  0x000000000000a671       0x5f /tmp/ccNxpQr5.debug.temp.o
 .debug_abbrev  0x000000000000a6d0      0x1be /tmp/ccosi93o.debug.temp.o
 .debug_abbrev  0x000000000000a88e      0x201 /tmp/ccDqCtJy.debug.temp.o
 .debug_abbrev  0x000000000000aa8f      0x1e2 /tmp/ccxQZgXW.debug.temp.o
 .debug_abbrev  0x000000000000ac71      0x1d0 /tmp/ccVZR4YS.debug.temp.o
 .debug_abbrev  0x000000000000ae41       0x5f /tmp/cc21Kipz.debug.temp.o
 .debug_abbrev  0x000000000000aea0      0x226 /tmp/ccuNcGM3.debug.temp.o
 .debug_abbrev  0x000000000000b0c6      0x1fd /tmp/ccQts16C.debug.temp.o
 .debug_abbrev  0x000000000000b2c3      0x1e9 /tmp/ccDUsDVJ.debug.temp.o
 .debug_abbrev  0x000000000000b4ac      0x1d1 /tmp/ccvmA2U8.debug.temp.o
 .debug_abbrev  0x000000000000b67d      0x1bc /tmp/ccuUQXDN.debug.temp.o
 .debug_abbrev  0x000000000000b839      0x1d1 /tmp/cc1fnr3d.debug.temp.o
 .debug_abbrev  0x000000000000ba0a      0x1f1 /tmp/ccK4RAoA.debug.temp.o
 .debug_abbrev  0x000000000000bbfb      0x26b /tmp/ccDgc1rI.debug.temp.o
 .debug_abbrev  0x000000000000be66      0x223 /tmp/ccrt2Odg.debug.temp.o
 .debug_abbrev  0x000000000000c089      0x1f2 /tmp/cc3IBqEu.debug.temp.o
 .debug_abbrev  0x000000000000c27b      0x24a /tmp/ccoLVqQT.debug.temp.o
 .debug_abbrev  0x000000000000c4c5      0x25a /tmp/ccsIViIC.debug.temp.o
 .debug_abbrev  0x000000000000c71f      0x239 /tmp/ccgjecB1.debug.temp.o
 .debug_abbrev  0x000000000000c958      0x2ac /tmp/ccR6xuav.debug.temp.o
 .debug_abbrev  0x000000000000cc04      0x284 /tmp/ccZUlp7d.debug.temp.o
 .debug_abbrev  0x000000000000ce88       0xe2 /tmp/ccUOmVvX.debug.temp.o
 .debug_abbrev  0x000000000000cf6a      0x1dd /tmp/ccbHKq7Y.debug.temp.o
 .debug_abbrev  0x000000000000d147      0x295 /tmp/cc5puZL7.debug.temp.o
 .debug_abbrev  0x000000000000d3dc      0x1a2 /tmp/cc0ZBMtB.debug.temp.o
 .debug_abbrev  0x000000000000d57e       0x5f /tmp/cctaeyEl.debug.temp.o
 .debug_abbrev  0x000000000000d5dd      0x1c1 /tmp/ccTX97Lt.debug.temp.o
 .debug_abbrev  0x000000000000d79e      0x201 /tmp/ccvHkmAt.debug.temp.o
 .debug_abbrev  0x000000000000d99f      0x1e3 /tmp/ccOPy7Am.debug.temp.o
 .debug_abbrev  0x000000000000db82      0x1f6 /tmp/ccRDiCfQ.debug.temp.o
 .debug_abbrev  0x000000000000dd78      0x1e2 /tmp/ccmURXSA.debug.temp.o
 .debug_abbrev  0x000000000000df5a      0x1f5 /tmp/ccUC1iP3.debug.temp.o
 .debug_abbrev  0x000000000000e14f      0x1d1 /tmp/ccLZibxj.debug.temp.o
 .debug_abbrev  0x000000000000e320      0x21f /tmp/cctqi5BG.debug.temp.o
 .debug_abbrev  0x000000000000e53f      0x26c /tmp/cc7gZXBF.debug.temp.o
 .debug_abbrev  0x000000000000e7ab      0x213 /tmp/ccyfYjKF.debug.temp.o
 .debug_abbrev  0x000000000000e9be      0x1f6 /tmp/cccv01My.debug.temp.o
 .debug_abbrev  0x000000000000ebb4      0x29c /tmp/ccVPpByB.debug.temp.o
 .debug_abbrev  0x000000000000ee50      0x234 /tmp/cc5Z8osv.debug.temp.o
 .debug_abbrev  0x000000000000f084      0x228 /tmp/ccTdKUGt.debug.temp.o
 .debug_abbrev  0x000000000000f2ac      0x29d /tmp/ccPjMNaY.debug.temp.o
 .debug_abbrev  0x000000000000f549      0x1f7 /tmp/ccXLOhYy.debug.temp.o
 .debug_abbrev  0x000000000000f740      0x224 /tmp/ccCo2DLi.debug.temp.o
 .debug_abbrev  0x000000000000f964      0x28e /tmp/ccJHJfM2.debug.temp.o
 .debug_abbrev  0x000000000000fbf2      0x233 /tmp/ccWFG3mc.debug.temp.o
 .debug_abbrev  0x000000000000fe25      0x12c /tmp/ccwEY2Uz.debug.temp.o
 .debug_abbrev  0x000000000000ff51      0x2bf /tmp/ccnnyznw.debug.temp.o
 .debug_abbrev  0x0000000000010210       0xb5 /tmp/ccw0qt3u.debug.temp.o
 .debug_abbrev  0x00000000000102c5      0x289 /tmp/ccsy1v3u.debug.temp.o
 .debug_abbrev  0x000000000001054e      0x1cb /tmp/cclMPEBV.debug.temp.o
 .debug_abbrev  0x0000000000010719      0x239 /tmp/ccEPirrB.debug.temp.o
 .debug_abbrev  0x0000000000010952      0x15b /tmp/cctUqyp0.debug.temp.o
 .debug_abbrev  0x0000000000010aad      0x1ee /tmp/cceW9kmV.debug.temp.o
 .debug_abbrev  0x0000000000010c9b      0x142 /tmp/cc9v9I1V.debug.temp.o
 .debug_abbrev  0x0000000000010ddd      0x133 /tmp/ccmQczTa.debug.temp.o
 .debug_abbrev  0x0000000000010f10      0x1af /tmp/ccl0Q6Sl.debug.temp.o
 .debug_abbrev  0x00000000000110bf      0x258 /tmp/ccuVRx86.debug.temp.o
 .debug_abbrev  0x0000000000011317       0x5f /tmp/ccXwClf2.debug.temp.o
 .debug_abbrev  0x0000000000011376      0x24b /tmp/ccp6m6Sd.debug.temp.o
 .debug_abbrev  0x00000000000115c1       0x5f /tmp/ccfatnaC.debug.temp.o
 .debug_abbrev  0x0000000000011620       0x67 /tmp/ccAtDMIS.debug.temp.o
 .debug_abbrev  0x0000000000011687       0x57 /tmp/ccVNoey6.debug.temp.o
 .debug_abbrev  0x00000000000116de       0x66 /tmp/ccURFV6K.debug.temp.o
 .debug_abbrev  0x0000000000011744       0x57 /tmp/cccdd55R.debug.temp.o
 .debug_abbrev  0x000000000001179b       0x62 /tmp/ccnHZRvv.debug.temp.o
 .debug_abbrev  0x00000000000117fd       0x7f /tmp/ccqWdb1W.debug.temp.o
 .debug_abbrev  0x000000000001187c       0xe8 /tmp/cc71aMtw.debug.temp.o
 .debug_abbrev  0x0000000000011964       0xc2 /tmp/cc9z0B30.debug.temp.o
 .debug_abbrev  0x0000000000011a26      0x27e /tmp/ccLNPifb.debug.temp.o
 .debug_abbrev  0x0000000000011ca4      0x21b /tmp/cco7ushN.debug.temp.o
 .debug_abbrev  0x0000000000011ebf      0x18b /tmp/ccB61hEj.debug.temp.o
 .debug_abbrev  0x000000000001204a      0x1a7 /tmp/ccbDiLWw.debug.temp.o
 .debug_abbrev  0x00000000000121f1      0x2d2 /tmp/ccAgvmth.debug.temp.o
 .debug_abbrev  0x00000000000124c3       0x5f /tmp/ccms9RGy.debug.temp.o
 .debug_abbrev  0x0000000000012522       0xf8 /tmp/cc1A1R4v.debug.temp.o
 .debug_abbrev  0x000000000001261a      0x29d /tmp/cc23Zg35.debug.temp.o
 .debug_abbrev  0x00000000000128b7      0x228 /tmp/ccTTFipc.debug.temp.o

.debug_loc      0x0000000000000000    0x99422
 .debug_loc     0x0000000000000000     0xd5b8 /tmp/Shell.dll.2u1FF2.ltrans0.ltrans.o
 .debug_loc     0x000000000000d5b8    0x1a529 /tmp/Shell.dll.2u1FF2.ltrans1.ltrans.o
 .debug_loc     0x0000000000027ae1     0xdfb3 /tmp/Shell.dll.2u1FF2.ltrans2.ltrans.o
 .debug_loc     0x0000000000035a94     0xc34d /tmp/Shell.dll.2u1FF2.ltrans3.ltrans.o
 .debug_loc     0x0000000000041de1     0x8d5d /tmp/Shell.dll.2u1FF2.ltrans4.ltrans.o
 .debug_loc     0x000000000004ab3e     0xace2 /tmp/Shell.dll.2u1FF2.ltrans5.ltrans.o
 .debug_loc     0x0000000000055820     0xc994 /tmp/Shell.dll.2u1FF2.ltrans6.ltrans.o
 .debug_loc     0x00000000000621b4     0xc883 /tmp/Shell.dll.2u1FF2.ltrans7.ltrans.o
 .debug_loc     0x000000000006ea37     0xeeb2 /tmp/Shell.dll.2u1FF2.ltrans8.ltrans.o
 .debug_loc     0x000000000007d8e9     0xecb6 /tmp/Shell.dll.2u1FF2.ltrans9.ltrans.o
 .debug_loc     0x000000000008c59f     0x100b /tmp/Shell.dll.2u1FF2.ltrans10.ltrans.o
 .debug_loc     0x000000000008d5aa     0x5797 /tmp/Shell.dll.2u1FF2.ltrans11.ltrans.o
 .debug_loc     0x0000000000092d41     0x66e1 /tmp/Shell.dll.2u1FF2.ltrans12.ltrans.o

.debug_aranges  0x0000000000000000     0x37f0
 .debug_aranges
                0x0000000000000000      0x3a0 /tmp/Shell.dll.2u1FF2.ltrans0.ltrans.o
 .debug_aranges
                0x00000000000003a0     0x1240 /tmp/Shell.dll.2u1FF2.ltrans1.ltrans.o
 .debug_aranges
                0x00000000000015e0      0x740 /tmp/Shell.dll.2u1FF2.ltrans2.ltrans.o
 .debug_aranges
                0x0000000000001d20      0x3e0 /tmp/Shell.dll.2u1FF2.ltrans3.ltrans.o
 .debug_aranges
                0x0000000000002100      0x200 /tmp/Shell.dll.2u1FF2.ltrans4.ltrans.o
 .debug_aranges
                0x0000000000002300      0x200 /tmp/Shell.dll.2u1FF2.ltrans5.ltrans.o
 .debug_aranges
                0x0000000000002500      0x360 /tmp/Shell.dll.2u1FF2.ltrans6.ltrans.o
 .debug_aranges
                0x0000000000002860      0x210 /tmp/Shell.dll.2u1FF2.ltrans7.ltrans.o
 .debug_aranges
                0x0000000000002a70      0x5f0 /tmp/Shell.dll.2u1FF2.ltrans8.ltrans.o
 .debug_aranges
                0x0000000000003060      0x320 /tmp/Shell.dll.2u1FF2.ltrans9.ltrans.o
 .debug_aranges
                0x0000000000003380      0x120 /tmp/Shell.dll.2u1FF2.ltrans10.ltrans.o
 .debug_aranges
                0x00000000000034a0       0x30 /tmp/Shell.dll.2u1FF2.ltrans11.ltrans.o
 .debug_aranges
                0x00000000000034d0      0x320 /tmp/Shell.dll.2u1FF2.ltrans12.ltrans.o

.debug_ranges   0x0000000000000000     0xd270
 .debug_ranges  0x0000000000000000     0x14d0 /tmp/Shell.dll.2u1FF2.ltrans0.ltrans.o
 .debug_ranges  0x00000000000014d0     0x24a0 /tmp/Shell.dll.2u1FF2.ltrans1.ltrans.o
 .debug_ranges  0x0000000000003970      0xea0 /tmp/Shell.dll.2u1FF2.ltrans2.ltrans.o
 .debug_ranges  0x0000000000004810      0xa40 /tmp/Shell.dll.2u1FF2.ltrans3.ltrans.o
 .debug_ranges  0x0000000000005250      0x830 /tmp/Shell.dll.2u1FF2.ltrans4.ltrans.o
 .debug_ranges  0x0000000000005a80      0x9f0 /tmp/Shell.dll.2u1FF2.ltrans5.ltrans.o
 .debug_ranges  0x0000000000006470     0x17e0 /tmp/Shell.dll.2u1FF2.ltrans6.ltrans.o
 .debug_ranges  0x0000000000007c50      0xac0 /tmp/Shell.dll.2u1FF2.ltrans7.ltrans.o
 .debug_ranges  0x0000000000008710     0x1810 /tmp/Shell.dll.2u1FF2.ltrans8.ltrans.o
 .debug_ranges  0x0000000000009f20     0x1140 /tmp/Shell.dll.2u1FF2.ltrans9.ltrans.o
 .debug_ranges  0x000000000000b060      0x160 /tmp/Shell.dll.2u1FF2.ltrans10.ltrans.o
 .debug_ranges  0x000000000000b1c0     0x1b50 /tmp/Shell.dll.2u1FF2.ltrans11.ltrans.o
 .debug_ranges  0x000000000000cd10      0x560 /tmp/Shell.dll.2u1FF2.ltrans12.ltrans.o

.debug_line     0x0000000000000000    0x5f2c4
 .debug_line    0x0000000000000000     0x6f1e /tmp/Shell.dll.2u1FF2.ltrans0.ltrans.o
 .debug_line    0x0000000000006f1e     0xa2d6 /tmp/Shell.dll.2u1FF2.ltrans1.ltrans.o
 .debug_line    0x00000000000111f4     0x7055 /tmp/Shell.dll.2u1FF2.ltrans2.ltrans.o
 .debug_line    0x0000000000018249     0x5e35 /tmp/Shell.dll.2u1FF2.ltrans3.ltrans.o
 .debug_line    0x000000000001e07e     0x5600 /tmp/Shell.dll.2u1FF2.ltrans4.ltrans.o
 .debug_line    0x000000000002367e     0x540e /tmp/Shell.dll.2u1FF2.ltrans5.ltrans.o
 .debug_line    0x0000000000028a8c     0x6eca /tmp/Shell.dll.2u1FF2.ltrans6.ltrans.o
 .debug_line    0x000000000002f956     0x54eb /tmp/Shell.dll.2u1FF2.ltrans7.ltrans.o
 .debug_line    0x0000000000034e41     0x77b5 /tmp/Shell.dll.2u1FF2.ltrans8.ltrans.o
 .debug_line    0x000000000003c5f6     0x4c8b /tmp/Shell.dll.2u1FF2.ltrans9.ltrans.o
 .debug_line    0x0000000000041281      0x64b /tmp/Shell.dll.2u1FF2.ltrans10.ltrans.o
 .debug_line    0x00000000000418cc     0x1e66 /tmp/Shell.dll.2u1FF2.ltrans11.ltrans.o
 .debug_line    0x0000000000043732     0x2592 /tmp/Shell.dll.2u1FF2.ltrans12.ltrans.o
 .debug_line    0x0000000000045cc4      0x144 /tmp/cckeOcZW.debug.temp.o
 .debug_line    0x0000000000045e08       0x70 /tmp/ccyE8yb5.debug.temp.o
 .debug_line    0x0000000000045e78       0x70 /tmp/ccwIDzdM.debug.temp.o
 .debug_line    0x0000000000045ee8      0x254 /tmp/ccxfCgUK.debug.temp.o
 .debug_line    0x000000000004613c      0x2d3 /tmp/ccJtHqNq.debug.temp.o
 .debug_line    0x000000000004640f      0x434 /tmp/ccNs3PSG.debug.temp.o
 .debug_line    0x0000000000046843      0x454 /tmp/ccXSirDj.debug.temp.o
 .debug_line    0x0000000000046c97      0x462 /tmp/ccZbDIhM.debug.temp.o
 .debug_line    0x00000000000470f9      0x40b /tmp/ccayEk2f.debug.temp.o
 .debug_line    0x0000000000047504      0x277 /tmp/ccnXKA7J.debug.temp.o
 .debug_line    0x000000000004777b      0x3ec /tmp/cc1u43m7.debug.temp.o
 .debug_line    0x0000000000047b67      0x348 /tmp/ccNYchgj.debug.temp.o
 .debug_line    0x0000000000047eaf      0x328 /tmp/ccRhbWpE.debug.temp.o
 .debug_line    0x00000000000481d7       0xfb /tmp/ccMF8bbA.debug.temp.o
 .debug_line    0x00000000000482d2       0xc1 /tmp/cceWWQaF.debug.temp.o
 .debug_line    0x0000000000048393       0xc2 /tmp/ccW7MAbQ.debug.temp.o
 .debug_line    0x0000000000048455       0xc0 /tmp/ccUNwzbi.debug.temp.o
 .debug_line    0x0000000000048515       0xc1 /tmp/ccr8YQHk.debug.temp.o
 .debug_line    0x00000000000485d6      0x159 /tmp/cctFtvAD.debug.temp.o
 .debug_line    0x000000000004872f      0x159 /tmp/cc3yElty.debug.temp.o
 .debug_line    0x0000000000048888      0x155 /tmp/cc35w3fR.debug.temp.o
 .debug_line    0x00000000000489dd       0xb0 /tmp/cciVDaRT.debug.temp.o
 .debug_line    0x0000000000048a8d       0xb2 /tmp/ccwaEZCF.debug.temp.o
 .debug_line    0x0000000000048b3f       0xb0 /tmp/cccAhlov.debug.temp.o
 .debug_line    0x0000000000048bef       0xb1 /tmp/ccJiTQsc.debug.temp.o
 .debug_line    0x0000000000048ca0       0xb0 /tmp/cc3Cgdjs.debug.temp.o
 .debug_line    0x0000000000048d50       0xb0 /tmp/cce9amdU.debug.temp.o
 .debug_line    0x0000000000048e00       0xad /tmp/ccFEK5hd.debug.temp.o
 .debug_line    0x0000000000048ead       0xfc /tmp/ccdXF3pj.debug.temp.o
 .debug_line    0x0000000000048fa9      0x192 /tmp/ccRcOvi6.debug.temp.o
 .debug_line    0x000000000004913b      0x192 /tmp/ccwPzxuK.debug.temp.o
 .debug_line    0x00000000000492cd      0x237 /tmp/ccEmAJML.debug.temp.o
 .debug_line    0x0000000000049504      0x20c /tmp/ccQgPe7V.debug.temp.o
 .debug_line    0x0000000000049710      0x1d6 /tmp/ccVFYhXy.debug.temp.o
 .debug_line    0x00000000000498e6      0x20c /tmp/cc93GIwh.debug.temp.o
 .debug_line    0x0000000000049af2      0x10b /tmp/ccGSsxCD.debug.temp.o
 .debug_line    0x0000000000049bfd      0x2c3 /tmp/cc4wwVkf.debug.temp.o
 .debug_line    0x0000000000049ec0      0x2b7 /tmp/ccWUmbbn.debug.temp.o
 .debug_line    0x000000000004a177      0x1e7 /tmp/cctem4R6.debug.temp.o
 .debug_line    0x000000000004a35e      0x39a /tmp/ccUOrdH6.debug.temp.o
 .debug_line    0x000000000004a6f8      0x2d5 /tmp/ccFmn6tW.debug.temp.o
 .debug_line    0x000000000004a9cd      0x2db /tmp/cchSJcUw.debug.temp.o
 .debug_line    0x000000000004aca8      0x333 /tmp/ccxPOkKb.debug.temp.o
 .debug_line    0x000000000004afdb      0x209 /tmp/ccrcc787.debug.temp.o
 .debug_line    0x000000000004b1e4      0x20b /tmp/ccJsyO4J.debug.temp.o
 .debug_line    0x000000000004b3ef      0x2b0 /tmp/ccO0IlVZ.debug.temp.o
 .debug_line    0x000000000004b69f      0x2ef /tmp/cc1dPjAl.debug.temp.o
 .debug_line    0x000000000004b98e      0x280 /tmp/ccd3AH3g.debug.temp.o
 .debug_line    0x000000000004bc0e      0x446 /tmp/ccyP5noS.debug.temp.o
 .debug_line    0x000000000004c054      0x5e6 /tmp/ccTtqDlJ.debug.temp.o
 .debug_line    0x000000000004c63a       0xc9 /tmp/ccmxUVkQ.debug.temp.o
 .debug_line    0x000000000004c703      0x420 /tmp/ccl5PHsX.debug.temp.o
 .debug_line    0x000000000004cb23      0x3c8 /tmp/cc9wEKB4.debug.temp.o
 .debug_line    0x000000000004ceeb      0x3ff /tmp/ccp0dghG.debug.temp.o
 .debug_line    0x000000000004d2ea      0x386 /tmp/ccm8cuFo.debug.temp.o
 .debug_line    0x000000000004d670      0x3a8 /tmp/ccX2rXnQ.debug.temp.o
 .debug_line    0x000000000004da18      0x40b /tmp/ccXOsAAV.debug.temp.o
 .debug_line    0x000000000004de23      0x3ce /tmp/cchw8UyS.debug.temp.o
 .debug_line    0x000000000004e1f1      0x30b /tmp/ccNxBZMv.debug.temp.o
 .debug_line    0x000000000004e4fc      0x2aa /tmp/cc2t4z1w.debug.temp.o
 .debug_line    0x000000000004e7a6      0x2ac /tmp/ccg1iUXG.debug.temp.o
 .debug_line    0x000000000004ea52      0x2a9 /tmp/ccDMhf0l.debug.temp.o
 .debug_line    0x000000000004ecfb      0x369 /tmp/cclhLAgF.debug.temp.o
 .debug_line    0x000000000004f064      0x2ac /tmp/ccr3XiuJ.debug.temp.o
 .debug_line    0x000000000004f310      0x2d4 /tmp/ccM2LQnN.debug.temp.o
 .debug_line    0x000000000004f5e4      0x2d4 /tmp/ccUJxCjJ.debug.temp.o
 .debug_line    0x000000000004f8b8      0x2ad /tmp/ccLZNGdW.debug.temp.o
 .debug_line    0x000000000004fb65      0x3c0 /tmp/ccPP3Clc.debug.temp.o
 .debug_line    0x000000000004ff25       0xdb /tmp/ccIf4u1Y.debug.temp.o
 .debug_line    0x0000000000050000      0x3a3 /tmp/ccqjGy5G.debug.temp.o
 .debug_line    0x00000000000503a3      0x2ab /tmp/cczL9nUl.debug.temp.o
 .debug_line    0x000000000005064e      0x2c0 /tmp/ccMjqYcA.debug.temp.o
 .debug_line    0x000000000005090e      0x2e9 /tmp/ccDSEB36.debug.temp.o
 .debug_line    0x0000000000050bf7      0x2ea /tmp/ccjNq4jj.debug.temp.o
 .debug_line    0x0000000000050ee1      0x2c1 /tmp/ccJDJS64.debug.temp.o
 .debug_line    0x00000000000511a2      0x2bf /tmp/ccl8ek57.debug.temp.o
 .debug_line    0x0000000000051461       0xdb /tmp/ccNxjsbq.debug.temp.o
 .debug_line    0x000000000005153c      0x33e /tmp/ccnXo894.debug.temp.o
 .debug_line    0x000000000005187a      0x2bd /tmp/ccv92q1v.debug.temp.o
 .debug_line    0x0000000000051b37      0x2ac /tmp/ccy9Eo2l.debug.temp.o
 .debug_line    0x0000000000051de3      0x268 /tmp/cc5B5wbg.debug.temp.o
 .debug_line    0x000000000005204b      0x2ac /tmp/cc7dQci2.debug.temp.o
 .debug_line    0x00000000000522f7      0x2c0 /tmp/ccVZVBwK.debug.temp.o
 .debug_line    0x00000000000525b7      0x3f0 /tmp/cc4jXU7d.debug.temp.o
 .debug_line    0x00000000000529a7       0xdb /tmp/ccNxpQr5.debug.temp.o
 .debug_line    0x0000000000052a82      0x38c /tmp/ccosi93o.debug.temp.o
 .debug_line    0x0000000000052e0e      0x305 /tmp/ccDqCtJy.debug.temp.o
 .debug_line    0x0000000000053113      0x3ab /tmp/ccxQZgXW.debug.temp.o
 .debug_line    0x00000000000534be      0x344 /tmp/ccVZR4YS.debug.temp.o
 .debug_line    0x0000000000053802       0xde /tmp/cc21Kipz.debug.temp.o
 .debug_line    0x00000000000538e0      0x3af /tmp/ccuNcGM3.debug.temp.o
 .debug_line    0x0000000000053c8f      0x34e /tmp/ccQts16C.debug.temp.o
 .debug_line    0x0000000000053fdd      0x2c4 /tmp/ccDUsDVJ.debug.temp.o
 .debug_line    0x00000000000542a1      0x2d9 /tmp/ccvmA2U8.debug.temp.o
 .debug_line    0x000000000005457a      0x26f /tmp/ccuUQXDN.debug.temp.o
 .debug_line    0x00000000000547e9      0x2d3 /tmp/cc1fnr3d.debug.temp.o
 .debug_line    0x0000000000054abc      0x2f2 /tmp/ccK4RAoA.debug.temp.o
 .debug_line    0x0000000000054dae      0x4ee /tmp/ccDgc1rI.debug.temp.o
 .debug_line    0x000000000005529c      0x3e4 /tmp/ccrt2Odg.debug.temp.o
 .debug_line    0x0000000000055680      0x32a /tmp/cc3IBqEu.debug.temp.o
 .debug_line    0x00000000000559aa      0x3bf /tmp/ccoLVqQT.debug.temp.o
 .debug_line    0x0000000000055d69      0x38c /tmp/ccsIViIC.debug.temp.o
 .debug_line    0x00000000000560f5      0x3b1 /tmp/ccgjecB1.debug.temp.o
 .debug_line    0x00000000000564a6      0x33e /tmp/ccR6xuav.debug.temp.o
 .debug_line    0x00000000000567e4      0x41a /tmp/ccZUlp7d.debug.temp.o
 .debug_line    0x0000000000056bfe      0x114 /tmp/ccUOmVvX.debug.temp.o
 .debug_line    0x0000000000056d12      0x36b /tmp/ccbHKq7Y.debug.temp.o
 .debug_line    0x000000000005707d      0x426 /tmp/cc5puZL7.debug.temp.o
 .debug_line    0x00000000000574a3      0x249 /tmp/cc0ZBMtB.debug.temp.o
 .debug_line    0x00000000000576ec       0xdb /tmp/cctaeyEl.debug.temp.o
 .debug_line    0x00000000000577c7      0x26b /tmp/ccTX97Lt.debug.temp.o
 .debug_line    0x0000000000057a32      0x36c /tmp/ccvHkmAt.debug.temp.o
 .debug_line    0x0000000000057d9e      0x2be /tmp/ccOPy7Am.debug.temp.o
 .debug_line    0x000000000005805c      0x2c0 /tmp/ccRDiCfQ.debug.temp.o
 .debug_line    0x000000000005831c      0x2b2 /tmp/ccmURXSA.debug.temp.o
 .debug_line    0x00000000000585ce      0x31a /tmp/ccUC1iP3.debug.temp.o
 .debug_line    0x00000000000588e8      0x369 /tmp/ccLZibxj.debug.temp.o
 .debug_line    0x0000000000058c51      0x363 /tmp/cctqi5BG.debug.temp.o
 .debug_line    0x0000000000058fb4      0x403 /tmp/cc7gZXBF.debug.temp.o
 .debug_line    0x00000000000593b7      0x359 /tmp/ccyfYjKF.debug.temp.o
 .debug_line    0x0000000000059710      0x2cf /tmp/cccv01My.debug.temp.o
 .debug_line    0x00000000000599df      0x3ed /tmp/ccVPpByB.debug.temp.o
 .debug_line    0x0000000000059dcc      0x3fd /tmp/cc5Z8osv.debug.temp.o
 .debug_line    0x000000000005a1c9      0x3a4 /tmp/ccTdKUGt.debug.temp.o
 .debug_line    0x000000000005a56d      0x332 /tmp/ccPjMNaY.debug.temp.o
 .debug_line    0x000000000005a89f      0x2d9 /tmp/ccXLOhYy.debug.temp.o
 .debug_line    0x000000000005ab78      0x241 /tmp/ccCo2DLi.debug.temp.o
 .debug_line    0x000000000005adb9      0x287 /tmp/ccJHJfM2.debug.temp.o
 .debug_line    0x000000000005b040      0x230 /tmp/ccWFG3mc.debug.temp.o
 .debug_line    0x000000000005b270      0x1fc /tmp/ccwEY2Uz.debug.temp.o
 .debug_line    0x000000000005b46c      0x2eb /tmp/ccnnyznw.debug.temp.o
 .debug_line    0x000000000005b757      0x14e /tmp/ccw0qt3u.debug.temp.o
 .debug_line    0x000000000005b8a5      0x40f /tmp/ccsy1v3u.debug.temp.o
 .debug_line    0x000000000005bcb4      0x259 /tmp/cclMPEBV.debug.temp.o
 .debug_line    0x000000000005bf0d      0x36b /tmp/ccEPirrB.debug.temp.o
 .debug_line    0x000000000005c278      0x145 /tmp/cctUqyp0.debug.temp.o
 .debug_line    0x000000000005c3bd      0x23e /tmp/cceW9kmV.debug.temp.o
 .debug_line    0x000000000005c5fb      0x1f4 /tmp/cc9v9I1V.debug.temp.o
 .debug_line    0x000000000005c7ef      0x1ab /tmp/ccmQczTa.debug.temp.o
 .debug_line    0x000000000005c99a      0x285 /tmp/ccl0Q6Sl.debug.temp.o
 .debug_line    0x000000000005cc1f      0x388 /tmp/ccuVRx86.debug.temp.o
 .debug_line    0x000000000005cfa7       0xc3 /tmp/ccXwClf2.debug.temp.o
 .debug_line    0x000000000005d06a      0x38a /tmp/ccp6m6Sd.debug.temp.o
 .debug_line    0x000000000005d3f4       0xc0 /tmp/ccfatnaC.debug.temp.o
 .debug_line    0x000000000005d4b4       0xc4 /tmp/ccAtDMIS.debug.temp.o
 .debug_line    0x000000000005d578       0xb2 /tmp/ccVNoey6.debug.temp.o
 .debug_line    0x000000000005d62a       0xb1 /tmp/ccURFV6K.debug.temp.o
 .debug_line    0x000000000005d6db       0xb0 /tmp/cccdd55R.debug.temp.o
 .debug_line    0x000000000005d78b       0xb9 /tmp/ccnHZRvv.debug.temp.o
 .debug_line    0x000000000005d844       0xb4 /tmp/ccqWdb1W.debug.temp.o
 .debug_line    0x000000000005d8f8      0x10a /tmp/cc71aMtw.debug.temp.o
 .debug_line    0x000000000005da02      0x14f /tmp/cc9z0B30.debug.temp.o
 .debug_line    0x000000000005db51      0x2f6 /tmp/ccLNPifb.debug.temp.o
 .debug_line    0x000000000005de47      0x288 /tmp/cco7ushN.debug.temp.o
 .debug_line    0x000000000005e0cf      0x155 /tmp/ccB61hEj.debug.temp.o
 .debug_line    0x000000000005e224      0x21c /tmp/ccbDiLWw.debug.temp.o
 .debug_line    0x000000000005e440      0x46c /tmp/ccAgvmth.debug.temp.o
 .debug_line    0x000000000005e8ac       0xd2 /tmp/ccms9RGy.debug.temp.o
 .debug_line    0x000000000005e97e      0x1c7 /tmp/cc1A1R4v.debug.temp.o
 .debug_line    0x000000000005eb45      0x3f9 /tmp/cc23Zg35.debug.temp.o
 .debug_line    0x000000000005ef3e      0x386 /tmp/ccTTFipc.debug.temp.o

.debug_str      0x0000000000000000    0x2475c
 .debug_str     0x0000000000000000      0x6be /tmp/Shell.dll.2u1FF2.ltrans0.ltrans.o
 .debug_str     0x00000000000006be      0x3c8 /tmp/Shell.dll.2u1FF2.ltrans1.ltrans.o
                                        0x68b (size before relaxing)
 .debug_str     0x0000000000000a86       0xa2 /tmp/Shell.dll.2u1FF2.ltrans2.ltrans.o
                                        0x3f8 (size before relaxing)
 .debug_str     0x0000000000000b28      0x1cc /tmp/Shell.dll.2u1FF2.ltrans3.ltrans.o
                                        0x49a (size before relaxing)
 .debug_str     0x0000000000000cf4       0x84 /tmp/Shell.dll.2u1FF2.ltrans4.ltrans.o
                                        0x33c (size before relaxing)
 .debug_str     0x0000000000000d78       0x8e /tmp/Shell.dll.2u1FF2.ltrans5.ltrans.o
                                        0x362 (size before relaxing)
 .debug_str     0x0000000000000e06      0x390 /tmp/Shell.dll.2u1FF2.ltrans6.ltrans.o
                                        0x688 (size before relaxing)
 .debug_str     0x0000000000001196       0x96 /tmp/Shell.dll.2u1FF2.ltrans7.ltrans.o
                                        0x3e6 (size before relaxing)
 .debug_str     0x000000000000122c       0xbc /tmp/Shell.dll.2u1FF2.ltrans8.ltrans.o
                                        0x472 (size before relaxing)
 .debug_str     0x00000000000012e8      0x1f8 /tmp/Shell.dll.2u1FF2.ltrans9.ltrans.o
                                        0x973 (size before relaxing)
 .debug_str     0x00000000000014e0       0x96 /tmp/Shell.dll.2u1FF2.ltrans10.ltrans.o
                                        0x3f6 (size before relaxing)
 .debug_str     0x0000000000001576       0x23 /tmp/Shell.dll.2u1FF2.ltrans11.ltrans.o
                                        0x267 (size before relaxing)
 .debug_str     0x0000000000001599      0x149 /tmp/Shell.dll.2u1FF2.ltrans12.ltrans.o
                                        0x914 (size before relaxing)
 .debug_str     0x00000000000016e2      0x2aa /tmp/cckeOcZW.debug.temp.o
                                        0x2f2 (size before relaxing)
 .debug_str     0x000000000000198c       0xdb /tmp/ccyE8yb5.debug.temp.o
                                        0x2a4 (size before relaxing)
 .debug_str     0x0000000000001a67       0x58 /tmp/ccwIDzdM.debug.temp.o
                                        0x298 (size before relaxing)
 .debug_str     0x0000000000001abf      0xf65 /tmp/ccxfCgUK.debug.temp.o
                                       0x1394 (size before relaxing)
 .debug_str     0x0000000000002a24     0x3005 /tmp/ccJtHqNq.debug.temp.o
                                       0x432e (size before relaxing)
 .debug_str     0x0000000000005a29     0x176c /tmp/ccNs3PSG.debug.temp.o
                                       0x32f8 (size before relaxing)
 .debug_str     0x0000000000007195      0x38e /tmp/ccXSirDj.debug.temp.o
                                       0x2794 (size before relaxing)
 .debug_str     0x0000000000007523      0xa7c /tmp/ccZbDIhM.debug.temp.o
                                       0x333d (size before relaxing)
 .debug_str     0x0000000000007f9f      0x74b /tmp/ccayEk2f.debug.temp.o
                                       0x28f3 (size before relaxing)
 .debug_str     0x00000000000086ea      0x166 /tmp/ccnXKA7J.debug.temp.o
                                        0xa7d (size before relaxing)
 .debug_str     0x0000000000008850      0x587 /tmp/cc1u43m7.debug.temp.o
                                       0x20fd (size before relaxing)
 .debug_str     0x0000000000008dd7      0x3d9 /tmp/ccNYchgj.debug.temp.o
                                       0x25fd (size before relaxing)
 .debug_str     0x00000000000091b0      0x32a /tmp/ccRhbWpE.debug.temp.o
                                       0x1f00 (size before relaxing)
 .debug_str     0x00000000000094da      0x114 /tmp/ccMF8bbA.debug.temp.o
                                        0x33b (size before relaxing)
 .debug_str     0x00000000000095ee       0x55 /tmp/cceWWQaF.debug.temp.o
                                        0x2b5 (size before relaxing)
 .debug_str     0x0000000000009643       0x56 /tmp/ccW7MAbQ.debug.temp.o
                                        0x2c4 (size before relaxing)
 .debug_str     0x0000000000009699       0x5c /tmp/ccUNwzbi.debug.temp.o
                                        0x2ce (size before relaxing)
 .debug_str     0x00000000000096f5       0x74 /tmp/ccr8YQHk.debug.temp.o
                                        0x2cd (size before relaxing)
 .debug_str     0x0000000000009769      0x178 /tmp/cctFtvAD.debug.temp.o
                                        0x3f6 (size before relaxing)
 .debug_str     0x00000000000098e1      0x2c8 /tmp/cc3yElty.debug.temp.o
                                        0x6ed (size before relaxing)
 .debug_str     0x0000000000009ba9      0x2d8 /tmp/cc35w3fR.debug.temp.o
                                        0x67e (size before relaxing)
 .debug_str     0x0000000000009e81       0x78 /tmp/cciVDaRT.debug.temp.o
                                        0x2bb (size before relaxing)
 .debug_str     0x0000000000009ef9       0x69 /tmp/ccwaEZCF.debug.temp.o
                                        0x29a (size before relaxing)
 .debug_str     0x0000000000009f62       0x4c /tmp/cccAhlov.debug.temp.o
                                        0x28e (size before relaxing)
 .debug_str     0x0000000000009fae       0x52 /tmp/ccJiTQsc.debug.temp.o
                                        0x29a (size before relaxing)
 .debug_str     0x000000000000a000       0x44 /tmp/cc3Cgdjs.debug.temp.o
                                        0x28e (size before relaxing)
 .debug_str     0x000000000000a044       0x55 /tmp/cce9amdU.debug.temp.o
                                        0x292 (size before relaxing)
 .debug_str     0x000000000000a099      0x173 /tmp/ccFEK5hd.debug.temp.o
                                        0x407 (size before relaxing)
 .debug_str     0x000000000000a20c      0x25c /tmp/ccdXF3pj.debug.temp.o
                                        0x48c (size before relaxing)
 .debug_str     0x000000000000a468      0x241 /tmp/ccRcOvi6.debug.temp.o
                                        0x687 (size before relaxing)
 .debug_str     0x000000000000a6a9      0x1af /tmp/ccwPzxuK.debug.temp.o
                                        0x4eb (size before relaxing)
 .debug_str     0x000000000000a858      0x105 /tmp/ccEmAJML.debug.temp.o
                                       0x1382 (size before relaxing)
 .debug_str     0x000000000000a95d      0x2f6 /tmp/ccQgPe7V.debug.temp.o
                                        0xf74 (size before relaxing)
 .debug_str     0x000000000000ac53      0x32e /tmp/ccVFYhXy.debug.temp.o
                                        0x660 (size before relaxing)
 .debug_str     0x000000000000af81       0x73 /tmp/cc93GIwh.debug.temp.o
                                        0xd0c (size before relaxing)
 .debug_str     0x000000000000aff4       0x8f /tmp/ccGSsxCD.debug.temp.o
                                        0x47b (size before relaxing)
 .debug_str     0x000000000000b083      0xd48 /tmp/cc4wwVkf.debug.temp.o
                                       0x13cf (size before relaxing)
 .debug_str     0x000000000000bdcb      0xed8 /tmp/ccWUmbbn.debug.temp.o
                                       0x1cf4 (size before relaxing)
 .debug_str     0x000000000000cca3      0x114 /tmp/cctem4R6.debug.temp.o
                                       0x1384 (size before relaxing)
 .debug_str     0x000000000000cdb7      0x819 /tmp/ccUOrdH6.debug.temp.o
                                       0x1fb9 (size before relaxing)
 .debug_str     0x000000000000d5d0      0x495 /tmp/ccFmn6tW.debug.temp.o
                                       0x1b28 (size before relaxing)
 .debug_str     0x000000000000da65      0x189 /tmp/cchSJcUw.debug.temp.o
                                        0xf2a (size before relaxing)
 .debug_str     0x000000000000dbee      0xe71 /tmp/ccxPOkKb.debug.temp.o
                                       0x244c (size before relaxing)
 .debug_str     0x000000000000ea5f       0xbe /tmp/ccrcc787.debug.temp.o
                                        0x51f (size before relaxing)
 .debug_str     0x000000000000eb1d       0x8c /tmp/ccJsyO4J.debug.temp.o
                                        0x455 (size before relaxing)
 .debug_str     0x000000000000eba9      0x29d /tmp/ccO0IlVZ.debug.temp.o
                                        0x8d5 (size before relaxing)
 .debug_str     0x000000000000ee46      0x635 /tmp/cc1dPjAl.debug.temp.o
                                       0x1903 (size before relaxing)
 .debug_str     0x000000000000f47b      0x5bc /tmp/ccd3AH3g.debug.temp.o
                                       0x18e2 (size before relaxing)
 .debug_str     0x000000000000fa37      0xfec /tmp/ccyP5noS.debug.temp.o
                                       0x34e4 (size before relaxing)
 .debug_str     0x0000000000010a23     0x2993 /tmp/ccTtqDlJ.debug.temp.o
                                       0x676c (size before relaxing)
 .debug_str     0x00000000000133b6       0x87 /tmp/ccmxUVkQ.debug.temp.o
                                        0x2b9 (size before relaxing)
 .debug_str     0x000000000001343d      0x91e /tmp/ccl5PHsX.debug.temp.o
                                       0x2ca5 (size before relaxing)
 .debug_str     0x0000000000013d5b      0x54e /tmp/cc9wEKB4.debug.temp.o
                                       0x27e9 (size before relaxing)
 .debug_str     0x00000000000142a9      0x200 /tmp/ccp0dghG.debug.temp.o
                                       0x1e8e (size before relaxing)
 .debug_str     0x00000000000144a9      0x1bb /tmp/ccm8cuFo.debug.temp.o
                                       0x1962 (size before relaxing)
 .debug_str     0x0000000000014664       0xbf /tmp/ccX2rXnQ.debug.temp.o
                                       0x1f10 (size before relaxing)
 .debug_str     0x0000000000014723      0x249 /tmp/ccXOsAAV.debug.temp.o
                                       0x23c8 (size before relaxing)
 .debug_str     0x000000000001496c      0x25d /tmp/cchw8UyS.debug.temp.o
                                       0x23f2 (size before relaxing)
 .debug_str     0x0000000000014bc9       0x87 /tmp/ccNxBZMv.debug.temp.o
                                       0x1690 (size before relaxing)
 .debug_str     0x0000000000014c50       0xa1 /tmp/cc2t4z1w.debug.temp.o
                                       0x1e0a (size before relaxing)
 .debug_str     0x0000000000014cf1       0xab /tmp/ccg1iUXG.debug.temp.o
                                       0x1e28 (size before relaxing)
 .debug_str     0x0000000000014d9c       0xc8 /tmp/ccDMhf0l.debug.temp.o
                                       0x1e71 (size before relaxing)
 .debug_str     0x0000000000014e64      0x143 /tmp/cclhLAgF.debug.temp.o
                                       0x2348 (size before relaxing)
 .debug_str     0x0000000000014fa7      0x14f /tmp/ccr3XiuJ.debug.temp.o
                                       0x1f22 (size before relaxing)
 .debug_str     0x00000000000150f6       0x9d /tmp/ccM2LQnN.debug.temp.o
                                       0x21ad (size before relaxing)
 .debug_str     0x0000000000015193      0x1b6 /tmp/ccUJxCjJ.debug.temp.o
                                       0x1bf7 (size before relaxing)
 .debug_str     0x0000000000015349       0xd6 /tmp/ccLZNGdW.debug.temp.o
                                       0x1e42 (size before relaxing)
 .debug_str     0x000000000001541f       0x7b /tmp/ccPP3Clc.debug.temp.o
                                       0x205a (size before relaxing)
 .debug_str     0x000000000001549a       0x93 /tmp/ccIf4u1Y.debug.temp.o
                                        0x2d7 (size before relaxing)
 .debug_str     0x000000000001552d      0x21e /tmp/ccqjGy5G.debug.temp.o
                                       0x172d (size before relaxing)
 .debug_str     0x000000000001574b       0x68 /tmp/cczL9nUl.debug.temp.o
                                       0x1de3 (size before relaxing)
 .debug_str     0x00000000000157b3       0x76 /tmp/ccMjqYcA.debug.temp.o
                                       0x1e5e (size before relaxing)
 .debug_str     0x0000000000015829      0x34a /tmp/ccDSEB36.debug.temp.o
                                       0x22e4 (size before relaxing)
 .debug_str     0x0000000000015b73      0x140 /tmp/ccjNq4jj.debug.temp.o
                                       0x20cb (size before relaxing)
 .debug_str     0x0000000000015cb3       0x6a /tmp/ccJDJS64.debug.temp.o
                                       0x1da6 (size before relaxing)
 .debug_str     0x0000000000015d1d       0x77 /tmp/ccl8ek57.debug.temp.o
                                       0x164c (size before relaxing)
 .debug_str     0x0000000000015d94       0x93 /tmp/ccNxjsbq.debug.temp.o
                                        0x2d7 (size before relaxing)
 .debug_str     0x0000000000015e27      0x19e /tmp/ccnXo894.debug.temp.o
                                       0x1466 (size before relaxing)
 .debug_str     0x0000000000015fc5       0x96 /tmp/ccv92q1v.debug.temp.o
                                       0x1666 (size before relaxing)
 .debug_str     0x000000000001605b      0x100 /tmp/ccy9Eo2l.debug.temp.o
                                       0x1ea1 (size before relaxing)
 .debug_str     0x000000000001615b       0x74 /tmp/cc5B5wbg.debug.temp.o
                                       0x1654 (size before relaxing)
 .debug_str     0x00000000000161cf       0x6a /tmp/cc7dQci2.debug.temp.o
                                       0x1fab (size before relaxing)
 .debug_str     0x0000000000016239       0x6c /tmp/ccVZVBwK.debug.temp.o
                                       0x1641 (size before relaxing)
 .debug_str     0x00000000000162a5      0x136 /tmp/cc4jXU7d.debug.temp.o
                                       0x21bd (size before relaxing)
 .debug_str     0x00000000000163db       0x93 /tmp/ccNxpQr5.debug.temp.o
                                        0x2d7 (size before relaxing)
 .debug_str     0x000000000001646e       0xc0 /tmp/ccosi93o.debug.temp.o
                                       0x17ad (size before relaxing)
 .debug_str     0x000000000001652e       0x8c /tmp/ccDqCtJy.debug.temp.o
                                       0x1e31 (size before relaxing)
 .debug_str     0x00000000000165ba       0x66 /tmp/ccxQZgXW.debug.temp.o
                                       0x1e32 (size before relaxing)
 .debug_str     0x0000000000016620      0x1a7 /tmp/ccVZR4YS.debug.temp.o
                                       0x1479 (size before relaxing)
 .debug_str     0x00000000000167c7       0x95 /tmp/cc21Kipz.debug.temp.o
                                        0x2dc (size before relaxing)
 .debug_str     0x000000000001685c      0x1d3 /tmp/ccuNcGM3.debug.temp.o
                                       0x1e16 (size before relaxing)
 .debug_str     0x0000000000016a2f       0xa4 /tmp/ccQts16C.debug.temp.o
                                       0x1ed6 (size before relaxing)
 .debug_str     0x0000000000016ad3      0x119 /tmp/ccDUsDVJ.debug.temp.o
                                       0x1776 (size before relaxing)
 .debug_str     0x0000000000016bec       0xad /tmp/ccvmA2U8.debug.temp.o
                                       0x16fd (size before relaxing)
 .debug_str     0x0000000000016c99       0x86 /tmp/ccuUQXDN.debug.temp.o
                                       0x1666 (size before relaxing)
 .debug_str     0x0000000000016d1f       0x89 /tmp/cc1fnr3d.debug.temp.o
                                       0x186d (size before relaxing)
 .debug_str     0x0000000000016da8      0x377 /tmp/ccK4RAoA.debug.temp.o
                                       0x1a87 (size before relaxing)
 .debug_str     0x000000000001711f      0x2e5 /tmp/ccDgc1rI.debug.temp.o
                                       0x2730 (size before relaxing)
 .debug_str     0x0000000000017404      0x12f /tmp/ccrt2Odg.debug.temp.o
                                       0x23aa (size before relaxing)
 .debug_str     0x0000000000017533       0xb6 /tmp/cc3IBqEu.debug.temp.o
                                       0x1f03 (size before relaxing)
 .debug_str     0x00000000000175e9      0x44f /tmp/ccoLVqQT.debug.temp.o
                                       0x20e9 (size before relaxing)
 .debug_str     0x0000000000017a38      0x221 /tmp/ccsIViIC.debug.temp.o
                                       0x15ef (size before relaxing)
 .debug_str     0x0000000000017c59      0x36e /tmp/ccgjecB1.debug.temp.o
                                       0x2394 (size before relaxing)
 .debug_str     0x0000000000017fc7      0x568 /tmp/ccR6xuav.debug.temp.o
                                       0x1ff8 (size before relaxing)
 .debug_str     0x000000000001852f      0x195 /tmp/ccZUlp7d.debug.temp.o
                                       0x1db1 (size before relaxing)
 .debug_str     0x00000000000186c4       0x61 /tmp/ccUOmVvX.debug.temp.o
                                        0x3cc (size before relaxing)
 .debug_str     0x0000000000018725       0x7f /tmp/ccbHKq7Y.debug.temp.o
                                       0x1e74 (size before relaxing)
 .debug_str     0x00000000000187a4      0x620 /tmp/cc5puZL7.debug.temp.o
                                       0x1fdc (size before relaxing)
 .debug_str     0x0000000000018dc4       0xba /tmp/cc0ZBMtB.debug.temp.o
                                        0xb11 (size before relaxing)
 .debug_str     0x0000000000018e7e       0x93 /tmp/cctaeyEl.debug.temp.o
                                        0x2d7 (size before relaxing)
 .debug_str     0x0000000000018f11       0x74 /tmp/ccTX97Lt.debug.temp.o
                                       0x1676 (size before relaxing)
 .debug_str     0x0000000000018f85      0x207 /tmp/ccvHkmAt.debug.temp.o
                                       0x217d (size before relaxing)
 .debug_str     0x000000000001918c       0x76 /tmp/ccOPy7Am.debug.temp.o
                                       0x165d (size before relaxing)
 .debug_str     0x0000000000019202      0x4f8 /tmp/ccRDiCfQ.debug.temp.o
                                       0x1b2d (size before relaxing)
 .debug_str     0x00000000000196fa       0xc4 /tmp/ccmURXSA.debug.temp.o
                                       0x1e61 (size before relaxing)
 .debug_str     0x00000000000197be      0x110 /tmp/ccUC1iP3.debug.temp.o
                                       0x1f0b (size before relaxing)
 .debug_str     0x00000000000198ce       0xf3 /tmp/ccLZibxj.debug.temp.o
                                       0x1c5a (size before relaxing)
 .debug_str     0x00000000000199c1      0x1f4 /tmp/cctqi5BG.debug.temp.o
                                       0x20de (size before relaxing)
 .debug_str     0x0000000000019bb5      0x1bc /tmp/cc7gZXBF.debug.temp.o
                                       0x280f (size before relaxing)
 .debug_str     0x0000000000019d71      0x161 /tmp/ccyfYjKF.debug.temp.o
                                       0x17c2 (size before relaxing)
 .debug_str     0x0000000000019ed2      0x1f7 /tmp/cccv01My.debug.temp.o
                                       0x18a8 (size before relaxing)
 .debug_str     0x000000000001a0c9     0x269e /tmp/ccVPpByB.debug.temp.o
                                       0x457c (size before relaxing)
 .debug_str     0x000000000001c767      0x1ba /tmp/cc5Z8osv.debug.temp.o
                                       0x22e7 (size before relaxing)
 .debug_str     0x000000000001c921       0xb7 /tmp/ccTdKUGt.debug.temp.o
                                       0x1fe6 (size before relaxing)
 .debug_str     0x000000000001c9d8     0x22b7 /tmp/ccPjMNaY.debug.temp.o
                                       0x3e50 (size before relaxing)
 .debug_str     0x000000000001ec8f      0x1b5 /tmp/ccXLOhYy.debug.temp.o
                                       0x2ab2 (size before relaxing)
 .debug_str     0x000000000001ee44       0xd2 /tmp/ccCo2DLi.debug.temp.o
                                       0x14aa (size before relaxing)
 .debug_str     0x000000000001ef16      0x151 /tmp/ccJHJfM2.debug.temp.o
                                       0x1654 (size before relaxing)
 .debug_str     0x000000000001f067      0x13d /tmp/ccWFG3mc.debug.temp.o
                                       0x1483 (size before relaxing)
 .debug_str     0x000000000001f1a4      0x103 /tmp/ccwEY2Uz.debug.temp.o
                                        0x4e7 (size before relaxing)
 .debug_str     0x000000000001f2a7      0x526 /tmp/ccnnyznw.debug.temp.o
                                       0x211d (size before relaxing)
 .debug_str     0x000000000001f7cd       0xcf /tmp/ccw0qt3u.debug.temp.o
                                        0x331 (size before relaxing)
 .debug_str     0x000000000001f89c      0x10a /tmp/ccsy1v3u.debug.temp.o
                                       0x1f2c (size before relaxing)
 .debug_str     0x000000000001f9a6       0xd7 /tmp/cclMPEBV.debug.temp.o
                                        0xbe3 (size before relaxing)
 .debug_str     0x000000000001fa7d       0xc3 /tmp/ccEPirrB.debug.temp.o
                                       0x158d (size before relaxing)
 .debug_str     0x000000000001fb40      0x399 /tmp/cctUqyp0.debug.temp.o
                                        0x695 (size before relaxing)
 .debug_str     0x000000000001fed9      0x323 /tmp/cceW9kmV.debug.temp.o
                                       0x2c8a (size before relaxing)
 .debug_str     0x00000000000201fc     0x184a /tmp/cc9v9I1V.debug.temp.o
                                       0x1bab (size before relaxing)
 .debug_str     0x0000000000021a46      0x1cf /tmp/ccmQczTa.debug.temp.o
                                        0x4c4 (size before relaxing)
 .debug_str     0x0000000000021c15      0x13c /tmp/ccl0Q6Sl.debug.temp.o
                                       0x13d3 (size before relaxing)
 .debug_str     0x0000000000021d51      0x265 /tmp/ccuVRx86.debug.temp.o
                                       0x1866 (size before relaxing)
 .debug_str     0x0000000000021fb6       0x82 /tmp/ccXwClf2.debug.temp.o
                                        0x2ae (size before relaxing)
 .debug_str     0x0000000000022038      0x2be /tmp/ccp6m6Sd.debug.temp.o
                                       0x18ed (size before relaxing)
 .debug_str     0x00000000000222f6       0x7e /tmp/ccfatnaC.debug.temp.o
                                        0x2a7 (size before relaxing)
 .debug_str     0x0000000000022374       0x58 /tmp/ccAtDMIS.debug.temp.o
                                        0x2de (size before relaxing)
 .debug_str     0x00000000000223cc       0x46 /tmp/ccVNoey6.debug.temp.o
                                        0x27c (size before relaxing)
 .debug_str     0x0000000000022412       0x45 /tmp/ccURFV6K.debug.temp.o
                                        0x293 (size before relaxing)
 .debug_str     0x0000000000022457       0x44 /tmp/cccdd55R.debug.temp.o
                                        0x292 (size before relaxing)
 .debug_str     0x000000000002249b       0x60 /tmp/ccnHZRvv.debug.temp.o
                                        0x2ae (size before relaxing)
 .debug_str     0x00000000000224fb       0xe1 /tmp/ccqWdb1W.debug.temp.o
                                        0x345 (size before relaxing)
 .debug_str     0x00000000000225dc      0x1ea /tmp/cc71aMtw.debug.temp.o
                                        0x3fa (size before relaxing)
 .debug_str     0x00000000000227c6      0x158 /tmp/cc9z0B30.debug.temp.o
                                        0x43f (size before relaxing)
 .debug_str     0x000000000002291e      0x273 /tmp/ccLNPifb.debug.temp.o
                                       0x1c5a (size before relaxing)
 .debug_str     0x0000000000022b91      0x172 /tmp/cco7ushN.debug.temp.o
                                       0x14cc (size before relaxing)
 .debug_str     0x0000000000022d03      0x5ed /tmp/ccB61hEj.debug.temp.o
                                        0x899 (size before relaxing)
 .debug_str     0x00000000000232f0      0x45c /tmp/ccbDiLWw.debug.temp.o
                                        0x722 (size before relaxing)
 .debug_str     0x000000000002374c      0x6a0 /tmp/ccAgvmth.debug.temp.o
                                       0x27b3 (size before relaxing)
 .debug_str     0x0000000000023dec       0x8d /tmp/ccms9RGy.debug.temp.o
                                        0x2c8 (size before relaxing)
 .debug_str     0x0000000000023e79      0x11d /tmp/cc1A1R4v.debug.temp.o
                                        0x438 (size before relaxing)
 .debug_str     0x0000000000023f96      0x568 /tmp/cc23Zg35.debug.temp.o
                                       0x1f71 (size before relaxing)
 .debug_str     0x00000000000244fe      0x25e /tmp/ccTTFipc.debug.temp.o
                                       0x1469 (size before relaxing)

.debug_frame    0x0000000000000000     0xb1d8
 .debug_frame   0x0000000000000000      0xc70 /tmp/Shell.dll.2u1FF2.ltrans0.ltrans.o
 .debug_frame   0x0000000000000c70     0x3228 /tmp/Shell.dll.2u1FF2.ltrans1.ltrans.o
 .debug_frame   0x0000000000003e98     0x16e8 /tmp/Shell.dll.2u1FF2.ltrans2.ltrans.o
 .debug_frame   0x0000000000005580      0xd18 /tmp/Shell.dll.2u1FF2.ltrans3.ltrans.o
 .debug_frame   0x0000000000006298      0x6f8 /tmp/Shell.dll.2u1FF2.ltrans4.ltrans.o
 .debug_frame   0x0000000000006990      0x7e0 /tmp/Shell.dll.2u1FF2.ltrans5.ltrans.o
 .debug_frame   0x0000000000007170      0xbf8 /tmp/Shell.dll.2u1FF2.ltrans6.ltrans.o
 .debug_frame   0x0000000000007d68      0x7d0 /tmp/Shell.dll.2u1FF2.ltrans7.ltrans.o
 .debug_frame   0x0000000000008538     0x1260 /tmp/Shell.dll.2u1FF2.ltrans8.ltrans.o
 .debug_frame   0x0000000000009798      0xb28 /tmp/Shell.dll.2u1FF2.ltrans9.ltrans.o
 .debug_frame   0x000000000000a2c0      0x2a0 /tmp/Shell.dll.2u1FF2.ltrans10.ltrans.o
 .debug_frame   0x000000000000a560      0x110 /tmp/Shell.dll.2u1FF2.ltrans11.ltrans.o
 .debug_frame   0x000000000000a670      0xb68 /tmp/Shell.dll.2u1FF2.ltrans12.ltrans.o
